
./../build/scenario1.elf:     file format elf32-littlearm


Disassembly of section .text:

00080000 <_sfixed>:
   80000:	20088000 	.word	0x20088000
   80004:	00080729 	.word	0x00080729
   80008:	000807e1 	.word	0x000807e1
   8000c:	000807e1 	.word	0x000807e1
   80010:	000807e1 	.word	0x000807e1
   80014:	000807e1 	.word	0x000807e1
   80018:	000807e1 	.word	0x000807e1
	...
   8002c:	000807e1 	.word	0x000807e1
   80030:	000807e1 	.word	0x000807e1
   80034:	00000000 	.word	0x00000000
   80038:	000807e1 	.word	0x000807e1
   8003c:	000807e1 	.word	0x000807e1
   80040:	000807e1 	.word	0x000807e1
   80044:	000807e1 	.word	0x000807e1
   80048:	000807e1 	.word	0x000807e1
   8004c:	000807e1 	.word	0x000807e1
   80050:	000807e1 	.word	0x000807e1
   80054:	000807e1 	.word	0x000807e1
   80058:	000807e1 	.word	0x000807e1
   8005c:	000807e1 	.word	0x000807e1
   80060:	000807e1 	.word	0x000807e1
   80064:	000807e1 	.word	0x000807e1
   80068:	00000000 	.word	0x00000000
   8006c:	000807e1 	.word	0x000807e1
   80070:	000807e1 	.word	0x000807e1
   80074:	000807e1 	.word	0x000807e1
   80078:	000807e1 	.word	0x000807e1
	...
   80084:	000807e1 	.word	0x000807e1
   80088:	000807e1 	.word	0x000807e1
   8008c:	000807e1 	.word	0x000807e1
   80090:	000807e1 	.word	0x000807e1
   80094:	000807e1 	.word	0x000807e1
   80098:	000807e1 	.word	0x000807e1
   8009c:	000807e1 	.word	0x000807e1
   800a0:	000807e1 	.word	0x000807e1
   800a4:	00000000 	.word	0x00000000
   800a8:	000807e1 	.word	0x000807e1
   800ac:	000807e1 	.word	0x000807e1
   800b0:	000807e1 	.word	0x000807e1
   800b4:	000807e1 	.word	0x000807e1
   800b8:	000807e1 	.word	0x000807e1
   800bc:	000807e1 	.word	0x000807e1
   800c0:	000807e1 	.word	0x000807e1
   800c4:	000807e1 	.word	0x000807e1
   800c8:	000807e1 	.word	0x000807e1
   800cc:	000807e1 	.word	0x000807e1
   800d0:	000807e1 	.word	0x000807e1
   800d4:	000807e1 	.word	0x000807e1
   800d8:	000807e1 	.word	0x000807e1
   800dc:	000807e1 	.word	0x000807e1
   800e0:	000807e1 	.word	0x000807e1
   800e4:	000807e1 	.word	0x000807e1
   800e8:	000807e1 	.word	0x000807e1
   800ec:	000807e1 	.word	0x000807e1
   800f0:	000807e1 	.word	0x000807e1

000800f4 <deregister_tm_clones>:
   800f4:	4b04      	ldr	r3, [pc, #16]	; (80108 <deregister_tm_clones+0x14>)
   800f6:	4805      	ldr	r0, [pc, #20]	; (8010c <deregister_tm_clones+0x18>)
   800f8:	1a1b      	subs	r3, r3, r0
   800fa:	2b06      	cmp	r3, #6
   800fc:	d902      	bls.n	80104 <deregister_tm_clones+0x10>
   800fe:	4b04      	ldr	r3, [pc, #16]	; (80110 <deregister_tm_clones+0x1c>)
   80100:	b103      	cbz	r3, 80104 <deregister_tm_clones+0x10>
   80102:	4718      	bx	r3
   80104:	4770      	bx	lr
   80106:	bf00      	nop
   80108:	0008a347 	.word	0x0008a347
   8010c:	0008a344 	.word	0x0008a344
   80110:	00000000 	.word	0x00000000

00080114 <register_tm_clones>:
   80114:	4905      	ldr	r1, [pc, #20]	; (8012c <register_tm_clones+0x18>)
   80116:	4806      	ldr	r0, [pc, #24]	; (80130 <register_tm_clones+0x1c>)
   80118:	1a09      	subs	r1, r1, r0
   8011a:	1089      	asrs	r1, r1, #2
   8011c:	eb01 71d1 	add.w	r1, r1, r1, lsr #31
   80120:	1049      	asrs	r1, r1, #1
   80122:	d002      	beq.n	8012a <register_tm_clones+0x16>
   80124:	4b03      	ldr	r3, [pc, #12]	; (80134 <register_tm_clones+0x20>)
   80126:	b103      	cbz	r3, 8012a <register_tm_clones+0x16>
   80128:	4718      	bx	r3
   8012a:	4770      	bx	lr
   8012c:	0008a344 	.word	0x0008a344
   80130:	0008a344 	.word	0x0008a344
   80134:	00000000 	.word	0x00000000

00080138 <__do_global_dtors_aux>:
   80138:	b510      	push	{r4, lr}
   8013a:	4c06      	ldr	r4, [pc, #24]	; (80154 <__do_global_dtors_aux+0x1c>)
   8013c:	7823      	ldrb	r3, [r4, #0]
   8013e:	b943      	cbnz	r3, 80152 <__do_global_dtors_aux+0x1a>
   80140:	f7ff ffd8 	bl	800f4 <deregister_tm_clones>
   80144:	4b04      	ldr	r3, [pc, #16]	; (80158 <__do_global_dtors_aux+0x20>)
   80146:	b113      	cbz	r3, 8014e <__do_global_dtors_aux+0x16>
   80148:	4804      	ldr	r0, [pc, #16]	; (8015c <__do_global_dtors_aux+0x24>)
   8014a:	f3af 8000 	nop.w
   8014e:	2301      	movs	r3, #1
   80150:	7023      	strb	r3, [r4, #0]
   80152:	bd10      	pop	{r4, pc}
   80154:	20070588 	.word	0x20070588
   80158:	00000000 	.word	0x00000000
   8015c:	0008a344 	.word	0x0008a344

00080160 <frame_dummy>:
   80160:	b508      	push	{r3, lr}
   80162:	4b08      	ldr	r3, [pc, #32]	; (80184 <frame_dummy+0x24>)
   80164:	b11b      	cbz	r3, 8016e <frame_dummy+0xe>
   80166:	4808      	ldr	r0, [pc, #32]	; (80188 <frame_dummy+0x28>)
   80168:	4908      	ldr	r1, [pc, #32]	; (8018c <frame_dummy+0x2c>)
   8016a:	f3af 8000 	nop.w
   8016e:	4808      	ldr	r0, [pc, #32]	; (80190 <frame_dummy+0x30>)
   80170:	6803      	ldr	r3, [r0, #0]
   80172:	b913      	cbnz	r3, 8017a <frame_dummy+0x1a>
   80174:	e8bd 4008 	ldmia.w	sp!, {r3, lr}
   80178:	e7cc      	b.n	80114 <register_tm_clones>
   8017a:	4b06      	ldr	r3, [pc, #24]	; (80194 <frame_dummy+0x34>)
   8017c:	2b00      	cmp	r3, #0
   8017e:	d0f9      	beq.n	80174 <frame_dummy+0x14>
   80180:	4798      	blx	r3
   80182:	e7f7      	b.n	80174 <frame_dummy+0x14>
   80184:	00000000 	.word	0x00000000
   80188:	0008a344 	.word	0x0008a344
   8018c:	2007058c 	.word	0x2007058c
   80190:	0008a344 	.word	0x0008a344
   80194:	00000000 	.word	0x00000000

00080198 <Encrypt>:
    // r2-r5 : cipher state
    // r6-r7 : temp use
    // r8    : loop control
    // r9    : points to SBOX
    // r10   : 0xff
    asm volatile(
   80198:	e92d 07fc 	stmdb	sp!, {r2, r3, r4, r5, r6, r7, r8, r9, sl}
   8019c:	f04f 0824 	mov.w	r8, #36	; 0x24
   801a0:	f8df 90b0 	ldr.w	r9, [pc, #176]	; 80254 <enc_loop+0xa0>
   801a4:	f04f 0aff 	mov.w	sl, #255	; 0xff
   801a8:	e9d0 2400 	ldrd	r2, r4, [r0]
   801ac:	ea4f 4312 	mov.w	r3, r2, lsr #16
   801b0:	ea4f 4514 	mov.w	r5, r4, lsr #16

000801b4 <enc_loop>:
   801b4:	f002 06ff 	and.w	r6, r2, #255	; 0xff
   801b8:	f819 6006 	ldrb.w	r6, [r9, r6]
   801bc:	f366 0207 	bfi	r2, r6, #0, #8
   801c0:	ea0a 2612 	and.w	r6, sl, r2, lsr #8
   801c4:	f819 6006 	ldrb.w	r6, [r9, r6]
   801c8:	f366 220f 	bfi	r2, r6, #8, #8
   801cc:	f003 06ff 	and.w	r6, r3, #255	; 0xff
   801d0:	f819 6006 	ldrb.w	r6, [r9, r6]
   801d4:	f366 0307 	bfi	r3, r6, #0, #8
   801d8:	ea0a 2613 	and.w	r6, sl, r3, lsr #8
   801dc:	f819 6006 	ldrb.w	r6, [r9, r6]
   801e0:	f366 230f 	bfi	r3, r6, #8, #8
   801e4:	f004 06ff 	and.w	r6, r4, #255	; 0xff
   801e8:	f819 6006 	ldrb.w	r6, [r9, r6]
   801ec:	f366 0407 	bfi	r4, r6, #0, #8
   801f0:	ea0a 2614 	and.w	r6, sl, r4, lsr #8
   801f4:	f819 6006 	ldrb.w	r6, [r9, r6]
   801f8:	f366 240f 	bfi	r4, r6, #8, #8
   801fc:	f005 06ff 	and.w	r6, r5, #255	; 0xff
   80200:	f819 6006 	ldrb.w	r6, [r9, r6]
   80204:	f366 0507 	bfi	r5, r6, #0, #8
   80208:	ea0a 2615 	and.w	r6, sl, r5, lsr #8
   8020c:	f819 6006 	ldrb.w	r6, [r9, r6]
   80210:	f366 250f 	bfi	r5, r6, #8, #8
   80214:	c940      	ldmia	r1!, {r6}
   80216:	4072      	eors	r2, r6
   80218:	ea93 4316 	eors.w	r3, r3, r6, lsr #16
   8021c:	f094 0420 	eors.w	r4, r4, #32
   80220:	4616      	mov	r6, r2
   80222:	f365 451b 	bfi	r5, r5, #16, #12
   80226:	ea4f 3215 	mov.w	r2, r5, lsr #12
   8022a:	ba65      	rev16	r5, r4
   8022c:	f363 4313 	bfi	r3, r3, #16, #4
   80230:	ea4f 1413 	mov.w	r4, r3, lsr #4
   80234:	4633      	mov	r3, r6
   80236:	406c      	eors	r4, r5
   80238:	405d      	eors	r5, r3
   8023a:	406a      	eors	r2, r5
   8023c:	f1b8 0801 	subs.w	r8, r8, #1
   80240:	d1b8      	bne.n	801b4 <enc_loop>
   80242:	f363 421f 	bfi	r2, r3, #16, #16
   80246:	f365 441f 	bfi	r4, r5, #16, #16
   8024a:	e9c0 2400 	strd	r2, r4, [r0]
   8024e:	e8bd 07fc 	ldmia.w	sp!, {r2, r3, r4, r5, r6, r7, r8, r9, sl}
   80252:	4770      	bx	lr
   80254:	00089f88 	.word	0x00089f88

00080258 <RunDecryptionKeySchedule>:
#include "cipher.h"
#include "constants.h"


void RunDecryptionKeySchedule(uint8_t *key, uint8_t *roundKeys)
{
   80258:	4770      	bx	lr
   8025a:	bf00      	nop

0008025c <RunEncryptionKeySchedule>:
    // r6-r7 : temp use
    // r8    : loop control
    // r9    : points to RC
    // r10   : 0xf00f0
    // r11   : 0xf00f0f
    asm volatile(
   8025c:	e92d 0ffc 	stmdb	sp!, {r2, r3, r4, r5, r6, r7, r8, r9, sl, fp}
   80260:	f04f 0824 	mov.w	r8, #36	; 0x24
   80264:	f8df 90a8 	ldr.w	r9, [pc, #168]	; 80310 <key_loop+0x90>
   80268:	f04f 0a0f 	mov.w	sl, #15
   8026c:	ea4f 4a0a 	mov.w	sl, sl, lsl #16
   80270:	f09a 0af0 	eors.w	sl, sl, #240	; 0xf0
   80274:	ea4f 1b0a 	mov.w	fp, sl, lsl #4
   80278:	f09b 0b0f 	eors.w	fp, fp, #15
   8027c:	e890 003c 	ldmia.w	r0, {r2, r3, r4, r5}

00080280 <key_loop>:
   80280:	f899 6000 	ldrb.w	r6, [r9]
   80284:	f119 0901 	adds.w	r9, r9, #1
   80288:	ea4f 4706 	mov.w	r7, r6, lsl #16
   8028c:	f006 060f 	and.w	r6, r6, #15
   80290:	ea92 1606 	eors.w	r6, r2, r6, lsl #4
   80294:	f407 1740 	and.w	r7, r7, #3145728	; 0x300000
   80298:	407e      	eors	r6, r7
   8029a:	4066      	eors	r6, r4
   8029c:	600e      	str	r6, [r1, #0]
   8029e:	3104      	adds	r1, #4
   802a0:	461e      	mov	r6, r3
   802a2:	4613      	mov	r3, r2
   802a4:	ba32      	rev	r2, r6
   802a6:	ea12 020b 	ands.w	r2, r2, fp
   802aa:	ea4f 2706 	mov.w	r7, r6, lsl #8
   802ae:	f007 27f0 	and.w	r7, r7, #4026593280	; 0xf000f000
   802b2:	407a      	eors	r2, r7
   802b4:	ba77      	rev16	r7, r6
   802b6:	ea0a 1717 	and.w	r7, sl, r7, lsr #4
   802ba:	407a      	eors	r2, r7
   802bc:	f406 6670 	and.w	r6, r6, #3840	; 0xf00
   802c0:	ea92 4206 	eors.w	r2, r2, r6, lsl #16
   802c4:	462e      	mov	r6, r5
   802c6:	4625      	mov	r5, r4
   802c8:	ba34      	rev	r4, r6
   802ca:	ea14 040b 	ands.w	r4, r4, fp
   802ce:	ea4f 2706 	mov.w	r7, r6, lsl #8
   802d2:	f007 27f0 	and.w	r7, r7, #4026593280	; 0xf000f000
   802d6:	407c      	eors	r4, r7
   802d8:	ba77      	rev16	r7, r6
   802da:	ea0a 1717 	and.w	r7, sl, r7, lsr #4
   802de:	407c      	eors	r4, r7
   802e0:	f406 6670 	and.w	r6, r6, #3840	; 0xf00
   802e4:	ea94 4406 	eors.w	r4, r4, r6, lsl #16
   802e8:	4626      	mov	r6, r4
   802ea:	4627      	mov	r7, r4
   802ec:	ea86 0657 	eor.w	r6, r6, r7, lsr #1
   802f0:	ea4f 0696 	mov.w	r6, r6, lsr #2
   802f4:	f006 3611 	and.w	r6, r6, #286331153	; 0x11111111
   802f8:	ea4f 0444 	mov.w	r4, r4, lsl #1
   802fc:	f004 34ee 	and.w	r4, r4, #4008636142	; 0xeeeeeeee
   80300:	4074      	eors	r4, r6
   80302:	f1b8 0801 	subs.w	r8, r8, #1
   80306:	d1bb      	bne.n	80280 <key_loop>
   80308:	e8bd 0ffc 	ldmia.w	sp!, {r2, r3, r4, r5, r6, r7, r8, r9, sl, fp}
   8030c:	4770      	bx	lr
   8030e:	0000      	.short	0x0000
   80310:	0008a088 	.word	0x0008a088

00080314 <Decrypt>:
    // r2-r5 : cipher state
    // r6-r7 : temp use
    // r8    : loop control
    // r9    : points to INV_SBOX
    // r10   : 0xff
    asm volatile(
   80314:	e92d 07fc 	stmdb	sp!, {r2, r3, r4, r5, r6, r7, r8, r9, sl}
   80318:	f04f 0824 	mov.w	r8, #36	; 0x24
   8031c:	f8df 90b4 	ldr.w	r9, [pc, #180]	; 803d4 <enc_loop+0xa2>
   80320:	f04f 0aff 	mov.w	sl, #255	; 0xff
   80324:	318c      	adds	r1, #140	; 0x8c
   80326:	e9d0 2400 	ldrd	r2, r4, [r0]
   8032a:	ea4f 4312 	mov.w	r3, r2, lsr #16
   8032e:	ea4f 4514 	mov.w	r5, r4, lsr #16

00080332 <enc_loop>:
   80332:	406a      	eors	r2, r5
   80334:	405d      	eors	r5, r3
   80336:	406c      	eors	r4, r5
   80338:	f364 441b 	bfi	r4, r4, #16, #12
   8033c:	ea4f 3414 	mov.w	r4, r4, lsr #12
   80340:	ba6d      	rev16	r5, r5
   80342:	f362 4213 	bfi	r2, r2, #16, #4
   80346:	ea4f 1212 	mov.w	r2, r2, lsr #4
   8034a:	680e      	ldr	r6, [r1, #0]
   8034c:	3904      	subs	r1, #4
   8034e:	4073      	eors	r3, r6
   80350:	ea94 4416 	eors.w	r4, r4, r6, lsr #16
   80354:	f095 0520 	eors.w	r5, r5, #32
   80358:	f002 06ff 	and.w	r6, r2, #255	; 0xff
   8035c:	f819 6006 	ldrb.w	r6, [r9, r6]
   80360:	f366 0707 	bfi	r7, r6, #0, #8
   80364:	ea0a 2612 	and.w	r6, sl, r2, lsr #8
   80368:	f819 6006 	ldrb.w	r6, [r9, r6]
   8036c:	f366 270f 	bfi	r7, r6, #8, #8
   80370:	f003 06ff 	and.w	r6, r3, #255	; 0xff
   80374:	f819 6006 	ldrb.w	r6, [r9, r6]
   80378:	f366 0207 	bfi	r2, r6, #0, #8
   8037c:	ea0a 2613 	and.w	r6, sl, r3, lsr #8
   80380:	f819 6006 	ldrb.w	r6, [r9, r6]
   80384:	f366 220f 	bfi	r2, r6, #8, #8
   80388:	f004 06ff 	and.w	r6, r4, #255	; 0xff
   8038c:	f819 6006 	ldrb.w	r6, [r9, r6]
   80390:	f366 0307 	bfi	r3, r6, #0, #8
   80394:	ea0a 2614 	and.w	r6, sl, r4, lsr #8
   80398:	f819 6006 	ldrb.w	r6, [r9, r6]
   8039c:	f366 230f 	bfi	r3, r6, #8, #8
   803a0:	f005 06ff 	and.w	r6, r5, #255	; 0xff
   803a4:	f819 6006 	ldrb.w	r6, [r9, r6]
   803a8:	f366 0407 	bfi	r4, r6, #0, #8
   803ac:	ea0a 2615 	and.w	r6, sl, r5, lsr #8
   803b0:	f819 6006 	ldrb.w	r6, [r9, r6]
   803b4:	f366 240f 	bfi	r4, r6, #8, #8
   803b8:	463d      	mov	r5, r7
   803ba:	f1b8 0801 	subs.w	r8, r8, #1
   803be:	d1b8      	bne.n	80332 <enc_loop>
   803c0:	f363 421f 	bfi	r2, r3, #16, #16
   803c4:	f365 441f 	bfi	r4, r5, #16, #16
   803c8:	e9c0 2400 	strd	r2, r4, [r0]
   803cc:	e8bd 07fc 	ldmia.w	sp!, {r2, r3, r4, r5, r6, r7, r8, r9, sl}
   803d0:	4770      	bx	lr
   803d2:	0000      	.short	0x0000
   803d4:	00089e88 	.word	0x00089e88

000803d8 <main>:
 *
 * Entry point into program
 *
 */
int main()
{
   803d8:	b500      	push	{lr}
   803da:	b0cb      	sub	sp, #300	; 0x12c

    RAM_DATA_BYTE key[KEY_SIZE];
    RAM_DATA_BYTE roundKeys[ROUND_KEYS_SIZE];


    InitializeDevice();
   803dc:	f000 f96c 	bl	806b8 <InitializeDevice>


    InitializeData(data, DATA_SIZE);
   803e0:	2180      	movs	r1, #128	; 0x80
   803e2:	a806      	add	r0, sp, #24
   803e4:	f000 f97c 	bl	806e0 <InitializeData>
#if defined(DEBUG) && (DEBUG_LOW == (DEBUG_LOW & DEBUG))
    DisplayData(data, DATA_SIZE, PLAINTEXT_NAME);
#endif


    InitializeIV(iv);
   803e8:	4668      	mov	r0, sp
   803ea:	f000 f989 	bl	80700 <InitializeIV>


    InitializeKey(key);
   803ee:	a802      	add	r0, sp, #8
   803f0:	f000 f966 	bl	806c0 <InitializeKey>
#if defined(DEBUG) && (DEBUG_MEDIUM == (DEBUG_MEDIUM & DEBUG))
    DisplayData(key, KEY_SIZE, KEY_NAME);
#endif


    BEGIN_ENCRYPTION_KEY_SCHEDULE();
   803f4:	f000 f950 	bl	80698 <BeginEncryptionKeySchedule>
    RunEncryptionKeySchedule(key, roundKeys);
   803f8:	a802      	add	r0, sp, #8
   803fa:	a926      	add	r1, sp, #152	; 0x98
   803fc:	f7ff ff2e 	bl	8025c <RunEncryptionKeySchedule>
    END_ENCRYPTION_KEY_SCHEDULE();
   80400:	f000 f94c 	bl	8069c <EndEncryptionKeySchedule>

#if defined(DEBUG) && (DEBUG_LOW == (DEBUG_LOW & DEBUG))
    DisplayData(data, DATA_SIZE, PLAINTEXT_NAME);
#endif

    BEGIN_ENCRYPTION();
   80404:	f000 f94c 	bl	806a0 <BeginEncryption>
    EncryptScenario1(data, roundKeys, iv);
   80408:	466a      	mov	r2, sp
   8040a:	a806      	add	r0, sp, #24
   8040c:	a926      	add	r1, sp, #152	; 0x98
   8040e:	f000 f819 	bl	80444 <EncryptScenario1>
    END_ENCRYPTION();
   80412:	f000 f947 	bl	806a4 <EndEncryption>
#if defined(DEBUG) && (DEBUG_LOW == (DEBUG_LOW & DEBUG))
    DisplayData(data, DATA_SIZE, CIPHERTEXT_NAME);
#endif


    BEGIN_DECRYPTION_KEY_SCHEDULE();
   80416:	f000 f947 	bl	806a8 <BeginDecryptionKeySchedule>
    RunDecryptionKeySchedule(key, roundKeys);
   8041a:	a802      	add	r0, sp, #8
   8041c:	a926      	add	r1, sp, #152	; 0x98
   8041e:	f7ff ff1b 	bl	80258 <RunDecryptionKeySchedule>
    END_DECRYPTION_KEY_SCHEDULE();
   80422:	f000 f943 	bl	806ac <EndDecryptionKeySchedule>

#if defined(DEBUG) && (DEBUG_LOW == (DEBUG_LOW & DEBUG))
    DisplayData(data, DATA_SIZE, CIPHERTEXT_NAME);
#endif

    BEGIN_DECRYPTION();
   80426:	f000 f943 	bl	806b0 <BeginDecryption>
    DecryptScenario1(data, roundKeys, iv);
   8042a:	a806      	add	r0, sp, #24
   8042c:	a926      	add	r1, sp, #152	; 0x98
   8042e:	466a      	mov	r2, sp
   80430:	f000 f884 	bl	8053c <DecryptScenario1>
    END_DECRYPTION();
   80434:	f000 f93e 	bl	806b4 <EndDecryption>


    DONE();


    StopDevice();
   80438:	f000 f940 	bl	806bc <StopDevice>


    return 0;
}
   8043c:	2000      	movs	r0, #0
   8043e:	b04b      	add	sp, #300	; 0x12c
   80440:	f85d fb04 	ldr.w	pc, [sp], #4

00080444 <EncryptScenario1>:
#include "scenario1.h"
#include "cipher.h"


void EncryptScenario1(uint8_t *data, uint8_t *roundKeys, uint8_t *iv)
{
   80444:	e92d 4ff8 	stmdb	sp!, {r3, r4, r5, r6, r7, r8, r9, sl, fp, lr}
   80448:	ea42 0300 	orr.w	r3, r2, r0
   8044c:	079b      	lsls	r3, r3, #30
   8044e:	4604      	mov	r4, r0
   80450:	460d      	mov	r5, r1
   80452:	d152      	bne.n	804fa <EncryptScenario1+0xb6>
   80454:	1d03      	adds	r3, r0, #4
   80456:	1d11      	adds	r1, r2, #4
   80458:	4288      	cmp	r0, r1
   8045a:	bf38      	it	cc
   8045c:	429a      	cmpcc	r2, r3
   8045e:	d34c      	bcc.n	804fa <EncryptScenario1+0xb6>


    /* Encrypt first data block */
    for(i = 0; i < BLOCK_SIZE; i++)
    {
        data[i] ^= iv[i];
   80460:	6803      	ldr	r3, [r0, #0]
   80462:	6811      	ldr	r1, [r2, #0]
   80464:	6840      	ldr	r0, [r0, #4]
   80466:	4059      	eors	r1, r3
   80468:	6021      	str	r1, [r4, #0]
   8046a:	6853      	ldr	r3, [r2, #4]
   8046c:	4043      	eors	r3, r0
   8046e:	6063      	str	r3, [r4, #4]
    }

    Encrypt(&data[0], roundKeys);
   80470:	4620      	mov	r0, r4
   80472:	46a0      	mov	r8, r4
   80474:	4629      	mov	r1, r5
   80476:	f7ff fe8f 	bl	80198 <Encrypt>
   8047a:	3408      	adds	r4, #8
   8047c:	f108 0680 	add.w	r6, r8, #128	; 0x80
    for(i = BLOCK_SIZE; i < DATA_SIZE; i += BLOCK_SIZE)
    {
        for(j = 0; j < BLOCK_SIZE; j++)
        {
            int16_t index = i + j;
            data[index] ^= data[index - BLOCK_SIZE];
   80480:	f898 3008 	ldrb.w	r3, [r8, #8]
   80484:	f814 2c08 	ldrb.w	r2, [r4, #-8]
        }

        Encrypt(&data[i], roundKeys);
   80488:	4620      	mov	r0, r4
    for(i = BLOCK_SIZE; i < DATA_SIZE; i += BLOCK_SIZE)
    {
        for(j = 0; j < BLOCK_SIZE; j++)
        {
            int16_t index = i + j;
            data[index] ^= data[index - BLOCK_SIZE];
   8048a:	4053      	eors	r3, r2
   8048c:	f808 3f08 	strb.w	r3, [r8, #8]!
   80490:	7863      	ldrb	r3, [r4, #1]
   80492:	f814 9c07 	ldrb.w	r9, [r4, #-7]
   80496:	78e2      	ldrb	r2, [r4, #3]
   80498:	f814 bc06 	ldrb.w	fp, [r4, #-6]
   8049c:	f894 c002 	ldrb.w	ip, [r4, #2]
   804a0:	f814 ac04 	ldrb.w	sl, [r4, #-4]
   804a4:	7927      	ldrb	r7, [r4, #4]
   804a6:	f814 ec05 	ldrb.w	lr, [r4, #-5]
   804aa:	f814 1c03 	ldrb.w	r1, [r4, #-3]
   804ae:	ea89 0903 	eor.w	r9, r9, r3
   804b2:	7963      	ldrb	r3, [r4, #5]
   804b4:	ea8b 0c0c 	eor.w	ip, fp, ip
   804b8:	ea8e 0e02 	eor.w	lr, lr, r2
   804bc:	f814 bc02 	ldrb.w	fp, [r4, #-2]
   804c0:	79a2      	ldrb	r2, [r4, #6]
   804c2:	4059      	eors	r1, r3
   804c4:	ea8a 0707 	eor.w	r7, sl, r7
   804c8:	79e3      	ldrb	r3, [r4, #7]
   804ca:	f814 ac01 	ldrb.w	sl, [r4, #-1]
   804ce:	ea8b 0202 	eor.w	r2, fp, r2
   804d2:	ea8a 0303 	eor.w	r3, sl, r3
   804d6:	7161      	strb	r1, [r4, #5]
   804d8:	f884 9001 	strb.w	r9, [r4, #1]
   804dc:	f884 c002 	strb.w	ip, [r4, #2]
   804e0:	f884 e003 	strb.w	lr, [r4, #3]
   804e4:	7127      	strb	r7, [r4, #4]
   804e6:	71a2      	strb	r2, [r4, #6]
   804e8:	71e3      	strb	r3, [r4, #7]
        }

        Encrypt(&data[i], roundKeys);
   804ea:	4629      	mov	r1, r5
   804ec:	3408      	adds	r4, #8
   804ee:	f7ff fe53 	bl	80198 <Encrypt>

    Encrypt(&data[0], roundKeys);


    /* Encrypt the remaining data blocks */
    for(i = BLOCK_SIZE; i < DATA_SIZE; i += BLOCK_SIZE)
   804f2:	42b4      	cmp	r4, r6
   804f4:	d1c4      	bne.n	80480 <EncryptScenario1+0x3c>
            data[index] ^= data[index - BLOCK_SIZE];
        }

        Encrypt(&data[i], roundKeys);
    }
}
   804f6:	e8bd 8ff8 	ldmia.w	sp!, {r3, r4, r5, r6, r7, r8, r9, sl, fp, pc}


    /* Encrypt first data block */
    for(i = 0; i < BLOCK_SIZE; i++)
    {
        data[i] ^= iv[i];
   804fa:	7810      	ldrb	r0, [r2, #0]
   804fc:	7821      	ldrb	r1, [r4, #0]
   804fe:	7863      	ldrb	r3, [r4, #1]
   80500:	4041      	eors	r1, r0
   80502:	7021      	strb	r1, [r4, #0]
   80504:	7850      	ldrb	r0, [r2, #1]
   80506:	78a1      	ldrb	r1, [r4, #2]
   80508:	4043      	eors	r3, r0
   8050a:	7063      	strb	r3, [r4, #1]
   8050c:	7890      	ldrb	r0, [r2, #2]
   8050e:	78e3      	ldrb	r3, [r4, #3]
   80510:	4041      	eors	r1, r0
   80512:	70a1      	strb	r1, [r4, #2]
   80514:	78d0      	ldrb	r0, [r2, #3]
   80516:	7921      	ldrb	r1, [r4, #4]
   80518:	4043      	eors	r3, r0
   8051a:	70e3      	strb	r3, [r4, #3]
   8051c:	7910      	ldrb	r0, [r2, #4]
   8051e:	7963      	ldrb	r3, [r4, #5]
   80520:	4041      	eors	r1, r0
   80522:	7121      	strb	r1, [r4, #4]
   80524:	7950      	ldrb	r0, [r2, #5]
   80526:	79a1      	ldrb	r1, [r4, #6]
   80528:	4043      	eors	r3, r0
   8052a:	7163      	strb	r3, [r4, #5]
   8052c:	7990      	ldrb	r0, [r2, #6]
   8052e:	79e3      	ldrb	r3, [r4, #7]
   80530:	4041      	eors	r1, r0
   80532:	71a1      	strb	r1, [r4, #6]
   80534:	79d2      	ldrb	r2, [r2, #7]
   80536:	4053      	eors	r3, r2
   80538:	71e3      	strb	r3, [r4, #7]
   8053a:	e799      	b.n	80470 <EncryptScenario1+0x2c>

0008053c <DecryptScenario1>:
#include "scenario1.h"
#include "cipher.h"


void DecryptScenario1(uint8_t *data, uint8_t *roundKeys, uint8_t *iv)
{
   8053c:	e92d 4ff0 	stmdb	sp!, {r4, r5, r6, r7, r8, r9, sl, fp, lr}
   80540:	4604      	mov	r4, r0
   80542:	460f      	mov	r7, r1
   80544:	4615      	mov	r5, r2
   80546:	6800      	ldr	r0, [r0, #0]
   80548:	6861      	ldr	r1, [r4, #4]
   8054a:	b087      	sub	sp, #28
   8054c:	ab02      	add	r3, sp, #8
   8054e:	c303      	stmia	r3!, {r0, r1}
    for(i = 0; i < BLOCK_SIZE; i++)
    {
        previous[0][i] = data[i];
    }

    Decrypt(&data[0], roundKeys);
   80550:	4620      	mov	r0, r4
   80552:	4639      	mov	r1, r7
   80554:	f7ff fede 	bl	80314 <Decrypt>
   80558:	ea44 0305 	orr.w	r3, r4, r5
   8055c:	079b      	lsls	r3, r3, #30
   8055e:	d179      	bne.n	80654 <DecryptScenario1+0x118>
   80560:	1d23      	adds	r3, r4, #4
   80562:	1d2a      	adds	r2, r5, #4
   80564:	4294      	cmp	r4, r2
   80566:	bf38      	it	cc
   80568:	429d      	cmpcc	r5, r3
   8056a:	d373      	bcc.n	80654 <DecryptScenario1+0x118>

    for(i = 0; i < BLOCK_SIZE; i++)
    {
        data[i] ^= iv[i];
   8056c:	6823      	ldr	r3, [r4, #0]
   8056e:	682a      	ldr	r2, [r5, #0]
   80570:	6861      	ldr	r1, [r4, #4]
   80572:	405a      	eors	r2, r3
   80574:	6022      	str	r2, [r4, #0]
   80576:	686b      	ldr	r3, [r5, #4]
   80578:	404b      	eors	r3, r1
   8057a:	6063      	str	r3, [r4, #4]
   8057c:	f104 0378 	add.w	r3, r4, #120	; 0x78
#include "scenario1.h"
#include "cipher.h"


void DecryptScenario1(uint8_t *data, uint8_t *roundKeys, uint8_t *iv)
{
   80580:	2501      	movs	r5, #1
   80582:	9301      	str	r3, [sp, #4]
    /* Decrypt the remaining data blocks */
    for(i = BLOCK_SIZE; i < DATA_SIZE; i += BLOCK_SIZE)
    {
        for(j = 0; j < BLOCK_SIZE; j++)
        {
            previous[k][j] = data[i + j];
   80584:	7a22      	ldrb	r2, [r4, #8]
   80586:	ab06      	add	r3, sp, #24
   80588:	eb03 03c5 	add.w	r3, r3, r5, lsl #3
   8058c:	7a61      	ldrb	r1, [r4, #9]
   8058e:	f894 a00a 	ldrb.w	sl, [r4, #10]
   80592:	f894 900b 	ldrb.w	r9, [r4, #11]
   80596:	f894 c00c 	ldrb.w	ip, [r4, #12]
   8059a:	f894 e00d 	ldrb.w	lr, [r4, #13]
   8059e:	7ba6      	ldrb	r6, [r4, #14]
   805a0:	f104 0808 	add.w	r8, r4, #8
   805a4:	f803 2c10 	strb.w	r2, [r3, #-16]
   805a8:	7be2      	ldrb	r2, [r4, #15]
   805aa:	f803 1c0f 	strb.w	r1, [r3, #-15]
        }
        k = (k + 1) % 2;

        Decrypt(&data[i], roundKeys);
   805ae:	4640      	mov	r0, r8
   805b0:	4639      	mov	r1, r7
    /* Decrypt the remaining data blocks */
    for(i = BLOCK_SIZE; i < DATA_SIZE; i += BLOCK_SIZE)
    {
        for(j = 0; j < BLOCK_SIZE; j++)
        {
            previous[k][j] = data[i + j];
   805b2:	f803 ac0e 	strb.w	sl, [r3, #-14]
   805b6:	f803 9c0d 	strb.w	r9, [r3, #-13]
   805ba:	f803 cc0c 	strb.w	ip, [r3, #-12]
   805be:	f803 ec0b 	strb.w	lr, [r3, #-11]
   805c2:	f803 6c0a 	strb.w	r6, [r3, #-10]
   805c6:	f803 2c09 	strb.w	r2, [r3, #-9]
        }
        k = (k + 1) % 2;
   805ca:	f085 0501 	eor.w	r5, r5, #1

        Decrypt(&data[i], roundKeys);
   805ce:	f7ff fea1 	bl	80314 <Decrypt>

        for(j = 0; j < BLOCK_SIZE; j++)
        {
            data[i + j] ^= previous[k][j];
   805d2:	ab06      	add	r3, sp, #24
   805d4:	eb03 03c5 	add.w	r3, r3, r5, lsl #3
   805d8:	f894 a009 	ldrb.w	sl, [r4, #9]
   805dc:	f813 0c10 	ldrb.w	r0, [r3, #-16]
   805e0:	f894 9008 	ldrb.w	r9, [r4, #8]
   805e4:	f813 cc0f 	ldrb.w	ip, [r3, #-15]
   805e8:	f813 2c0e 	ldrb.w	r2, [r3, #-14]
   805ec:	f894 e00a 	ldrb.w	lr, [r4, #10]
   805f0:	ea89 0900 	eor.w	r9, r9, r0
   805f4:	ea8a 0c0c 	eor.w	ip, sl, ip
   805f8:	f813 0c0c 	ldrb.w	r0, [r3, #-12]
   805fc:	f894 a00c 	ldrb.w	sl, [r4, #12]
   80600:	f813 1c0d 	ldrb.w	r1, [r3, #-13]
   80604:	7ae6      	ldrb	r6, [r4, #11]
   80606:	ea8e 0e02 	eor.w	lr, lr, r2
   8060a:	ea8a 0000 	eor.w	r0, sl, r0
   8060e:	f813 2c0b 	ldrb.w	r2, [r3, #-11]
   80612:	f894 a00f 	ldrb.w	sl, [r4, #15]
   80616:	f813 bc0a 	ldrb.w	fp, [r3, #-10]
   8061a:	f813 3c09 	ldrb.w	r3, [r3, #-9]
   8061e:	404e      	eors	r6, r1
   80620:	7b61      	ldrb	r1, [r4, #13]
   80622:	ea8a 0303 	eor.w	r3, sl, r3
   80626:	4051      	eors	r1, r2
   80628:	73e3      	strb	r3, [r4, #15]
   8062a:	7ba2      	ldrb	r2, [r4, #14]
    }


    uint8_t k = 1;
    /* Decrypt the remaining data blocks */
    for(i = BLOCK_SIZE; i < DATA_SIZE; i += BLOCK_SIZE)
   8062c:	9b01      	ldr	r3, [sp, #4]

        Decrypt(&data[i], roundKeys);

        for(j = 0; j < BLOCK_SIZE; j++)
        {
            data[i + j] ^= previous[k][j];
   8062e:	ea82 020b 	eor.w	r2, r2, fp
    }


    uint8_t k = 1;
    /* Decrypt the remaining data blocks */
    for(i = BLOCK_SIZE; i < DATA_SIZE; i += BLOCK_SIZE)
   80632:	4543      	cmp	r3, r8

        Decrypt(&data[i], roundKeys);

        for(j = 0; j < BLOCK_SIZE; j++)
        {
            data[i + j] ^= previous[k][j];
   80634:	f884 9008 	strb.w	r9, [r4, #8]
   80638:	f884 c009 	strb.w	ip, [r4, #9]
   8063c:	f884 e00a 	strb.w	lr, [r4, #10]
   80640:	72e6      	strb	r6, [r4, #11]
   80642:	7320      	strb	r0, [r4, #12]
   80644:	7361      	strb	r1, [r4, #13]
   80646:	73a2      	strb	r2, [r4, #14]
    {
        for(j = 0; j < BLOCK_SIZE; j++)
        {
            previous[k][j] = data[i + j];
        }
        k = (k + 1) % 2;
   80648:	b2ed      	uxtb	r5, r5
   8064a:	4644      	mov	r4, r8
    }


    uint8_t k = 1;
    /* Decrypt the remaining data blocks */
    for(i = BLOCK_SIZE; i < DATA_SIZE; i += BLOCK_SIZE)
   8064c:	d19a      	bne.n	80584 <DecryptScenario1+0x48>
        for(j = 0; j < BLOCK_SIZE; j++)
        {
            data[i + j] ^= previous[k][j];
        }
    }
}
   8064e:	b007      	add	sp, #28
   80650:	e8bd 8ff0 	ldmia.w	sp!, {r4, r5, r6, r7, r8, r9, sl, fp, pc}

    Decrypt(&data[0], roundKeys);

    for(i = 0; i < BLOCK_SIZE; i++)
    {
        data[i] ^= iv[i];
   80654:	7829      	ldrb	r1, [r5, #0]
   80656:	7822      	ldrb	r2, [r4, #0]
   80658:	7863      	ldrb	r3, [r4, #1]
   8065a:	404a      	eors	r2, r1
   8065c:	7022      	strb	r2, [r4, #0]
   8065e:	7869      	ldrb	r1, [r5, #1]
   80660:	78a2      	ldrb	r2, [r4, #2]
   80662:	404b      	eors	r3, r1
   80664:	7063      	strb	r3, [r4, #1]
   80666:	78a9      	ldrb	r1, [r5, #2]
   80668:	78e3      	ldrb	r3, [r4, #3]
   8066a:	404a      	eors	r2, r1
   8066c:	70a2      	strb	r2, [r4, #2]
   8066e:	78e9      	ldrb	r1, [r5, #3]
   80670:	7922      	ldrb	r2, [r4, #4]
   80672:	404b      	eors	r3, r1
   80674:	70e3      	strb	r3, [r4, #3]
   80676:	7929      	ldrb	r1, [r5, #4]
   80678:	7963      	ldrb	r3, [r4, #5]
   8067a:	404a      	eors	r2, r1
   8067c:	7122      	strb	r2, [r4, #4]
   8067e:	7969      	ldrb	r1, [r5, #5]
   80680:	79a2      	ldrb	r2, [r4, #6]
   80682:	404b      	eors	r3, r1
   80684:	7163      	strb	r3, [r4, #5]
   80686:	79a9      	ldrb	r1, [r5, #6]
   80688:	79e3      	ldrb	r3, [r4, #7]
   8068a:	404a      	eors	r2, r1
   8068c:	71a2      	strb	r2, [r4, #6]
   8068e:	79ea      	ldrb	r2, [r5, #7]
   80690:	4053      	eors	r3, r2
   80692:	71e3      	strb	r3, [r4, #7]
   80694:	e772      	b.n	8057c <DecryptScenario1+0x40>
   80696:	bf00      	nop

00080698 <BeginEncryptionKeySchedule>:

#endif


void BeginEncryptionKeySchedule()
{
   80698:	4770      	bx	lr
   8069a:	bf00      	nop

0008069c <EndEncryptionKeySchedule>:
    printf("->EncryptionKeySchedule begin\n");
#endif
}

void EndEncryptionKeySchedule()
{
   8069c:	4770      	bx	lr
   8069e:	bf00      	nop

000806a0 <BeginEncryption>:
    printf("->EncryptionKeySchedule end\n");
#endif
}

void BeginEncryption()
{
   806a0:	4770      	bx	lr
   806a2:	bf00      	nop

000806a4 <EndEncryption>:
    printf("->Encryption begin\n");
#endif
}

void EndEncryption()
{
   806a4:	4770      	bx	lr
   806a6:	bf00      	nop

000806a8 <BeginDecryptionKeySchedule>:
    printf("->Encryption end\n");
#endif
}

void BeginDecryptionKeySchedule()
{
   806a8:	4770      	bx	lr
   806aa:	bf00      	nop

000806ac <EndDecryptionKeySchedule>:
    printf("->DecryptionKeySchedule begin\n");
#endif
}

void EndDecryptionKeySchedule()
{
   806ac:	4770      	bx	lr
   806ae:	bf00      	nop

000806b0 <BeginDecryption>:
    printf("->DecryptionKeySchedule end\n");
#endif
}

void BeginDecryption()
{
   806b0:	4770      	bx	lr
   806b2:	bf00      	nop

000806b4 <EndDecryption>:
    printf("->Decryption begin\n");
#endif
}

void EndDecryption()
{
   806b4:	4770      	bx	lr
   806b6:	bf00      	nop

000806b8 <InitializeDevice>:
 */
extern void init(void);

void InitializeDevice()
{
    init();
   806b8:	f000 b896 	b.w	807e8 <init>

000806bc <StopDevice>:
}

void StopDevice()
{
   806bc:	4770      	bx	lr
   806be:	bf00      	nop

000806c0 <InitializeKey>:

#endif /* ARM */


void InitializeKey(uint8_t *key)
{
   806c0:	4b06      	ldr	r3, [pc, #24]	; (806dc <InitializeKey+0x1c>)
   806c2:	b410      	push	{r4}
   806c4:	6859      	ldr	r1, [r3, #4]
   806c6:	681c      	ldr	r4, [r3, #0]
   806c8:	689a      	ldr	r2, [r3, #8]
   806ca:	68db      	ldr	r3, [r3, #12]
   806cc:	6004      	str	r4, [r0, #0]
   806ce:	6041      	str	r1, [r0, #4]
   806d0:	6082      	str	r2, [r0, #8]
   806d2:	60c3      	str	r3, [r0, #12]

    for(i = 0; i < KEY_SIZE; i++)
    {
        key[i] = expectedKey[i];
    }
}
   806d4:	f85d 4b04 	ldr.w	r4, [sp], #4
   806d8:	4770      	bx	lr
   806da:	bf00      	nop
   806dc:	0008a0ac 	.word	0x0008a0ac

000806e0 <InitializeData>:

void InitializeData(uint8_t *data, int length)
{
    uint8_t i;

    for(i = 0; i < length; i++)
   806e0:	2900      	cmp	r1, #0
   806e2:	dd0c      	ble.n	806fe <InitializeData+0x1e>
    }
}


void InitializeData(uint8_t *data, int length)
{
   806e4:	b470      	push	{r4, r5, r6}
   806e6:	b2ce      	uxtb	r6, r1
    uint8_t i;

    for(i = 0; i < length; i++)
   806e8:	2400      	movs	r4, #0
   806ea:	b2e2      	uxtb	r2, r4
   806ec:	1c53      	adds	r3, r2, #1
   806ee:	b2db      	uxtb	r3, r3
   806f0:	1ab5      	subs	r5, r6, r2
   806f2:	428b      	cmp	r3, r1
   806f4:	f104 0401 	add.w	r4, r4, #1
    {
        data[i] = length - i;
   806f8:	5485      	strb	r5, [r0, r2]

void InitializeData(uint8_t *data, int length)
{
    uint8_t i;

    for(i = 0; i < length; i++)
   806fa:	dbf6      	blt.n	806ea <InitializeData+0xa>
    {
        data[i] = length - i;
    }
}
   806fc:	bc70      	pop	{r4, r5, r6}
   806fe:	4770      	bx	lr

00080700 <InitializeIV>:
        block[i] = BLOCK_SIZE - i;
    }
}

void InitializeIV(uint8_t *iv)
{
   80700:	b5f0      	push	{r4, r5, r6, r7, lr}
    uint8_t i;

    for(i = 0; i < BLOCK_SIZE; i++)
    {
        iv[i] = BLOCK_SIZE - i;
   80702:	2103      	movs	r1, #3
   80704:	f04f 0e08 	mov.w	lr, #8
   80708:	2707      	movs	r7, #7
   8070a:	2606      	movs	r6, #6
   8070c:	2505      	movs	r5, #5
   8070e:	2404      	movs	r4, #4
   80710:	2202      	movs	r2, #2
   80712:	2301      	movs	r3, #1
   80714:	f880 e000 	strb.w	lr, [r0]
   80718:	7047      	strb	r7, [r0, #1]
   8071a:	7086      	strb	r6, [r0, #2]
   8071c:	70c5      	strb	r5, [r0, #3]
   8071e:	7104      	strb	r4, [r0, #4]
   80720:	7141      	strb	r1, [r0, #5]
   80722:	7182      	strb	r2, [r0, #6]
   80724:	71c3      	strb	r3, [r0, #7]
   80726:	bdf0      	pop	{r4, r5, r6, r7, pc}

00080728 <Reset_Handler>:
   80728:	b580      	push	{r7, lr}
   8072a:	b082      	sub	sp, #8
   8072c:	af00      	add	r7, sp, #0
   8072e:	f24a 3344 	movw	r3, #41796	; 0xa344
   80732:	f2c0 0308 	movt	r3, #8
   80736:	607b      	str	r3, [r7, #4]
   80738:	f240 0300 	movw	r3, #0
   8073c:	f2c2 0307 	movt	r3, #8199	; 0x2007
   80740:	603b      	str	r3, [r7, #0]
   80742:	687a      	ldr	r2, [r7, #4]
   80744:	683b      	ldr	r3, [r7, #0]
   80746:	429a      	cmp	r2, r3
   80748:	d00f      	beq.n	8076a <Reset_Handler+0x42>
   8074a:	e007      	b.n	8075c <Reset_Handler+0x34>
   8074c:	683b      	ldr	r3, [r7, #0]
   8074e:	1d1a      	adds	r2, r3, #4
   80750:	603a      	str	r2, [r7, #0]
   80752:	687a      	ldr	r2, [r7, #4]
   80754:	1d11      	adds	r1, r2, #4
   80756:	6079      	str	r1, [r7, #4]
   80758:	6812      	ldr	r2, [r2, #0]
   8075a:	601a      	str	r2, [r3, #0]
   8075c:	683a      	ldr	r2, [r7, #0]
   8075e:	f240 5388 	movw	r3, #1416	; 0x588
   80762:	f2c2 0307 	movt	r3, #8199	; 0x2007
   80766:	429a      	cmp	r2, r3
   80768:	d3f0      	bcc.n	8074c <Reset_Handler+0x24>
   8076a:	f240 5388 	movw	r3, #1416	; 0x588
   8076e:	f2c2 0307 	movt	r3, #8199	; 0x2007
   80772:	603b      	str	r3, [r7, #0]
   80774:	e004      	b.n	80780 <Reset_Handler+0x58>
   80776:	683b      	ldr	r3, [r7, #0]
   80778:	1d1a      	adds	r2, r3, #4
   8077a:	603a      	str	r2, [r7, #0]
   8077c:	2200      	movs	r2, #0
   8077e:	601a      	str	r2, [r3, #0]
   80780:	683a      	ldr	r2, [r7, #0]
   80782:	f240 53e8 	movw	r3, #1512	; 0x5e8
   80786:	f2c2 0307 	movt	r3, #8199	; 0x2007
   8078a:	429a      	cmp	r2, r3
   8078c:	d3f3      	bcc.n	80776 <Reset_Handler+0x4e>
   8078e:	f240 0300 	movw	r3, #0
   80792:	f2c0 0308 	movt	r3, #8
   80796:	607b      	str	r3, [r7, #4]
   80798:	f44f 436d 	mov.w	r3, #60672	; 0xed00
   8079c:	f2ce 0300 	movt	r3, #57344	; 0xe000
   807a0:	687a      	ldr	r2, [r7, #4]
   807a2:	f022 4260 	bic.w	r2, r2, #3758096384	; 0xe0000000
   807a6:	f022 027f 	bic.w	r2, r2, #127	; 0x7f
   807aa:	609a      	str	r2, [r3, #8]
   807ac:	687b      	ldr	r3, [r7, #4]
   807ae:	f1b3 5f00 	cmp.w	r3, #536870912	; 0x20000000
   807b2:	d312      	bcc.n	807da <Reset_Handler+0xb2>
   807b4:	687a      	ldr	r2, [r7, #4]
   807b6:	f64f 73ff 	movw	r3, #65535	; 0xffff
   807ba:	f2c2 030f 	movt	r3, #8207	; 0x200f
   807be:	429a      	cmp	r2, r3
   807c0:	d80b      	bhi.n	807da <Reset_Handler+0xb2>
   807c2:	f44f 436d 	mov.w	r3, #60672	; 0xed00
   807c6:	f2ce 0300 	movt	r3, #57344	; 0xe000
   807ca:	f44f 426d 	mov.w	r2, #60672	; 0xed00
   807ce:	f2ce 0200 	movt	r2, #57344	; 0xe000
   807d2:	6892      	ldr	r2, [r2, #8]
   807d4:	f042 5200 	orr.w	r2, r2, #536870912	; 0x20000000
   807d8:	609a      	str	r2, [r3, #8]
   807da:	f7ff fdfd 	bl	803d8 <main>
   807de:	e7fe      	b.n	807de <Reset_Handler+0xb6>

000807e0 <Dummy_Handler>:
   807e0:	b480      	push	{r7}
   807e2:	af00      	add	r7, sp, #0
   807e4:	e7fe      	b.n	807e4 <Dummy_Handler+0x4>
   807e6:	bf00      	nop

000807e8 <init>:
   807e8:	b590      	push	{r4, r7, lr}
   807ea:	b085      	sub	sp, #20
   807ec:	af00      	add	r7, sp, #0
   807ee:	f000 f889 	bl	80904 <SystemInit>
   807f2:	f002 fa2d 	bl	82c50 <__libc_init_array>
   807f6:	f641 2050 	movw	r0, #6736	; 0x1a50
   807fa:	f2c4 000e 	movt	r0, #16398	; 0x400e
   807fe:	f001 fff9 	bl	827f4 <wdt_disable>
   80802:	f44f 5080 	mov.w	r0, #4096	; 0x1000
   80806:	f2c4 000e 	movt	r0, #16398	; 0x400e
   8080a:	f04f 5140 	mov.w	r1, #805306368	; 0x30000000
   8080e:	f04f 6200 	mov.w	r2, #134217728	; 0x8000000
   80812:	2300      	movs	r3, #0
   80814:	f000 fbd8 	bl	80fc8 <pio_configure>
   80818:	f44f 6060 	mov.w	r0, #3584	; 0xe00
   8081c:	f2c4 000e 	movt	r0, #16398	; 0x400e
   80820:	f04f 5140 	mov.w	r1, #805306368	; 0x30000000
   80824:	f44f 1200 	mov.w	r2, #2097152	; 0x200000
   80828:	2300      	movs	r3, #0
   8082a:	f000 fbcd 	bl	80fc8 <pio_configure>
   8082e:	f44f 5090 	mov.w	r0, #4608	; 0x1200
   80832:	f2c4 000e 	movt	r0, #16398	; 0x400e
   80836:	f04f 5140 	mov.w	r1, #805306368	; 0x30000000
   8083a:	f04f 4280 	mov.w	r2, #1073741824	; 0x40000000
   8083e:	2300      	movs	r3, #0
   80840:	f000 fbc2 	bl	80fc8 <pio_configure>
   80844:	2008      	movs	r0, #8
   80846:	f001 fb61 	bl	81f0c <pmc_enable_periph_clk>
   8084a:	f44f 6360 	mov.w	r3, #3584	; 0xe00
   8084e:	f2c4 030e 	movt	r3, #16398	; 0x400e
   80852:	f44f 7240 	mov.w	r2, #768	; 0x300
   80856:	645a      	str	r2, [r3, #68]	; 0x44
   80858:	f44f 6360 	mov.w	r3, #3584	; 0xe00
   8085c:	f2c4 030e 	movt	r3, #16398	; 0x400e
   80860:	f44f 6260 	mov.w	r2, #3584	; 0xe00
   80864:	f2c4 020e 	movt	r2, #16398	; 0x400e
   80868:	6f12      	ldr	r2, [r2, #112]	; 0x70
   8086a:	f422 7240 	bic.w	r2, r2, #768	; 0x300
   8086e:	671a      	str	r2, [r3, #112]	; 0x70
   80870:	f44f 6360 	mov.w	r3, #3584	; 0xe00
   80874:	f2c4 030e 	movt	r3, #16398	; 0x400e
   80878:	f44f 7240 	mov.w	r2, #768	; 0x300
   8087c:	605a      	str	r2, [r3, #4]
   8087e:	f44f 6360 	mov.w	r3, #3584	; 0xe00
   80882:	f2c4 030e 	movt	r3, #16398	; 0x400e
   80886:	f44f 7240 	mov.w	r2, #768	; 0x300
   8088a:	665a      	str	r2, [r3, #100]	; 0x64
   8088c:	f44f 63c0 	mov.w	r3, #1536	; 0x600
   80890:	f2c4 030e 	movt	r3, #16398	; 0x400e
   80894:	f44f 7280 	mov.w	r2, #256	; 0x100
   80898:	611a      	str	r2, [r3, #16]
   8089a:	f24a 03bc 	movw	r3, #41148	; 0xa0bc
   8089e:	f2c0 0308 	movt	r3, #8
   808a2:	1d3c      	adds	r4, r7, #4
   808a4:	e893 0007 	ldmia.w	r3, {r0, r1, r2}
   808a8:	e884 0007 	stmia.w	r4, {r0, r1, r2}
   808ac:	1d3b      	adds	r3, r7, #4
   808ae:	f44f 6000 	mov.w	r0, #2048	; 0x800
   808b2:	f2c4 000e 	movt	r0, #16398	; 0x400e
   808b6:	4619      	mov	r1, r3
   808b8:	f001 ffe6 	bl	82888 <uart_init>
   808bc:	f24e 0310 	movw	r3, #57360	; 0xe010
   808c0:	f2ce 0300 	movt	r3, #57344	; 0xe000
   808c4:	f06f 427f 	mvn.w	r2, #4278190080	; 0xff000000
   808c8:	605a      	str	r2, [r3, #4]
   808ca:	f24e 0310 	movw	r3, #57360	; 0xe010
   808ce:	f2ce 0300 	movt	r3, #57344	; 0xe000
   808d2:	2200      	movs	r2, #0
   808d4:	609a      	str	r2, [r3, #8]
   808d6:	f24e 0310 	movw	r3, #57360	; 0xe010
   808da:	f2ce 0300 	movt	r3, #57344	; 0xe000
   808de:	2205      	movs	r2, #5
   808e0:	601a      	str	r2, [r3, #0]
   808e2:	bf00      	nop
   808e4:	f240 53e0 	movw	r3, #1504	; 0x5e0
   808e8:	f2c2 0307 	movt	r3, #8199	; 0x2007
   808ec:	2200      	movs	r2, #0
   808ee:	601a      	str	r2, [r3, #0]
   808f0:	f240 53dc 	movw	r3, #1500	; 0x5dc
   808f4:	f2c2 0307 	movt	r3, #8199	; 0x2007
   808f8:	2200      	movs	r2, #0
   808fa:	601a      	str	r2, [r3, #0]
   808fc:	3714      	adds	r7, #20
   808fe:	46bd      	mov	sp, r7
   80900:	bd90      	pop	{r4, r7, pc}
   80902:	bf00      	nop

00080904 <SystemInit>:
   80904:	b480      	push	{r7}
   80906:	af00      	add	r7, sp, #0
   80908:	f44f 6320 	mov.w	r3, #2560	; 0xa00
   8090c:	f2c4 030e 	movt	r3, #16398	; 0x400e
   80910:	f44f 6280 	mov.w	r2, #1024	; 0x400
   80914:	601a      	str	r2, [r3, #0]
   80916:	f44f 6340 	mov.w	r3, #3072	; 0xc00
   8091a:	f2c4 030e 	movt	r3, #16398	; 0x400e
   8091e:	f44f 6280 	mov.w	r2, #1024	; 0x400
   80922:	601a      	str	r2, [r3, #0]
   80924:	f44f 63c0 	mov.w	r3, #1536	; 0x600
   80928:	f2c4 030e 	movt	r3, #16398	; 0x400e
   8092c:	6a1b      	ldr	r3, [r3, #32]
   8092e:	f003 7380 	and.w	r3, r3, #16777216	; 0x1000000
   80932:	2b00      	cmp	r3, #0
   80934:	d112      	bne.n	8095c <SystemInit+0x58>
   80936:	f44f 63c0 	mov.w	r3, #1536	; 0x600
   8093a:	f2c4 030e 	movt	r3, #16398	; 0x400e
   8093e:	f640 0209 	movw	r2, #2057	; 0x809
   80942:	f2c0 0237 	movt	r2, #55	; 0x37
   80946:	621a      	str	r2, [r3, #32]
   80948:	bf00      	nop
   8094a:	f44f 63c0 	mov.w	r3, #1536	; 0x600
   8094e:	f2c4 030e 	movt	r3, #16398	; 0x400e
   80952:	6e9b      	ldr	r3, [r3, #104]	; 0x68
   80954:	f003 0301 	and.w	r3, r3, #1
   80958:	2b00      	cmp	r3, #0
   8095a:	d0f6      	beq.n	8094a <SystemInit+0x46>
   8095c:	f44f 63c0 	mov.w	r3, #1536	; 0x600
   80960:	f2c4 030e 	movt	r3, #16398	; 0x400e
   80964:	f640 0209 	movw	r2, #2057	; 0x809
   80968:	f2c0 1237 	movt	r2, #311	; 0x137
   8096c:	621a      	str	r2, [r3, #32]
   8096e:	bf00      	nop
   80970:	f44f 63c0 	mov.w	r3, #1536	; 0x600
   80974:	f2c4 030e 	movt	r3, #16398	; 0x400e
   80978:	6e9b      	ldr	r3, [r3, #104]	; 0x68
   8097a:	f403 3380 	and.w	r3, r3, #65536	; 0x10000
   8097e:	2b00      	cmp	r3, #0
   80980:	d0f6      	beq.n	80970 <SystemInit+0x6c>
   80982:	f44f 63c0 	mov.w	r3, #1536	; 0x600
   80986:	f2c4 030e 	movt	r3, #16398	; 0x400e
   8098a:	f44f 62c0 	mov.w	r2, #1536	; 0x600
   8098e:	f2c4 020e 	movt	r2, #16398	; 0x400e
   80992:	6b12      	ldr	r2, [r2, #48]	; 0x30
   80994:	f022 0203 	bic.w	r2, r2, #3
   80998:	f042 0201 	orr.w	r2, r2, #1
   8099c:	631a      	str	r2, [r3, #48]	; 0x30
   8099e:	bf00      	nop
   809a0:	f44f 63c0 	mov.w	r3, #1536	; 0x600
   809a4:	f2c4 030e 	movt	r3, #16398	; 0x400e
   809a8:	6e9b      	ldr	r3, [r3, #104]	; 0x68
   809aa:	f003 0308 	and.w	r3, r3, #8
   809ae:	2b00      	cmp	r3, #0
   809b0:	d0f6      	beq.n	809a0 <SystemInit+0x9c>
   809b2:	f44f 63c0 	mov.w	r3, #1536	; 0x600
   809b6:	f2c4 030e 	movt	r3, #16398	; 0x400e
   809ba:	f643 7201 	movw	r2, #16129	; 0x3f01
   809be:	f2c2 020d 	movt	r2, #8205	; 0x200d
   809c2:	629a      	str	r2, [r3, #40]	; 0x28
   809c4:	bf00      	nop
   809c6:	f44f 63c0 	mov.w	r3, #1536	; 0x600
   809ca:	f2c4 030e 	movt	r3, #16398	; 0x400e
   809ce:	6e9b      	ldr	r3, [r3, #104]	; 0x68
   809d0:	f003 0302 	and.w	r3, r3, #2
   809d4:	2b00      	cmp	r3, #0
   809d6:	d0f6      	beq.n	809c6 <SystemInit+0xc2>
   809d8:	f44f 63c0 	mov.w	r3, #1536	; 0x600
   809dc:	f2c4 030e 	movt	r3, #16398	; 0x400e
   809e0:	2211      	movs	r2, #17
   809e2:	631a      	str	r2, [r3, #48]	; 0x30
   809e4:	bf00      	nop
   809e6:	f44f 63c0 	mov.w	r3, #1536	; 0x600
   809ea:	f2c4 030e 	movt	r3, #16398	; 0x400e
   809ee:	6e9b      	ldr	r3, [r3, #104]	; 0x68
   809f0:	f003 0308 	and.w	r3, r3, #8
   809f4:	2b00      	cmp	r3, #0
   809f6:	d0f6      	beq.n	809e6 <SystemInit+0xe2>
   809f8:	f44f 63c0 	mov.w	r3, #1536	; 0x600
   809fc:	f2c4 030e 	movt	r3, #16398	; 0x400e
   80a00:	2212      	movs	r2, #18
   80a02:	631a      	str	r2, [r3, #48]	; 0x30
   80a04:	bf00      	nop
   80a06:	f44f 63c0 	mov.w	r3, #1536	; 0x600
   80a0a:	f2c4 030e 	movt	r3, #16398	; 0x400e
   80a0e:	6e9b      	ldr	r3, [r3, #104]	; 0x68
   80a10:	f003 0308 	and.w	r3, r3, #8
   80a14:	2b00      	cmp	r3, #0
   80a16:	d0f6      	beq.n	80a06 <SystemInit+0x102>
   80a18:	f240 0300 	movw	r3, #0
   80a1c:	f2c2 0307 	movt	r3, #8199	; 0x2007
   80a20:	f44f 423d 	mov.w	r2, #48384	; 0xbd00
   80a24:	f2c0 5201 	movt	r2, #1281	; 0x501
   80a28:	601a      	str	r2, [r3, #0]
   80a2a:	46bd      	mov	sp, r7
   80a2c:	f85d 7b04 	ldr.w	r7, [sp], #4
   80a30:	4770      	bx	lr
   80a32:	bf00      	nop

00080a34 <SystemCoreClockUpdate>:
   80a34:	b480      	push	{r7}
   80a36:	af00      	add	r7, sp, #0
   80a38:	f44f 63c0 	mov.w	r3, #1536	; 0x600
   80a3c:	f2c4 030e 	movt	r3, #16398	; 0x400e
   80a40:	6b1b      	ldr	r3, [r3, #48]	; 0x30
   80a42:	f003 0303 	and.w	r3, r3, #3
   80a46:	2b03      	cmp	r3, #3
   80a48:	f200 80ed 	bhi.w	80c26 <SystemCoreClockUpdate+0x1f2>
   80a4c:	a101      	add	r1, pc, #4	; (adr r1, 80a54 <SystemCoreClockUpdate+0x20>)
   80a4e:	f851 f023 	ldr.w	pc, [r1, r3, lsl #2]
   80a52:	bf00      	nop
   80a54:	00080a65 	.word	0x00080a65
   80a58:	00080a97 	.word	0x00080a97
   80a5c:	00080b23 	.word	0x00080b23
   80a60:	00080b23 	.word	0x00080b23
   80a64:	f641 2310 	movw	r3, #6672	; 0x1a10
   80a68:	f2c4 030e 	movt	r3, #16398	; 0x400e
   80a6c:	695b      	ldr	r3, [r3, #20]
   80a6e:	f003 0380 	and.w	r3, r3, #128	; 0x80
   80a72:	2b00      	cmp	r3, #0
   80a74:	d007      	beq.n	80a86 <SystemCoreClockUpdate+0x52>
   80a76:	f240 0300 	movw	r3, #0
   80a7a:	f2c2 0307 	movt	r3, #8199	; 0x2007
   80a7e:	f44f 4200 	mov.w	r2, #32768	; 0x8000
   80a82:	601a      	str	r2, [r3, #0]
   80a84:	e0cf      	b.n	80c26 <SystemCoreClockUpdate+0x1f2>
   80a86:	f240 0300 	movw	r3, #0
   80a8a:	f2c2 0307 	movt	r3, #8199	; 0x2007
   80a8e:	f44f 42fa 	mov.w	r2, #32000	; 0x7d00
   80a92:	601a      	str	r2, [r3, #0]
   80a94:	e0c7      	b.n	80c26 <SystemCoreClockUpdate+0x1f2>
   80a96:	f44f 63c0 	mov.w	r3, #1536	; 0x600
   80a9a:	f2c4 030e 	movt	r3, #16398	; 0x400e
   80a9e:	6a1b      	ldr	r3, [r3, #32]
   80aa0:	f003 7380 	and.w	r3, r3, #16777216	; 0x1000000
   80aa4:	2b00      	cmp	r3, #0
   80aa6:	d009      	beq.n	80abc <SystemCoreClockUpdate+0x88>
   80aa8:	f240 0300 	movw	r3, #0
   80aac:	f2c2 0307 	movt	r3, #8199	; 0x2007
   80ab0:	f44f 52d8 	mov.w	r2, #6912	; 0x1b00
   80ab4:	f2c0 02b7 	movt	r2, #183	; 0xb7
   80ab8:	601a      	str	r2, [r3, #0]
   80aba:	e031      	b.n	80b20 <SystemCoreClockUpdate+0xec>
   80abc:	f240 0300 	movw	r3, #0
   80ac0:	f2c2 0307 	movt	r3, #8199	; 0x2007
   80ac4:	f44f 6210 	mov.w	r2, #2304	; 0x900
   80ac8:	f2c0 023d 	movt	r2, #61	; 0x3d
   80acc:	601a      	str	r2, [r3, #0]
   80ace:	f44f 63c0 	mov.w	r3, #1536	; 0x600
   80ad2:	f2c4 030e 	movt	r3, #16398	; 0x400e
   80ad6:	6a1b      	ldr	r3, [r3, #32]
   80ad8:	f003 0370 	and.w	r3, r3, #112	; 0x70
   80adc:	2b10      	cmp	r3, #16
   80ade:	d004      	beq.n	80aea <SystemCoreClockUpdate+0xb6>
   80ae0:	2b20      	cmp	r3, #32
   80ae2:	d00e      	beq.n	80b02 <SystemCoreClockUpdate+0xce>
   80ae4:	2b00      	cmp	r3, #0
   80ae6:	d01a      	beq.n	80b1e <SystemCoreClockUpdate+0xea>
   80ae8:	e01a      	b.n	80b20 <SystemCoreClockUpdate+0xec>
   80aea:	f240 0300 	movw	r3, #0
   80aee:	f2c2 0307 	movt	r3, #8199	; 0x2007
   80af2:	681b      	ldr	r3, [r3, #0]
   80af4:	005a      	lsls	r2, r3, #1
   80af6:	f240 0300 	movw	r3, #0
   80afa:	f2c2 0307 	movt	r3, #8199	; 0x2007
   80afe:	601a      	str	r2, [r3, #0]
   80b00:	e00e      	b.n	80b20 <SystemCoreClockUpdate+0xec>
   80b02:	f240 0300 	movw	r3, #0
   80b06:	f2c2 0307 	movt	r3, #8199	; 0x2007
   80b0a:	681a      	ldr	r2, [r3, #0]
   80b0c:	4613      	mov	r3, r2
   80b0e:	005b      	lsls	r3, r3, #1
   80b10:	441a      	add	r2, r3
   80b12:	f240 0300 	movw	r3, #0
   80b16:	f2c2 0307 	movt	r3, #8199	; 0x2007
   80b1a:	601a      	str	r2, [r3, #0]
   80b1c:	e000      	b.n	80b20 <SystemCoreClockUpdate+0xec>
   80b1e:	bf00      	nop
   80b20:	e081      	b.n	80c26 <SystemCoreClockUpdate+0x1f2>
   80b22:	f44f 63c0 	mov.w	r3, #1536	; 0x600
   80b26:	f2c4 030e 	movt	r3, #16398	; 0x400e
   80b2a:	6a1b      	ldr	r3, [r3, #32]
   80b2c:	f003 7380 	and.w	r3, r3, #16777216	; 0x1000000
   80b30:	2b00      	cmp	r3, #0
   80b32:	d009      	beq.n	80b48 <SystemCoreClockUpdate+0x114>
   80b34:	f240 0300 	movw	r3, #0
   80b38:	f2c2 0307 	movt	r3, #8199	; 0x2007
   80b3c:	f44f 52d8 	mov.w	r2, #6912	; 0x1b00
   80b40:	f2c0 02b7 	movt	r2, #183	; 0xb7
   80b44:	601a      	str	r2, [r3, #0]
   80b46:	e031      	b.n	80bac <SystemCoreClockUpdate+0x178>
   80b48:	f240 0300 	movw	r3, #0
   80b4c:	f2c2 0307 	movt	r3, #8199	; 0x2007
   80b50:	f44f 6210 	mov.w	r2, #2304	; 0x900
   80b54:	f2c0 023d 	movt	r2, #61	; 0x3d
   80b58:	601a      	str	r2, [r3, #0]
   80b5a:	f44f 63c0 	mov.w	r3, #1536	; 0x600
   80b5e:	f2c4 030e 	movt	r3, #16398	; 0x400e
   80b62:	6a1b      	ldr	r3, [r3, #32]
   80b64:	f003 0370 	and.w	r3, r3, #112	; 0x70
   80b68:	2b10      	cmp	r3, #16
   80b6a:	d004      	beq.n	80b76 <SystemCoreClockUpdate+0x142>
   80b6c:	2b20      	cmp	r3, #32
   80b6e:	d00e      	beq.n	80b8e <SystemCoreClockUpdate+0x15a>
   80b70:	2b00      	cmp	r3, #0
   80b72:	d01a      	beq.n	80baa <SystemCoreClockUpdate+0x176>
   80b74:	e01a      	b.n	80bac <SystemCoreClockUpdate+0x178>
   80b76:	f240 0300 	movw	r3, #0
   80b7a:	f2c2 0307 	movt	r3, #8199	; 0x2007
   80b7e:	681b      	ldr	r3, [r3, #0]
   80b80:	005a      	lsls	r2, r3, #1
   80b82:	f240 0300 	movw	r3, #0
   80b86:	f2c2 0307 	movt	r3, #8199	; 0x2007
   80b8a:	601a      	str	r2, [r3, #0]
   80b8c:	e00e      	b.n	80bac <SystemCoreClockUpdate+0x178>
   80b8e:	f240 0300 	movw	r3, #0
   80b92:	f2c2 0307 	movt	r3, #8199	; 0x2007
   80b96:	681a      	ldr	r2, [r3, #0]
   80b98:	4613      	mov	r3, r2
   80b9a:	005b      	lsls	r3, r3, #1
   80b9c:	441a      	add	r2, r3
   80b9e:	f240 0300 	movw	r3, #0
   80ba2:	f2c2 0307 	movt	r3, #8199	; 0x2007
   80ba6:	601a      	str	r2, [r3, #0]
   80ba8:	e000      	b.n	80bac <SystemCoreClockUpdate+0x178>
   80baa:	bf00      	nop
   80bac:	f44f 63c0 	mov.w	r3, #1536	; 0x600
   80bb0:	f2c4 030e 	movt	r3, #16398	; 0x400e
   80bb4:	6b1b      	ldr	r3, [r3, #48]	; 0x30
   80bb6:	f003 0303 	and.w	r3, r3, #3
   80bba:	2b02      	cmp	r3, #2
   80bbc:	d129      	bne.n	80c12 <SystemCoreClockUpdate+0x1de>
   80bbe:	f44f 63c0 	mov.w	r3, #1536	; 0x600
   80bc2:	f2c4 030e 	movt	r3, #16398	; 0x400e
   80bc6:	6a9a      	ldr	r2, [r3, #40]	; 0x28
   80bc8:	2300      	movs	r3, #0
   80bca:	f2c0 73ff 	movt	r3, #2047	; 0x7ff
   80bce:	4013      	ands	r3, r2
   80bd0:	0c1b      	lsrs	r3, r3, #16
   80bd2:	1c5a      	adds	r2, r3, #1
   80bd4:	f240 0300 	movw	r3, #0
   80bd8:	f2c2 0307 	movt	r3, #8199	; 0x2007
   80bdc:	681b      	ldr	r3, [r3, #0]
   80bde:	fb03 f202 	mul.w	r2, r3, r2
   80be2:	f240 0300 	movw	r3, #0
   80be6:	f2c2 0307 	movt	r3, #8199	; 0x2007
   80bea:	601a      	str	r2, [r3, #0]
   80bec:	f240 0300 	movw	r3, #0
   80bf0:	f2c2 0307 	movt	r3, #8199	; 0x2007
   80bf4:	681a      	ldr	r2, [r3, #0]
   80bf6:	f44f 63c0 	mov.w	r3, #1536	; 0x600
   80bfa:	f2c4 030e 	movt	r3, #16398	; 0x400e
   80bfe:	6a9b      	ldr	r3, [r3, #40]	; 0x28
   80c00:	b2db      	uxtb	r3, r3
   80c02:	fbb2 f2f3 	udiv	r2, r2, r3
   80c06:	f240 0300 	movw	r3, #0
   80c0a:	f2c2 0307 	movt	r3, #8199	; 0x2007
   80c0e:	601a      	str	r2, [r3, #0]
   80c10:	e008      	b.n	80c24 <SystemCoreClockUpdate+0x1f0>
   80c12:	f240 0300 	movw	r3, #0
   80c16:	f2c2 0307 	movt	r3, #8199	; 0x2007
   80c1a:	f44f 52e0 	mov.w	r2, #7168	; 0x1c00
   80c1e:	f6c0 624e 	movt	r2, #3662	; 0xe4e
   80c22:	601a      	str	r2, [r3, #0]
   80c24:	bf00      	nop
   80c26:	f44f 63c0 	mov.w	r3, #1536	; 0x600
   80c2a:	f2c4 030e 	movt	r3, #16398	; 0x400e
   80c2e:	6b1b      	ldr	r3, [r3, #48]	; 0x30
   80c30:	f003 0370 	and.w	r3, r3, #112	; 0x70
   80c34:	2b70      	cmp	r3, #112	; 0x70
   80c36:	d111      	bne.n	80c5c <SystemCoreClockUpdate+0x228>
   80c38:	f240 0300 	movw	r3, #0
   80c3c:	f2c2 0307 	movt	r3, #8199	; 0x2007
   80c40:	681a      	ldr	r2, [r3, #0]
   80c42:	f64a 23ab 	movw	r3, #43691	; 0xaaab
   80c46:	f6ca 23aa 	movt	r3, #43690	; 0xaaaa
   80c4a:	fba3 1302 	umull	r1, r3, r3, r2
   80c4e:	085a      	lsrs	r2, r3, #1
   80c50:	f240 0300 	movw	r3, #0
   80c54:	f2c2 0307 	movt	r3, #8199	; 0x2007
   80c58:	601a      	str	r2, [r3, #0]
   80c5a:	e012      	b.n	80c82 <SystemCoreClockUpdate+0x24e>
   80c5c:	f240 0300 	movw	r3, #0
   80c60:	f2c2 0307 	movt	r3, #8199	; 0x2007
   80c64:	681a      	ldr	r2, [r3, #0]
   80c66:	f44f 63c0 	mov.w	r3, #1536	; 0x600
   80c6a:	f2c4 030e 	movt	r3, #16398	; 0x400e
   80c6e:	6b1b      	ldr	r3, [r3, #48]	; 0x30
   80c70:	f003 0370 	and.w	r3, r3, #112	; 0x70
   80c74:	091b      	lsrs	r3, r3, #4
   80c76:	40da      	lsrs	r2, r3
   80c78:	f240 0300 	movw	r3, #0
   80c7c:	f2c2 0307 	movt	r3, #8199	; 0x2007
   80c80:	601a      	str	r2, [r3, #0]
   80c82:	46bd      	mov	sp, r7
   80c84:	f85d 7b04 	ldr.w	r7, [sp], #4
   80c88:	4770      	bx	lr
   80c8a:	bf00      	nop

00080c8c <system_init_flash>:
   80c8c:	b480      	push	{r7}
   80c8e:	b083      	sub	sp, #12
   80c90:	af00      	add	r7, sp, #0
   80c92:	6078      	str	r0, [r7, #4]
   80c94:	687a      	ldr	r2, [r7, #4]
   80c96:	f64e 23bf 	movw	r3, #60095	; 0xeabf
   80c9a:	f2c0 1321 	movt	r3, #289	; 0x121
   80c9e:	429a      	cmp	r2, r3
   80ca0:	d80c      	bhi.n	80cbc <system_init_flash+0x30>
   80ca2:	f44f 6320 	mov.w	r3, #2560	; 0xa00
   80ca6:	f2c4 030e 	movt	r3, #16398	; 0x400e
   80caa:	2200      	movs	r2, #0
   80cac:	601a      	str	r2, [r3, #0]
   80cae:	f44f 6340 	mov.w	r3, #3072	; 0xc00
   80cb2:	f2c4 030e 	movt	r3, #16398	; 0x400e
   80cb6:	2200      	movs	r2, #0
   80cb8:	601a      	str	r2, [r3, #0]
   80cba:	e065      	b.n	80d88 <system_init_flash+0xfc>
   80cbc:	687a      	ldr	r2, [r7, #4]
   80cbe:	f24f 037f 	movw	r3, #61567	; 0xf07f
   80cc2:	f2c0 23fa 	movt	r3, #762	; 0x2fa
   80cc6:	429a      	cmp	r2, r3
   80cc8:	d80e      	bhi.n	80ce8 <system_init_flash+0x5c>
   80cca:	f44f 6320 	mov.w	r3, #2560	; 0xa00
   80cce:	f2c4 030e 	movt	r3, #16398	; 0x400e
   80cd2:	f44f 7280 	mov.w	r2, #256	; 0x100
   80cd6:	601a      	str	r2, [r3, #0]
   80cd8:	f44f 6340 	mov.w	r3, #3072	; 0xc00
   80cdc:	f2c4 030e 	movt	r3, #16398	; 0x400e
   80ce0:	f44f 7280 	mov.w	r2, #256	; 0x100
   80ce4:	601a      	str	r2, [r3, #0]
   80ce6:	e04f      	b.n	80d88 <system_init_flash+0xfc>
   80ce8:	687a      	ldr	r2, [r7, #4]
   80cea:	f648 73ff 	movw	r3, #36863	; 0x8fff
   80cee:	f2c0 33d0 	movt	r3, #976	; 0x3d0
   80cf2:	429a      	cmp	r2, r3
   80cf4:	d80e      	bhi.n	80d14 <system_init_flash+0x88>
   80cf6:	f44f 6320 	mov.w	r3, #2560	; 0xa00
   80cfa:	f2c4 030e 	movt	r3, #16398	; 0x400e
   80cfe:	f44f 7200 	mov.w	r2, #512	; 0x200
   80d02:	601a      	str	r2, [r3, #0]
   80d04:	f44f 6340 	mov.w	r3, #3072	; 0xc00
   80d08:	f2c4 030e 	movt	r3, #16398	; 0x400e
   80d0c:	f44f 7200 	mov.w	r2, #512	; 0x200
   80d10:	601a      	str	r2, [r3, #0]
   80d12:	e039      	b.n	80d88 <system_init_flash+0xfc>
   80d14:	687a      	ldr	r2, [r7, #4]
   80d16:	f24b 33ff 	movw	r3, #46079	; 0xb3ff
   80d1a:	f2c0 43c4 	movt	r3, #1220	; 0x4c4
   80d1e:	429a      	cmp	r2, r3
   80d20:	d80e      	bhi.n	80d40 <system_init_flash+0xb4>
   80d22:	f44f 6320 	mov.w	r3, #2560	; 0xa00
   80d26:	f2c4 030e 	movt	r3, #16398	; 0x400e
   80d2a:	f44f 7240 	mov.w	r2, #768	; 0x300
   80d2e:	601a      	str	r2, [r3, #0]
   80d30:	f44f 6340 	mov.w	r3, #3072	; 0xc00
   80d34:	f2c4 030e 	movt	r3, #16398	; 0x400e
   80d38:	f44f 7240 	mov.w	r2, #768	; 0x300
   80d3c:	601a      	str	r2, [r3, #0]
   80d3e:	e023      	b.n	80d88 <system_init_flash+0xfc>
   80d40:	687a      	ldr	r2, [r7, #4]
   80d42:	f644 237f 	movw	r3, #19071	; 0x4a7f
   80d46:	f2c0 535d 	movt	r3, #1373	; 0x55d
   80d4a:	429a      	cmp	r2, r3
   80d4c:	d80e      	bhi.n	80d6c <system_init_flash+0xe0>
   80d4e:	f44f 6320 	mov.w	r3, #2560	; 0xa00
   80d52:	f2c4 030e 	movt	r3, #16398	; 0x400e
   80d56:	f44f 6280 	mov.w	r2, #1024	; 0x400
   80d5a:	601a      	str	r2, [r3, #0]
   80d5c:	f44f 6340 	mov.w	r3, #3072	; 0xc00
   80d60:	f2c4 030e 	movt	r3, #16398	; 0x400e
   80d64:	f44f 6280 	mov.w	r2, #1024	; 0x400
   80d68:	601a      	str	r2, [r3, #0]
   80d6a:	e00d      	b.n	80d88 <system_init_flash+0xfc>
   80d6c:	f44f 6320 	mov.w	r3, #2560	; 0xa00
   80d70:	f2c4 030e 	movt	r3, #16398	; 0x400e
   80d74:	f44f 62a0 	mov.w	r2, #1280	; 0x500
   80d78:	601a      	str	r2, [r3, #0]
   80d7a:	f44f 6340 	mov.w	r3, #3072	; 0xc00
   80d7e:	f2c4 030e 	movt	r3, #16398	; 0x400e
   80d82:	f44f 62a0 	mov.w	r2, #1280	; 0x500
   80d86:	601a      	str	r2, [r3, #0]
   80d88:	370c      	adds	r7, #12
   80d8a:	46bd      	mov	sp, r7
   80d8c:	f85d 7b04 	ldr.w	r7, [sp], #4
   80d90:	4770      	bx	lr
   80d92:	bf00      	nop

00080d94 <pio_pull_up>:
   80d94:	b480      	push	{r7}
   80d96:	b085      	sub	sp, #20
   80d98:	af00      	add	r7, sp, #0
   80d9a:	60f8      	str	r0, [r7, #12]
   80d9c:	60b9      	str	r1, [r7, #8]
   80d9e:	607a      	str	r2, [r7, #4]
   80da0:	687b      	ldr	r3, [r7, #4]
   80da2:	2b00      	cmp	r3, #0
   80da4:	d003      	beq.n	80dae <pio_pull_up+0x1a>
   80da6:	68fb      	ldr	r3, [r7, #12]
   80da8:	68ba      	ldr	r2, [r7, #8]
   80daa:	665a      	str	r2, [r3, #100]	; 0x64
   80dac:	e002      	b.n	80db4 <pio_pull_up+0x20>
   80dae:	68fb      	ldr	r3, [r7, #12]
   80db0:	68ba      	ldr	r2, [r7, #8]
   80db2:	661a      	str	r2, [r3, #96]	; 0x60
   80db4:	3714      	adds	r7, #20
   80db6:	46bd      	mov	sp, r7
   80db8:	f85d 7b04 	ldr.w	r7, [sp], #4
   80dbc:	4770      	bx	lr
   80dbe:	bf00      	nop

00080dc0 <pio_set_debounce_filter>:
   80dc0:	b480      	push	{r7}
   80dc2:	b085      	sub	sp, #20
   80dc4:	af00      	add	r7, sp, #0
   80dc6:	60f8      	str	r0, [r7, #12]
   80dc8:	60b9      	str	r1, [r7, #8]
   80dca:	607a      	str	r2, [r7, #4]
   80dcc:	68fb      	ldr	r3, [r7, #12]
   80dce:	68ba      	ldr	r2, [r7, #8]
   80dd0:	f8c3 2084 	str.w	r2, [r3, #132]	; 0x84
   80dd4:	687b      	ldr	r3, [r7, #4]
   80dd6:	005b      	lsls	r3, r3, #1
   80dd8:	f44f 4200 	mov.w	r2, #32768	; 0x8000
   80ddc:	fbb2 f3f3 	udiv	r3, r2, r3
   80de0:	3b01      	subs	r3, #1
   80de2:	f3c3 020d 	ubfx	r2, r3, #0, #14
   80de6:	68fb      	ldr	r3, [r7, #12]
   80de8:	f8c3 208c 	str.w	r2, [r3, #140]	; 0x8c
   80dec:	3714      	adds	r7, #20
   80dee:	46bd      	mov	sp, r7
   80df0:	f85d 7b04 	ldr.w	r7, [sp], #4
   80df4:	4770      	bx	lr
   80df6:	bf00      	nop

00080df8 <pio_set>:
   80df8:	b480      	push	{r7}
   80dfa:	b083      	sub	sp, #12
   80dfc:	af00      	add	r7, sp, #0
   80dfe:	6078      	str	r0, [r7, #4]
   80e00:	6039      	str	r1, [r7, #0]
   80e02:	687b      	ldr	r3, [r7, #4]
   80e04:	683a      	ldr	r2, [r7, #0]
   80e06:	631a      	str	r2, [r3, #48]	; 0x30
   80e08:	370c      	adds	r7, #12
   80e0a:	46bd      	mov	sp, r7
   80e0c:	f85d 7b04 	ldr.w	r7, [sp], #4
   80e10:	4770      	bx	lr
   80e12:	bf00      	nop

00080e14 <pio_clear>:
   80e14:	b480      	push	{r7}
   80e16:	b083      	sub	sp, #12
   80e18:	af00      	add	r7, sp, #0
   80e1a:	6078      	str	r0, [r7, #4]
   80e1c:	6039      	str	r1, [r7, #0]
   80e1e:	687b      	ldr	r3, [r7, #4]
   80e20:	683a      	ldr	r2, [r7, #0]
   80e22:	635a      	str	r2, [r3, #52]	; 0x34
   80e24:	370c      	adds	r7, #12
   80e26:	46bd      	mov	sp, r7
   80e28:	f85d 7b04 	ldr.w	r7, [sp], #4
   80e2c:	4770      	bx	lr
   80e2e:	bf00      	nop

00080e30 <pio_get>:
   80e30:	b480      	push	{r7}
   80e32:	b087      	sub	sp, #28
   80e34:	af00      	add	r7, sp, #0
   80e36:	60f8      	str	r0, [r7, #12]
   80e38:	60b9      	str	r1, [r7, #8]
   80e3a:	607a      	str	r2, [r7, #4]
   80e3c:	68bb      	ldr	r3, [r7, #8]
   80e3e:	f1b3 5f40 	cmp.w	r3, #805306368	; 0x30000000
   80e42:	d003      	beq.n	80e4c <pio_get+0x1c>
   80e44:	68bb      	ldr	r3, [r7, #8]
   80e46:	f1b3 5f60 	cmp.w	r3, #939524096	; 0x38000000
   80e4a:	d103      	bne.n	80e54 <pio_get+0x24>
   80e4c:	68fb      	ldr	r3, [r7, #12]
   80e4e:	6b9b      	ldr	r3, [r3, #56]	; 0x38
   80e50:	617b      	str	r3, [r7, #20]
   80e52:	e002      	b.n	80e5a <pio_get+0x2a>
   80e54:	68fb      	ldr	r3, [r7, #12]
   80e56:	6bdb      	ldr	r3, [r3, #60]	; 0x3c
   80e58:	617b      	str	r3, [r7, #20]
   80e5a:	697a      	ldr	r2, [r7, #20]
   80e5c:	687b      	ldr	r3, [r7, #4]
   80e5e:	4013      	ands	r3, r2
   80e60:	2b00      	cmp	r3, #0
   80e62:	d101      	bne.n	80e68 <pio_get+0x38>
   80e64:	2300      	movs	r3, #0
   80e66:	e000      	b.n	80e6a <pio_get+0x3a>
   80e68:	2301      	movs	r3, #1
   80e6a:	4618      	mov	r0, r3
   80e6c:	371c      	adds	r7, #28
   80e6e:	46bd      	mov	sp, r7
   80e70:	f85d 7b04 	ldr.w	r7, [sp], #4
   80e74:	4770      	bx	lr
   80e76:	bf00      	nop

00080e78 <pio_set_peripheral>:
   80e78:	b480      	push	{r7}
   80e7a:	b087      	sub	sp, #28
   80e7c:	af00      	add	r7, sp, #0
   80e7e:	60f8      	str	r0, [r7, #12]
   80e80:	60b9      	str	r1, [r7, #8]
   80e82:	607a      	str	r2, [r7, #4]
   80e84:	68fb      	ldr	r3, [r7, #12]
   80e86:	687a      	ldr	r2, [r7, #4]
   80e88:	645a      	str	r2, [r3, #68]	; 0x44
   80e8a:	68bb      	ldr	r3, [r7, #8]
   80e8c:	f1b3 5f80 	cmp.w	r3, #268435456	; 0x10000000
   80e90:	d01f      	beq.n	80ed2 <pio_set_peripheral+0x5a>
   80e92:	f1b3 5f80 	cmp.w	r3, #268435456	; 0x10000000
   80e96:	d805      	bhi.n	80ea4 <pio_set_peripheral+0x2c>
   80e98:	2b00      	cmp	r3, #0
   80e9a:	d027      	beq.n	80eec <pio_set_peripheral+0x74>
   80e9c:	f1b3 6f00 	cmp.w	r3, #134217728	; 0x8000000
   80ea0:	d00a      	beq.n	80eb8 <pio_set_peripheral+0x40>
   80ea2:	e01f      	b.n	80ee4 <pio_set_peripheral+0x6c>
   80ea4:	f1b3 5f40 	cmp.w	r3, #805306368	; 0x30000000
   80ea8:	d020      	beq.n	80eec <pio_set_peripheral+0x74>
   80eaa:	f1b3 5f60 	cmp.w	r3, #939524096	; 0x38000000
   80eae:	d01d      	beq.n	80eec <pio_set_peripheral+0x74>
   80eb0:	f1b3 5f20 	cmp.w	r3, #671088640	; 0x28000000
   80eb4:	d01a      	beq.n	80eec <pio_set_peripheral+0x74>
   80eb6:	e015      	b.n	80ee4 <pio_set_peripheral+0x6c>
   80eb8:	68fb      	ldr	r3, [r7, #12]
   80eba:	6f1b      	ldr	r3, [r3, #112]	; 0x70
   80ebc:	617b      	str	r3, [r7, #20]
   80ebe:	68fb      	ldr	r3, [r7, #12]
   80ec0:	6f1a      	ldr	r2, [r3, #112]	; 0x70
   80ec2:	687b      	ldr	r3, [r7, #4]
   80ec4:	43d9      	mvns	r1, r3
   80ec6:	697b      	ldr	r3, [r7, #20]
   80ec8:	400b      	ands	r3, r1
   80eca:	401a      	ands	r2, r3
   80ecc:	68fb      	ldr	r3, [r7, #12]
   80ece:	671a      	str	r2, [r3, #112]	; 0x70
   80ed0:	e008      	b.n	80ee4 <pio_set_peripheral+0x6c>
   80ed2:	68fb      	ldr	r3, [r7, #12]
   80ed4:	6f1b      	ldr	r3, [r3, #112]	; 0x70
   80ed6:	617b      	str	r3, [r7, #20]
   80ed8:	687a      	ldr	r2, [r7, #4]
   80eda:	697b      	ldr	r3, [r7, #20]
   80edc:	431a      	orrs	r2, r3
   80ede:	68fb      	ldr	r3, [r7, #12]
   80ee0:	671a      	str	r2, [r3, #112]	; 0x70
   80ee2:	bf00      	nop
   80ee4:	68fb      	ldr	r3, [r7, #12]
   80ee6:	687a      	ldr	r2, [r7, #4]
   80ee8:	605a      	str	r2, [r3, #4]
   80eea:	e000      	b.n	80eee <pio_set_peripheral+0x76>
   80eec:	bf00      	nop
   80eee:	371c      	adds	r7, #28
   80ef0:	46bd      	mov	sp, r7
   80ef2:	f85d 7b04 	ldr.w	r7, [sp], #4
   80ef6:	4770      	bx	lr

00080ef8 <pio_set_input>:
   80ef8:	b580      	push	{r7, lr}
   80efa:	b084      	sub	sp, #16
   80efc:	af00      	add	r7, sp, #0
   80efe:	60f8      	str	r0, [r7, #12]
   80f00:	60b9      	str	r1, [r7, #8]
   80f02:	607a      	str	r2, [r7, #4]
   80f04:	68f8      	ldr	r0, [r7, #12]
   80f06:	68b9      	ldr	r1, [r7, #8]
   80f08:	f000 f968 	bl	811dc <pio_disable_interrupt>
   80f0c:	687b      	ldr	r3, [r7, #4]
   80f0e:	f003 0301 	and.w	r3, r3, #1
   80f12:	68f8      	ldr	r0, [r7, #12]
   80f14:	68b9      	ldr	r1, [r7, #8]
   80f16:	461a      	mov	r2, r3
   80f18:	f7ff ff3c 	bl	80d94 <pio_pull_up>
   80f1c:	687b      	ldr	r3, [r7, #4]
   80f1e:	f003 030a 	and.w	r3, r3, #10
   80f22:	2b00      	cmp	r3, #0
   80f24:	d003      	beq.n	80f2e <pio_set_input+0x36>
   80f26:	68fb      	ldr	r3, [r7, #12]
   80f28:	68ba      	ldr	r2, [r7, #8]
   80f2a:	621a      	str	r2, [r3, #32]
   80f2c:	e002      	b.n	80f34 <pio_set_input+0x3c>
   80f2e:	68fb      	ldr	r3, [r7, #12]
   80f30:	68ba      	ldr	r2, [r7, #8]
   80f32:	625a      	str	r2, [r3, #36]	; 0x24
   80f34:	687b      	ldr	r3, [r7, #4]
   80f36:	f003 0302 	and.w	r3, r3, #2
   80f3a:	2b00      	cmp	r3, #0
   80f3c:	d004      	beq.n	80f48 <pio_set_input+0x50>
   80f3e:	68fb      	ldr	r3, [r7, #12]
   80f40:	68ba      	ldr	r2, [r7, #8]
   80f42:	f8c3 2080 	str.w	r2, [r3, #128]	; 0x80
   80f46:	e008      	b.n	80f5a <pio_set_input+0x62>
   80f48:	687b      	ldr	r3, [r7, #4]
   80f4a:	f003 0308 	and.w	r3, r3, #8
   80f4e:	2b00      	cmp	r3, #0
   80f50:	d003      	beq.n	80f5a <pio_set_input+0x62>
   80f52:	68fb      	ldr	r3, [r7, #12]
   80f54:	68ba      	ldr	r2, [r7, #8]
   80f56:	f8c3 2084 	str.w	r2, [r3, #132]	; 0x84
   80f5a:	68fb      	ldr	r3, [r7, #12]
   80f5c:	68ba      	ldr	r2, [r7, #8]
   80f5e:	615a      	str	r2, [r3, #20]
   80f60:	68fb      	ldr	r3, [r7, #12]
   80f62:	68ba      	ldr	r2, [r7, #8]
   80f64:	601a      	str	r2, [r3, #0]
   80f66:	3710      	adds	r7, #16
   80f68:	46bd      	mov	sp, r7
   80f6a:	bd80      	pop	{r7, pc}

00080f6c <pio_set_output>:
   80f6c:	b580      	push	{r7, lr}
   80f6e:	b084      	sub	sp, #16
   80f70:	af00      	add	r7, sp, #0
   80f72:	60f8      	str	r0, [r7, #12]
   80f74:	60b9      	str	r1, [r7, #8]
   80f76:	607a      	str	r2, [r7, #4]
   80f78:	603b      	str	r3, [r7, #0]
   80f7a:	68f8      	ldr	r0, [r7, #12]
   80f7c:	68b9      	ldr	r1, [r7, #8]
   80f7e:	f000 f92d 	bl	811dc <pio_disable_interrupt>
   80f82:	68f8      	ldr	r0, [r7, #12]
   80f84:	68b9      	ldr	r1, [r7, #8]
   80f86:	69ba      	ldr	r2, [r7, #24]
   80f88:	f7ff ff04 	bl	80d94 <pio_pull_up>
   80f8c:	683b      	ldr	r3, [r7, #0]
   80f8e:	2b00      	cmp	r3, #0
   80f90:	d003      	beq.n	80f9a <pio_set_output+0x2e>
   80f92:	68fb      	ldr	r3, [r7, #12]
   80f94:	68ba      	ldr	r2, [r7, #8]
   80f96:	651a      	str	r2, [r3, #80]	; 0x50
   80f98:	e002      	b.n	80fa0 <pio_set_output+0x34>
   80f9a:	68fb      	ldr	r3, [r7, #12]
   80f9c:	68ba      	ldr	r2, [r7, #8]
   80f9e:	655a      	str	r2, [r3, #84]	; 0x54
   80fa0:	687b      	ldr	r3, [r7, #4]
   80fa2:	2b00      	cmp	r3, #0
   80fa4:	d003      	beq.n	80fae <pio_set_output+0x42>
   80fa6:	68fb      	ldr	r3, [r7, #12]
   80fa8:	68ba      	ldr	r2, [r7, #8]
   80faa:	631a      	str	r2, [r3, #48]	; 0x30
   80fac:	e002      	b.n	80fb4 <pio_set_output+0x48>
   80fae:	68fb      	ldr	r3, [r7, #12]
   80fb0:	68ba      	ldr	r2, [r7, #8]
   80fb2:	635a      	str	r2, [r3, #52]	; 0x34
   80fb4:	68fb      	ldr	r3, [r7, #12]
   80fb6:	68ba      	ldr	r2, [r7, #8]
   80fb8:	611a      	str	r2, [r3, #16]
   80fba:	68fb      	ldr	r3, [r7, #12]
   80fbc:	68ba      	ldr	r2, [r7, #8]
   80fbe:	601a      	str	r2, [r3, #0]
   80fc0:	3710      	adds	r7, #16
   80fc2:	46bd      	mov	sp, r7
   80fc4:	bd80      	pop	{r7, pc}
   80fc6:	bf00      	nop

00080fc8 <pio_configure>:
   80fc8:	b580      	push	{r7, lr}
   80fca:	b086      	sub	sp, #24
   80fcc:	af02      	add	r7, sp, #8
   80fce:	60f8      	str	r0, [r7, #12]
   80fd0:	60b9      	str	r1, [r7, #8]
   80fd2:	607a      	str	r2, [r7, #4]
   80fd4:	603b      	str	r3, [r7, #0]
   80fd6:	68bb      	ldr	r3, [r7, #8]
   80fd8:	f1b3 5f20 	cmp.w	r3, #671088640	; 0x28000000
   80fdc:	d01e      	beq.n	8101c <pio_configure+0x54>
   80fde:	f1b3 5f20 	cmp.w	r3, #671088640	; 0x28000000
   80fe2:	d806      	bhi.n	80ff2 <pio_configure+0x2a>
   80fe4:	f1b3 6f00 	cmp.w	r3, #134217728	; 0x8000000
   80fe8:	d00a      	beq.n	81000 <pio_configure+0x38>
   80fea:	f1b3 5f80 	cmp.w	r3, #268435456	; 0x10000000
   80fee:	d007      	beq.n	81000 <pio_configure+0x38>
   80ff0:	e038      	b.n	81064 <pio_configure+0x9c>
   80ff2:	f1b3 5f40 	cmp.w	r3, #805306368	; 0x30000000
   80ff6:	d017      	beq.n	81028 <pio_configure+0x60>
   80ff8:	f1b3 5f60 	cmp.w	r3, #939524096	; 0x38000000
   80ffc:	d014      	beq.n	81028 <pio_configure+0x60>
   80ffe:	e031      	b.n	81064 <pio_configure+0x9c>
   81000:	68f8      	ldr	r0, [r7, #12]
   81002:	68b9      	ldr	r1, [r7, #8]
   81004:	687a      	ldr	r2, [r7, #4]
   81006:	f7ff ff37 	bl	80e78 <pio_set_peripheral>
   8100a:	683b      	ldr	r3, [r7, #0]
   8100c:	f003 0301 	and.w	r3, r3, #1
   81010:	68f8      	ldr	r0, [r7, #12]
   81012:	6879      	ldr	r1, [r7, #4]
   81014:	461a      	mov	r2, r3
   81016:	f7ff febd 	bl	80d94 <pio_pull_up>
   8101a:	e025      	b.n	81068 <pio_configure+0xa0>
   8101c:	68f8      	ldr	r0, [r7, #12]
   8101e:	6879      	ldr	r1, [r7, #4]
   81020:	683a      	ldr	r2, [r7, #0]
   81022:	f7ff ff69 	bl	80ef8 <pio_set_input>
   81026:	e01f      	b.n	81068 <pio_configure+0xa0>
   81028:	68bb      	ldr	r3, [r7, #8]
   8102a:	f1b3 5f60 	cmp.w	r3, #939524096	; 0x38000000
   8102e:	bf14      	ite	ne
   81030:	2300      	movne	r3, #0
   81032:	2301      	moveq	r3, #1
   81034:	b2db      	uxtb	r3, r3
   81036:	461a      	mov	r2, r3
   81038:	683b      	ldr	r3, [r7, #0]
   8103a:	f003 0304 	and.w	r3, r3, #4
   8103e:	2b00      	cmp	r3, #0
   81040:	bf0c      	ite	eq
   81042:	2300      	moveq	r3, #0
   81044:	2301      	movne	r3, #1
   81046:	b2db      	uxtb	r3, r3
   81048:	6839      	ldr	r1, [r7, #0]
   8104a:	f001 0101 	and.w	r1, r1, #1
   8104e:	2900      	cmp	r1, #0
   81050:	bf0c      	ite	eq
   81052:	2100      	moveq	r1, #0
   81054:	2101      	movne	r1, #1
   81056:	b2c9      	uxtb	r1, r1
   81058:	9100      	str	r1, [sp, #0]
   8105a:	68f8      	ldr	r0, [r7, #12]
   8105c:	6879      	ldr	r1, [r7, #4]
   8105e:	f7ff ff85 	bl	80f6c <pio_set_output>
   81062:	e001      	b.n	81068 <pio_configure+0xa0>
   81064:	2300      	movs	r3, #0
   81066:	e000      	b.n	8106a <pio_configure+0xa2>
   81068:	2301      	movs	r3, #1
   8106a:	4618      	mov	r0, r3
   8106c:	3710      	adds	r7, #16
   8106e:	46bd      	mov	sp, r7
   81070:	bd80      	pop	{r7, pc}
   81072:	bf00      	nop

00081074 <pio_get_output_data_status>:
   81074:	b480      	push	{r7}
   81076:	b083      	sub	sp, #12
   81078:	af00      	add	r7, sp, #0
   8107a:	6078      	str	r0, [r7, #4]
   8107c:	6039      	str	r1, [r7, #0]
   8107e:	687b      	ldr	r3, [r7, #4]
   81080:	6b9a      	ldr	r2, [r3, #56]	; 0x38
   81082:	683b      	ldr	r3, [r7, #0]
   81084:	4013      	ands	r3, r2
   81086:	2b00      	cmp	r3, #0
   81088:	d101      	bne.n	8108e <pio_get_output_data_status+0x1a>
   8108a:	2300      	movs	r3, #0
   8108c:	e000      	b.n	81090 <pio_get_output_data_status+0x1c>
   8108e:	2301      	movs	r3, #1
   81090:	4618      	mov	r0, r3
   81092:	370c      	adds	r7, #12
   81094:	46bd      	mov	sp, r7
   81096:	f85d 7b04 	ldr.w	r7, [sp], #4
   8109a:	4770      	bx	lr

0008109c <pio_set_multi_driver>:
   8109c:	b480      	push	{r7}
   8109e:	b085      	sub	sp, #20
   810a0:	af00      	add	r7, sp, #0
   810a2:	60f8      	str	r0, [r7, #12]
   810a4:	60b9      	str	r1, [r7, #8]
   810a6:	607a      	str	r2, [r7, #4]
   810a8:	687b      	ldr	r3, [r7, #4]
   810aa:	2b00      	cmp	r3, #0
   810ac:	d003      	beq.n	810b6 <pio_set_multi_driver+0x1a>
   810ae:	68fb      	ldr	r3, [r7, #12]
   810b0:	68ba      	ldr	r2, [r7, #8]
   810b2:	651a      	str	r2, [r3, #80]	; 0x50
   810b4:	e002      	b.n	810bc <pio_set_multi_driver+0x20>
   810b6:	68fb      	ldr	r3, [r7, #12]
   810b8:	68ba      	ldr	r2, [r7, #8]
   810ba:	655a      	str	r2, [r3, #84]	; 0x54
   810bc:	3714      	adds	r7, #20
   810be:	46bd      	mov	sp, r7
   810c0:	f85d 7b04 	ldr.w	r7, [sp], #4
   810c4:	4770      	bx	lr
   810c6:	bf00      	nop

000810c8 <pio_get_multi_driver_status>:
   810c8:	b480      	push	{r7}
   810ca:	b083      	sub	sp, #12
   810cc:	af00      	add	r7, sp, #0
   810ce:	6078      	str	r0, [r7, #4]
   810d0:	687b      	ldr	r3, [r7, #4]
   810d2:	6d9b      	ldr	r3, [r3, #88]	; 0x58
   810d4:	4618      	mov	r0, r3
   810d6:	370c      	adds	r7, #12
   810d8:	46bd      	mov	sp, r7
   810da:	f85d 7b04 	ldr.w	r7, [sp], #4
   810de:	4770      	bx	lr

000810e0 <pio_enable_output_write>:
   810e0:	b480      	push	{r7}
   810e2:	b083      	sub	sp, #12
   810e4:	af00      	add	r7, sp, #0
   810e6:	6078      	str	r0, [r7, #4]
   810e8:	6039      	str	r1, [r7, #0]
   810ea:	687b      	ldr	r3, [r7, #4]
   810ec:	683a      	ldr	r2, [r7, #0]
   810ee:	f8c3 20a0 	str.w	r2, [r3, #160]	; 0xa0
   810f2:	370c      	adds	r7, #12
   810f4:	46bd      	mov	sp, r7
   810f6:	f85d 7b04 	ldr.w	r7, [sp], #4
   810fa:	4770      	bx	lr

000810fc <pio_disable_output_write>:
   810fc:	b480      	push	{r7}
   810fe:	b083      	sub	sp, #12
   81100:	af00      	add	r7, sp, #0
   81102:	6078      	str	r0, [r7, #4]
   81104:	6039      	str	r1, [r7, #0]
   81106:	687b      	ldr	r3, [r7, #4]
   81108:	683a      	ldr	r2, [r7, #0]
   8110a:	f8c3 20a4 	str.w	r2, [r3, #164]	; 0xa4
   8110e:	370c      	adds	r7, #12
   81110:	46bd      	mov	sp, r7
   81112:	f85d 7b04 	ldr.w	r7, [sp], #4
   81116:	4770      	bx	lr

00081118 <pio_get_output_write_status>:
   81118:	b480      	push	{r7}
   8111a:	b083      	sub	sp, #12
   8111c:	af00      	add	r7, sp, #0
   8111e:	6078      	str	r0, [r7, #4]
   81120:	687b      	ldr	r3, [r7, #4]
   81122:	f8d3 30a8 	ldr.w	r3, [r3, #168]	; 0xa8
   81126:	4618      	mov	r0, r3
   81128:	370c      	adds	r7, #12
   8112a:	46bd      	mov	sp, r7
   8112c:	f85d 7b04 	ldr.w	r7, [sp], #4
   81130:	4770      	bx	lr
   81132:	bf00      	nop

00081134 <pio_sync_output_write>:
   81134:	b480      	push	{r7}
   81136:	b083      	sub	sp, #12
   81138:	af00      	add	r7, sp, #0
   8113a:	6078      	str	r0, [r7, #4]
   8113c:	6039      	str	r1, [r7, #0]
   8113e:	687b      	ldr	r3, [r7, #4]
   81140:	683a      	ldr	r2, [r7, #0]
   81142:	639a      	str	r2, [r3, #56]	; 0x38
   81144:	370c      	adds	r7, #12
   81146:	46bd      	mov	sp, r7
   81148:	f85d 7b04 	ldr.w	r7, [sp], #4
   8114c:	4770      	bx	lr
   8114e:	bf00      	nop

00081150 <pio_configure_interrupt>:
   81150:	b480      	push	{r7}
   81152:	b085      	sub	sp, #20
   81154:	af00      	add	r7, sp, #0
   81156:	60f8      	str	r0, [r7, #12]
   81158:	60b9      	str	r1, [r7, #8]
   8115a:	607a      	str	r2, [r7, #4]
   8115c:	687b      	ldr	r3, [r7, #4]
   8115e:	f003 0310 	and.w	r3, r3, #16
   81162:	2b00      	cmp	r3, #0
   81164:	d020      	beq.n	811a8 <pio_configure_interrupt+0x58>
   81166:	68fb      	ldr	r3, [r7, #12]
   81168:	68ba      	ldr	r2, [r7, #8]
   8116a:	f8c3 20b0 	str.w	r2, [r3, #176]	; 0xb0
   8116e:	687b      	ldr	r3, [r7, #4]
   81170:	f003 0320 	and.w	r3, r3, #32
   81174:	2b00      	cmp	r3, #0
   81176:	d004      	beq.n	81182 <pio_configure_interrupt+0x32>
   81178:	68fb      	ldr	r3, [r7, #12]
   8117a:	68ba      	ldr	r2, [r7, #8]
   8117c:	f8c3 20d4 	str.w	r2, [r3, #212]	; 0xd4
   81180:	e003      	b.n	8118a <pio_configure_interrupt+0x3a>
   81182:	68fb      	ldr	r3, [r7, #12]
   81184:	68ba      	ldr	r2, [r7, #8]
   81186:	f8c3 20d0 	str.w	r2, [r3, #208]	; 0xd0
   8118a:	687b      	ldr	r3, [r7, #4]
   8118c:	f003 0340 	and.w	r3, r3, #64	; 0x40
   81190:	2b00      	cmp	r3, #0
   81192:	d004      	beq.n	8119e <pio_configure_interrupt+0x4e>
   81194:	68fb      	ldr	r3, [r7, #12]
   81196:	68ba      	ldr	r2, [r7, #8]
   81198:	f8c3 20c0 	str.w	r2, [r3, #192]	; 0xc0
   8119c:	e008      	b.n	811b0 <pio_configure_interrupt+0x60>
   8119e:	68fb      	ldr	r3, [r7, #12]
   811a0:	68ba      	ldr	r2, [r7, #8]
   811a2:	f8c3 20c4 	str.w	r2, [r3, #196]	; 0xc4
   811a6:	e003      	b.n	811b0 <pio_configure_interrupt+0x60>
   811a8:	68fb      	ldr	r3, [r7, #12]
   811aa:	68ba      	ldr	r2, [r7, #8]
   811ac:	f8c3 20b4 	str.w	r2, [r3, #180]	; 0xb4
   811b0:	3714      	adds	r7, #20
   811b2:	46bd      	mov	sp, r7
   811b4:	f85d 7b04 	ldr.w	r7, [sp], #4
   811b8:	4770      	bx	lr
   811ba:	bf00      	nop

000811bc <pio_enable_interrupt>:
   811bc:	b480      	push	{r7}
   811be:	b083      	sub	sp, #12
   811c0:	af00      	add	r7, sp, #0
   811c2:	6078      	str	r0, [r7, #4]
   811c4:	6039      	str	r1, [r7, #0]
   811c6:	687b      	ldr	r3, [r7, #4]
   811c8:	6cdb      	ldr	r3, [r3, #76]	; 0x4c
   811ca:	687b      	ldr	r3, [r7, #4]
   811cc:	683a      	ldr	r2, [r7, #0]
   811ce:	641a      	str	r2, [r3, #64]	; 0x40
   811d0:	370c      	adds	r7, #12
   811d2:	46bd      	mov	sp, r7
   811d4:	f85d 7b04 	ldr.w	r7, [sp], #4
   811d8:	4770      	bx	lr
   811da:	bf00      	nop

000811dc <pio_disable_interrupt>:
   811dc:	b480      	push	{r7}
   811de:	b083      	sub	sp, #12
   811e0:	af00      	add	r7, sp, #0
   811e2:	6078      	str	r0, [r7, #4]
   811e4:	6039      	str	r1, [r7, #0]
   811e6:	687b      	ldr	r3, [r7, #4]
   811e8:	683a      	ldr	r2, [r7, #0]
   811ea:	645a      	str	r2, [r3, #68]	; 0x44
   811ec:	370c      	adds	r7, #12
   811ee:	46bd      	mov	sp, r7
   811f0:	f85d 7b04 	ldr.w	r7, [sp], #4
   811f4:	4770      	bx	lr
   811f6:	bf00      	nop

000811f8 <pio_get_interrupt_status>:
   811f8:	b480      	push	{r7}
   811fa:	b083      	sub	sp, #12
   811fc:	af00      	add	r7, sp, #0
   811fe:	6078      	str	r0, [r7, #4]
   81200:	687b      	ldr	r3, [r7, #4]
   81202:	6cdb      	ldr	r3, [r3, #76]	; 0x4c
   81204:	4618      	mov	r0, r3
   81206:	370c      	adds	r7, #12
   81208:	46bd      	mov	sp, r7
   8120a:	f85d 7b04 	ldr.w	r7, [sp], #4
   8120e:	4770      	bx	lr

00081210 <pio_get_interrupt_mask>:
   81210:	b480      	push	{r7}
   81212:	b083      	sub	sp, #12
   81214:	af00      	add	r7, sp, #0
   81216:	6078      	str	r0, [r7, #4]
   81218:	687b      	ldr	r3, [r7, #4]
   8121a:	6c9b      	ldr	r3, [r3, #72]	; 0x48
   8121c:	4618      	mov	r0, r3
   8121e:	370c      	adds	r7, #12
   81220:	46bd      	mov	sp, r7
   81222:	f85d 7b04 	ldr.w	r7, [sp], #4
   81226:	4770      	bx	lr

00081228 <pio_set_additional_interrupt_mode>:
   81228:	b480      	push	{r7}
   8122a:	b085      	sub	sp, #20
   8122c:	af00      	add	r7, sp, #0
   8122e:	60f8      	str	r0, [r7, #12]
   81230:	60b9      	str	r1, [r7, #8]
   81232:	607a      	str	r2, [r7, #4]
   81234:	687b      	ldr	r3, [r7, #4]
   81236:	f003 0310 	and.w	r3, r3, #16
   8123a:	2b00      	cmp	r3, #0
   8123c:	d020      	beq.n	81280 <pio_set_additional_interrupt_mode+0x58>
   8123e:	68fb      	ldr	r3, [r7, #12]
   81240:	68ba      	ldr	r2, [r7, #8]
   81242:	f8c3 20b0 	str.w	r2, [r3, #176]	; 0xb0
   81246:	687b      	ldr	r3, [r7, #4]
   81248:	f003 0320 	and.w	r3, r3, #32
   8124c:	2b00      	cmp	r3, #0
   8124e:	d004      	beq.n	8125a <pio_set_additional_interrupt_mode+0x32>
   81250:	68fb      	ldr	r3, [r7, #12]
   81252:	68ba      	ldr	r2, [r7, #8]
   81254:	f8c3 20d4 	str.w	r2, [r3, #212]	; 0xd4
   81258:	e003      	b.n	81262 <pio_set_additional_interrupt_mode+0x3a>
   8125a:	68fb      	ldr	r3, [r7, #12]
   8125c:	68ba      	ldr	r2, [r7, #8]
   8125e:	f8c3 20d0 	str.w	r2, [r3, #208]	; 0xd0
   81262:	687b      	ldr	r3, [r7, #4]
   81264:	f003 0340 	and.w	r3, r3, #64	; 0x40
   81268:	2b00      	cmp	r3, #0
   8126a:	d004      	beq.n	81276 <pio_set_additional_interrupt_mode+0x4e>
   8126c:	68fb      	ldr	r3, [r7, #12]
   8126e:	68ba      	ldr	r2, [r7, #8]
   81270:	f8c3 20c0 	str.w	r2, [r3, #192]	; 0xc0
   81274:	e008      	b.n	81288 <pio_set_additional_interrupt_mode+0x60>
   81276:	68fb      	ldr	r3, [r7, #12]
   81278:	68ba      	ldr	r2, [r7, #8]
   8127a:	f8c3 20c4 	str.w	r2, [r3, #196]	; 0xc4
   8127e:	e003      	b.n	81288 <pio_set_additional_interrupt_mode+0x60>
   81280:	68fb      	ldr	r3, [r7, #12]
   81282:	68ba      	ldr	r2, [r7, #8]
   81284:	f8c3 20b4 	str.w	r2, [r3, #180]	; 0xb4
   81288:	3714      	adds	r7, #20
   8128a:	46bd      	mov	sp, r7
   8128c:	f85d 7b04 	ldr.w	r7, [sp], #4
   81290:	4770      	bx	lr
   81292:	bf00      	nop

00081294 <pio_set_writeprotect>:
   81294:	b480      	push	{r7}
   81296:	b083      	sub	sp, #12
   81298:	af00      	add	r7, sp, #0
   8129a:	6078      	str	r0, [r7, #4]
   8129c:	6039      	str	r1, [r7, #0]
   8129e:	683a      	ldr	r2, [r7, #0]
   812a0:	f44f 439e 	mov.w	r3, #20224	; 0x4f00
   812a4:	f2c5 0349 	movt	r3, #20553	; 0x5049
   812a8:	4313      	orrs	r3, r2
   812aa:	687a      	ldr	r2, [r7, #4]
   812ac:	f8c2 30e4 	str.w	r3, [r2, #228]	; 0xe4
   812b0:	370c      	adds	r7, #12
   812b2:	46bd      	mov	sp, r7
   812b4:	f85d 7b04 	ldr.w	r7, [sp], #4
   812b8:	4770      	bx	lr
   812ba:	bf00      	nop

000812bc <pio_get_writeprotect_status>:
   812bc:	b480      	push	{r7}
   812be:	b083      	sub	sp, #12
   812c0:	af00      	add	r7, sp, #0
   812c2:	6078      	str	r0, [r7, #4]
   812c4:	687b      	ldr	r3, [r7, #4]
   812c6:	f8d3 30e8 	ldr.w	r3, [r3, #232]	; 0xe8
   812ca:	4618      	mov	r0, r3
   812cc:	370c      	adds	r7, #12
   812ce:	46bd      	mov	sp, r7
   812d0:	f85d 7b04 	ldr.w	r7, [sp], #4
   812d4:	4770      	bx	lr
   812d6:	bf00      	nop

000812d8 <pio_get_pin_value>:
   812d8:	b580      	push	{r7, lr}
   812da:	b084      	sub	sp, #16
   812dc:	af00      	add	r7, sp, #0
   812de:	6078      	str	r0, [r7, #4]
   812e0:	6878      	ldr	r0, [r7, #4]
   812e2:	f000 f9b7 	bl	81654 <pio_get_pin_group>
   812e6:	60f8      	str	r0, [r7, #12]
   812e8:	68fb      	ldr	r3, [r7, #12]
   812ea:	6bda      	ldr	r2, [r3, #60]	; 0x3c
   812ec:	687b      	ldr	r3, [r7, #4]
   812ee:	f003 031f 	and.w	r3, r3, #31
   812f2:	fa22 f303 	lsr.w	r3, r2, r3
   812f6:	f003 0301 	and.w	r3, r3, #1
   812fa:	4618      	mov	r0, r3
   812fc:	3710      	adds	r7, #16
   812fe:	46bd      	mov	sp, r7
   81300:	bd80      	pop	{r7, pc}
   81302:	bf00      	nop

00081304 <pio_set_pin_high>:
   81304:	b580      	push	{r7, lr}
   81306:	b084      	sub	sp, #16
   81308:	af00      	add	r7, sp, #0
   8130a:	6078      	str	r0, [r7, #4]
   8130c:	6878      	ldr	r0, [r7, #4]
   8130e:	f000 f9a1 	bl	81654 <pio_get_pin_group>
   81312:	60f8      	str	r0, [r7, #12]
   81314:	687b      	ldr	r3, [r7, #4]
   81316:	f003 031f 	and.w	r3, r3, #31
   8131a:	2201      	movs	r2, #1
   8131c:	fa02 f303 	lsl.w	r3, r2, r3
   81320:	461a      	mov	r2, r3
   81322:	68fb      	ldr	r3, [r7, #12]
   81324:	631a      	str	r2, [r3, #48]	; 0x30
   81326:	3710      	adds	r7, #16
   81328:	46bd      	mov	sp, r7
   8132a:	bd80      	pop	{r7, pc}

0008132c <pio_set_pin_low>:
   8132c:	b580      	push	{r7, lr}
   8132e:	b084      	sub	sp, #16
   81330:	af00      	add	r7, sp, #0
   81332:	6078      	str	r0, [r7, #4]
   81334:	6878      	ldr	r0, [r7, #4]
   81336:	f000 f98d 	bl	81654 <pio_get_pin_group>
   8133a:	60f8      	str	r0, [r7, #12]
   8133c:	687b      	ldr	r3, [r7, #4]
   8133e:	f003 031f 	and.w	r3, r3, #31
   81342:	2201      	movs	r2, #1
   81344:	fa02 f303 	lsl.w	r3, r2, r3
   81348:	461a      	mov	r2, r3
   8134a:	68fb      	ldr	r3, [r7, #12]
   8134c:	635a      	str	r2, [r3, #52]	; 0x34
   8134e:	3710      	adds	r7, #16
   81350:	46bd      	mov	sp, r7
   81352:	bd80      	pop	{r7, pc}

00081354 <pio_toggle_pin>:
   81354:	b580      	push	{r7, lr}
   81356:	b084      	sub	sp, #16
   81358:	af00      	add	r7, sp, #0
   8135a:	6078      	str	r0, [r7, #4]
   8135c:	6878      	ldr	r0, [r7, #4]
   8135e:	f000 f979 	bl	81654 <pio_get_pin_group>
   81362:	60f8      	str	r0, [r7, #12]
   81364:	68fb      	ldr	r3, [r7, #12]
   81366:	6b9a      	ldr	r2, [r3, #56]	; 0x38
   81368:	687b      	ldr	r3, [r7, #4]
   8136a:	f003 031f 	and.w	r3, r3, #31
   8136e:	2101      	movs	r1, #1
   81370:	fa01 f303 	lsl.w	r3, r1, r3
   81374:	4013      	ands	r3, r2
   81376:	2b00      	cmp	r3, #0
   81378:	d009      	beq.n	8138e <pio_toggle_pin+0x3a>
   8137a:	687b      	ldr	r3, [r7, #4]
   8137c:	f003 031f 	and.w	r3, r3, #31
   81380:	2201      	movs	r2, #1
   81382:	fa02 f303 	lsl.w	r3, r2, r3
   81386:	461a      	mov	r2, r3
   81388:	68fb      	ldr	r3, [r7, #12]
   8138a:	635a      	str	r2, [r3, #52]	; 0x34
   8138c:	e008      	b.n	813a0 <pio_toggle_pin+0x4c>
   8138e:	687b      	ldr	r3, [r7, #4]
   81390:	f003 031f 	and.w	r3, r3, #31
   81394:	2201      	movs	r2, #1
   81396:	fa02 f303 	lsl.w	r3, r2, r3
   8139a:	461a      	mov	r2, r3
   8139c:	68fb      	ldr	r3, [r7, #12]
   8139e:	631a      	str	r2, [r3, #48]	; 0x30
   813a0:	3710      	adds	r7, #16
   813a2:	46bd      	mov	sp, r7
   813a4:	bd80      	pop	{r7, pc}
   813a6:	bf00      	nop

000813a8 <pio_configure_pin>:
   813a8:	b580      	push	{r7, lr}
   813aa:	b086      	sub	sp, #24
   813ac:	af02      	add	r7, sp, #8
   813ae:	6078      	str	r0, [r7, #4]
   813b0:	6039      	str	r1, [r7, #0]
   813b2:	6878      	ldr	r0, [r7, #4]
   813b4:	f000 f94e 	bl	81654 <pio_get_pin_group>
   813b8:	60f8      	str	r0, [r7, #12]
   813ba:	683b      	ldr	r3, [r7, #0]
   813bc:	f003 43f0 	and.w	r3, r3, #2013265920	; 0x78000000
   813c0:	f1b3 5f20 	cmp.w	r3, #671088640	; 0x28000000
   813c4:	d048      	beq.n	81458 <pio_configure_pin+0xb0>
   813c6:	f1b3 5f20 	cmp.w	r3, #671088640	; 0x28000000
   813ca:	d806      	bhi.n	813da <pio_configure_pin+0x32>
   813cc:	f1b3 6f00 	cmp.w	r3, #134217728	; 0x8000000
   813d0:	d00a      	beq.n	813e8 <pio_configure_pin+0x40>
   813d2:	f1b3 5f80 	cmp.w	r3, #268435456	; 0x10000000
   813d6:	d023      	beq.n	81420 <pio_configure_pin+0x78>
   813d8:	e070      	b.n	814bc <pio_configure_pin+0x114>
   813da:	f1b3 5f40 	cmp.w	r3, #805306368	; 0x30000000
   813de:	d047      	beq.n	81470 <pio_configure_pin+0xc8>
   813e0:	f1b3 5f60 	cmp.w	r3, #939524096	; 0x38000000
   813e4:	d044      	beq.n	81470 <pio_configure_pin+0xc8>
   813e6:	e069      	b.n	814bc <pio_configure_pin+0x114>
   813e8:	687b      	ldr	r3, [r7, #4]
   813ea:	f003 031f 	and.w	r3, r3, #31
   813ee:	2201      	movs	r2, #1
   813f0:	fa02 f303 	lsl.w	r3, r2, r3
   813f4:	68f8      	ldr	r0, [r7, #12]
   813f6:	f04f 6100 	mov.w	r1, #134217728	; 0x8000000
   813fa:	461a      	mov	r2, r3
   813fc:	f7ff fd3c 	bl	80e78 <pio_set_peripheral>
   81400:	687b      	ldr	r3, [r7, #4]
   81402:	f003 031f 	and.w	r3, r3, #31
   81406:	2201      	movs	r2, #1
   81408:	fa02 f303 	lsl.w	r3, r2, r3
   8140c:	461a      	mov	r2, r3
   8140e:	683b      	ldr	r3, [r7, #0]
   81410:	f003 0301 	and.w	r3, r3, #1
   81414:	68f8      	ldr	r0, [r7, #12]
   81416:	4611      	mov	r1, r2
   81418:	461a      	mov	r2, r3
   8141a:	f7ff fcbb 	bl	80d94 <pio_pull_up>
   8141e:	e04f      	b.n	814c0 <pio_configure_pin+0x118>
   81420:	687b      	ldr	r3, [r7, #4]
   81422:	f003 031f 	and.w	r3, r3, #31
   81426:	2201      	movs	r2, #1
   81428:	fa02 f303 	lsl.w	r3, r2, r3
   8142c:	68f8      	ldr	r0, [r7, #12]
   8142e:	f04f 5180 	mov.w	r1, #268435456	; 0x10000000
   81432:	461a      	mov	r2, r3
   81434:	f7ff fd20 	bl	80e78 <pio_set_peripheral>
   81438:	687b      	ldr	r3, [r7, #4]
   8143a:	f003 031f 	and.w	r3, r3, #31
   8143e:	2201      	movs	r2, #1
   81440:	fa02 f303 	lsl.w	r3, r2, r3
   81444:	461a      	mov	r2, r3
   81446:	683b      	ldr	r3, [r7, #0]
   81448:	f003 0301 	and.w	r3, r3, #1
   8144c:	68f8      	ldr	r0, [r7, #12]
   8144e:	4611      	mov	r1, r2
   81450:	461a      	mov	r2, r3
   81452:	f7ff fc9f 	bl	80d94 <pio_pull_up>
   81456:	e033      	b.n	814c0 <pio_configure_pin+0x118>
   81458:	687b      	ldr	r3, [r7, #4]
   8145a:	f003 031f 	and.w	r3, r3, #31
   8145e:	2201      	movs	r2, #1
   81460:	fa02 f303 	lsl.w	r3, r2, r3
   81464:	68f8      	ldr	r0, [r7, #12]
   81466:	4619      	mov	r1, r3
   81468:	683a      	ldr	r2, [r7, #0]
   8146a:	f7ff fd45 	bl	80ef8 <pio_set_input>
   8146e:	e027      	b.n	814c0 <pio_configure_pin+0x118>
   81470:	687b      	ldr	r3, [r7, #4]
   81472:	f003 031f 	and.w	r3, r3, #31
   81476:	2201      	movs	r2, #1
   81478:	fa02 f303 	lsl.w	r3, r2, r3
   8147c:	4619      	mov	r1, r3
   8147e:	683b      	ldr	r3, [r7, #0]
   81480:	f003 5360 	and.w	r3, r3, #939524096	; 0x38000000
   81484:	f1b3 5f60 	cmp.w	r3, #939524096	; 0x38000000
   81488:	bf14      	ite	ne
   8148a:	2300      	movne	r3, #0
   8148c:	2301      	moveq	r3, #1
   8148e:	b2db      	uxtb	r3, r3
   81490:	461a      	mov	r2, r3
   81492:	683b      	ldr	r3, [r7, #0]
   81494:	f003 0304 	and.w	r3, r3, #4
   81498:	2b00      	cmp	r3, #0
   8149a:	bf0c      	ite	eq
   8149c:	2300      	moveq	r3, #0
   8149e:	2301      	movne	r3, #1
   814a0:	b2db      	uxtb	r3, r3
   814a2:	6838      	ldr	r0, [r7, #0]
   814a4:	f000 0001 	and.w	r0, r0, #1
   814a8:	2800      	cmp	r0, #0
   814aa:	bf0c      	ite	eq
   814ac:	2000      	moveq	r0, #0
   814ae:	2001      	movne	r0, #1
   814b0:	b2c0      	uxtb	r0, r0
   814b2:	9000      	str	r0, [sp, #0]
   814b4:	68f8      	ldr	r0, [r7, #12]
   814b6:	f7ff fd59 	bl	80f6c <pio_set_output>
   814ba:	e001      	b.n	814c0 <pio_configure_pin+0x118>
   814bc:	2300      	movs	r3, #0
   814be:	e000      	b.n	814c2 <pio_configure_pin+0x11a>
   814c0:	2301      	movs	r3, #1
   814c2:	4618      	mov	r0, r3
   814c4:	3710      	adds	r7, #16
   814c6:	46bd      	mov	sp, r7
   814c8:	bd80      	pop	{r7, pc}
   814ca:	bf00      	nop

000814cc <pio_set_pin_group_high>:
   814cc:	b480      	push	{r7}
   814ce:	b083      	sub	sp, #12
   814d0:	af00      	add	r7, sp, #0
   814d2:	6078      	str	r0, [r7, #4]
   814d4:	6039      	str	r1, [r7, #0]
   814d6:	687b      	ldr	r3, [r7, #4]
   814d8:	683a      	ldr	r2, [r7, #0]
   814da:	631a      	str	r2, [r3, #48]	; 0x30
   814dc:	370c      	adds	r7, #12
   814de:	46bd      	mov	sp, r7
   814e0:	f85d 7b04 	ldr.w	r7, [sp], #4
   814e4:	4770      	bx	lr
   814e6:	bf00      	nop

000814e8 <pio_set_pin_group_low>:
   814e8:	b480      	push	{r7}
   814ea:	b083      	sub	sp, #12
   814ec:	af00      	add	r7, sp, #0
   814ee:	6078      	str	r0, [r7, #4]
   814f0:	6039      	str	r1, [r7, #0]
   814f2:	687b      	ldr	r3, [r7, #4]
   814f4:	683a      	ldr	r2, [r7, #0]
   814f6:	635a      	str	r2, [r3, #52]	; 0x34
   814f8:	370c      	adds	r7, #12
   814fa:	46bd      	mov	sp, r7
   814fc:	f85d 7b04 	ldr.w	r7, [sp], #4
   81500:	4770      	bx	lr
   81502:	bf00      	nop

00081504 <pio_toggle_pin_group>:
   81504:	b480      	push	{r7}
   81506:	b083      	sub	sp, #12
   81508:	af00      	add	r7, sp, #0
   8150a:	6078      	str	r0, [r7, #4]
   8150c:	6039      	str	r1, [r7, #0]
   8150e:	687b      	ldr	r3, [r7, #4]
   81510:	6b9a      	ldr	r2, [r3, #56]	; 0x38
   81512:	683b      	ldr	r3, [r7, #0]
   81514:	4013      	ands	r3, r2
   81516:	2b00      	cmp	r3, #0
   81518:	d003      	beq.n	81522 <pio_toggle_pin_group+0x1e>
   8151a:	687b      	ldr	r3, [r7, #4]
   8151c:	683a      	ldr	r2, [r7, #0]
   8151e:	635a      	str	r2, [r3, #52]	; 0x34
   81520:	e002      	b.n	81528 <pio_toggle_pin_group+0x24>
   81522:	687b      	ldr	r3, [r7, #4]
   81524:	683a      	ldr	r2, [r7, #0]
   81526:	631a      	str	r2, [r3, #48]	; 0x30
   81528:	370c      	adds	r7, #12
   8152a:	46bd      	mov	sp, r7
   8152c:	f85d 7b04 	ldr.w	r7, [sp], #4
   81530:	4770      	bx	lr
   81532:	bf00      	nop

00081534 <pio_configure_pin_group>:
   81534:	b580      	push	{r7, lr}
   81536:	b086      	sub	sp, #24
   81538:	af02      	add	r7, sp, #8
   8153a:	60f8      	str	r0, [r7, #12]
   8153c:	60b9      	str	r1, [r7, #8]
   8153e:	607a      	str	r2, [r7, #4]
   81540:	687b      	ldr	r3, [r7, #4]
   81542:	f003 43f0 	and.w	r3, r3, #2013265920	; 0x78000000
   81546:	f1b3 5f20 	cmp.w	r3, #671088640	; 0x28000000
   8154a:	d02e      	beq.n	815aa <pio_configure_pin_group+0x76>
   8154c:	f1b3 5f20 	cmp.w	r3, #671088640	; 0x28000000
   81550:	d806      	bhi.n	81560 <pio_configure_pin_group+0x2c>
   81552:	f1b3 6f00 	cmp.w	r3, #134217728	; 0x8000000
   81556:	d00a      	beq.n	8156e <pio_configure_pin_group+0x3a>
   81558:	f1b3 5f80 	cmp.w	r3, #268435456	; 0x10000000
   8155c:	d016      	beq.n	8158c <pio_configure_pin_group+0x58>
   8155e:	e04a      	b.n	815f6 <pio_configure_pin_group+0xc2>
   81560:	f1b3 5f40 	cmp.w	r3, #805306368	; 0x30000000
   81564:	d027      	beq.n	815b6 <pio_configure_pin_group+0x82>
   81566:	f1b3 5f60 	cmp.w	r3, #939524096	; 0x38000000
   8156a:	d024      	beq.n	815b6 <pio_configure_pin_group+0x82>
   8156c:	e043      	b.n	815f6 <pio_configure_pin_group+0xc2>
   8156e:	68f8      	ldr	r0, [r7, #12]
   81570:	f04f 6100 	mov.w	r1, #134217728	; 0x8000000
   81574:	68ba      	ldr	r2, [r7, #8]
   81576:	f7ff fc7f 	bl	80e78 <pio_set_peripheral>
   8157a:	687b      	ldr	r3, [r7, #4]
   8157c:	f003 0301 	and.w	r3, r3, #1
   81580:	68f8      	ldr	r0, [r7, #12]
   81582:	68b9      	ldr	r1, [r7, #8]
   81584:	461a      	mov	r2, r3
   81586:	f7ff fc05 	bl	80d94 <pio_pull_up>
   8158a:	e036      	b.n	815fa <pio_configure_pin_group+0xc6>
   8158c:	68f8      	ldr	r0, [r7, #12]
   8158e:	f04f 5180 	mov.w	r1, #268435456	; 0x10000000
   81592:	68ba      	ldr	r2, [r7, #8]
   81594:	f7ff fc70 	bl	80e78 <pio_set_peripheral>
   81598:	687b      	ldr	r3, [r7, #4]
   8159a:	f003 0301 	and.w	r3, r3, #1
   8159e:	68f8      	ldr	r0, [r7, #12]
   815a0:	68b9      	ldr	r1, [r7, #8]
   815a2:	461a      	mov	r2, r3
   815a4:	f7ff fbf6 	bl	80d94 <pio_pull_up>
   815a8:	e027      	b.n	815fa <pio_configure_pin_group+0xc6>
   815aa:	68f8      	ldr	r0, [r7, #12]
   815ac:	68b9      	ldr	r1, [r7, #8]
   815ae:	687a      	ldr	r2, [r7, #4]
   815b0:	f7ff fca2 	bl	80ef8 <pio_set_input>
   815b4:	e021      	b.n	815fa <pio_configure_pin_group+0xc6>
   815b6:	687b      	ldr	r3, [r7, #4]
   815b8:	f003 5360 	and.w	r3, r3, #939524096	; 0x38000000
   815bc:	f1b3 5f60 	cmp.w	r3, #939524096	; 0x38000000
   815c0:	bf14      	ite	ne
   815c2:	2300      	movne	r3, #0
   815c4:	2301      	moveq	r3, #1
   815c6:	b2db      	uxtb	r3, r3
   815c8:	461a      	mov	r2, r3
   815ca:	687b      	ldr	r3, [r7, #4]
   815cc:	f003 0304 	and.w	r3, r3, #4
   815d0:	2b00      	cmp	r3, #0
   815d2:	bf0c      	ite	eq
   815d4:	2300      	moveq	r3, #0
   815d6:	2301      	movne	r3, #1
   815d8:	b2db      	uxtb	r3, r3
   815da:	6879      	ldr	r1, [r7, #4]
   815dc:	f001 0101 	and.w	r1, r1, #1
   815e0:	2900      	cmp	r1, #0
   815e2:	bf0c      	ite	eq
   815e4:	2100      	moveq	r1, #0
   815e6:	2101      	movne	r1, #1
   815e8:	b2c9      	uxtb	r1, r1
   815ea:	9100      	str	r1, [sp, #0]
   815ec:	68f8      	ldr	r0, [r7, #12]
   815ee:	68b9      	ldr	r1, [r7, #8]
   815f0:	f7ff fcbc 	bl	80f6c <pio_set_output>
   815f4:	e001      	b.n	815fa <pio_configure_pin_group+0xc6>
   815f6:	2300      	movs	r3, #0
   815f8:	e000      	b.n	815fc <pio_configure_pin_group+0xc8>
   815fa:	2301      	movs	r3, #1
   815fc:	4618      	mov	r0, r3
   815fe:	3710      	adds	r7, #16
   81600:	46bd      	mov	sp, r7
   81602:	bd80      	pop	{r7, pc}

00081604 <pio_enable_pin_interrupt>:
   81604:	b580      	push	{r7, lr}
   81606:	b084      	sub	sp, #16
   81608:	af00      	add	r7, sp, #0
   8160a:	6078      	str	r0, [r7, #4]
   8160c:	6878      	ldr	r0, [r7, #4]
   8160e:	f000 f821 	bl	81654 <pio_get_pin_group>
   81612:	60f8      	str	r0, [r7, #12]
   81614:	687b      	ldr	r3, [r7, #4]
   81616:	f003 031f 	and.w	r3, r3, #31
   8161a:	2201      	movs	r2, #1
   8161c:	fa02 f303 	lsl.w	r3, r2, r3
   81620:	461a      	mov	r2, r3
   81622:	68fb      	ldr	r3, [r7, #12]
   81624:	641a      	str	r2, [r3, #64]	; 0x40
   81626:	3710      	adds	r7, #16
   81628:	46bd      	mov	sp, r7
   8162a:	bd80      	pop	{r7, pc}

0008162c <pio_disable_pin_interrupt>:
   8162c:	b580      	push	{r7, lr}
   8162e:	b084      	sub	sp, #16
   81630:	af00      	add	r7, sp, #0
   81632:	6078      	str	r0, [r7, #4]
   81634:	6878      	ldr	r0, [r7, #4]
   81636:	f000 f80d 	bl	81654 <pio_get_pin_group>
   8163a:	60f8      	str	r0, [r7, #12]
   8163c:	687b      	ldr	r3, [r7, #4]
   8163e:	f003 031f 	and.w	r3, r3, #31
   81642:	2201      	movs	r2, #1
   81644:	fa02 f303 	lsl.w	r3, r2, r3
   81648:	461a      	mov	r2, r3
   8164a:	68fb      	ldr	r3, [r7, #12]
   8164c:	645a      	str	r2, [r3, #68]	; 0x44
   8164e:	3710      	adds	r7, #16
   81650:	46bd      	mov	sp, r7
   81652:	bd80      	pop	{r7, pc}

00081654 <pio_get_pin_group>:
   81654:	b480      	push	{r7}
   81656:	b085      	sub	sp, #20
   81658:	af00      	add	r7, sp, #0
   8165a:	6078      	str	r0, [r7, #4]
   8165c:	687b      	ldr	r3, [r7, #4]
   8165e:	095b      	lsrs	r3, r3, #5
   81660:	f503 1300 	add.w	r3, r3, #2097152	; 0x200000
   81664:	f203 7307 	addw	r3, r3, #1799	; 0x707
   81668:	025b      	lsls	r3, r3, #9
   8166a:	60fb      	str	r3, [r7, #12]
   8166c:	68fb      	ldr	r3, [r7, #12]
   8166e:	4618      	mov	r0, r3
   81670:	3714      	adds	r7, #20
   81672:	46bd      	mov	sp, r7
   81674:	f85d 7b04 	ldr.w	r7, [sp], #4
   81678:	4770      	bx	lr
   8167a:	bf00      	nop

0008167c <pio_get_pin_group_id>:
   8167c:	b480      	push	{r7}
   8167e:	b085      	sub	sp, #20
   81680:	af00      	add	r7, sp, #0
   81682:	6078      	str	r0, [r7, #4]
   81684:	687b      	ldr	r3, [r7, #4]
   81686:	095b      	lsrs	r3, r3, #5
   81688:	330b      	adds	r3, #11
   8168a:	60fb      	str	r3, [r7, #12]
   8168c:	68fb      	ldr	r3, [r7, #12]
   8168e:	4618      	mov	r0, r3
   81690:	3714      	adds	r7, #20
   81692:	46bd      	mov	sp, r7
   81694:	f85d 7b04 	ldr.w	r7, [sp], #4
   81698:	4770      	bx	lr
   8169a:	bf00      	nop

0008169c <pio_get_pin_group_mask>:
   8169c:	b480      	push	{r7}
   8169e:	b085      	sub	sp, #20
   816a0:	af00      	add	r7, sp, #0
   816a2:	6078      	str	r0, [r7, #4]
   816a4:	687b      	ldr	r3, [r7, #4]
   816a6:	f003 031f 	and.w	r3, r3, #31
   816aa:	2201      	movs	r2, #1
   816ac:	fa02 f303 	lsl.w	r3, r2, r3
   816b0:	60fb      	str	r3, [r7, #12]
   816b2:	68fb      	ldr	r3, [r7, #12]
   816b4:	4618      	mov	r0, r3
   816b6:	3714      	adds	r7, #20
   816b8:	46bd      	mov	sp, r7
   816ba:	f85d 7b04 	ldr.w	r7, [sp], #4
   816be:	4770      	bx	lr

000816c0 <pmc_mck_set_prescaler>:
   816c0:	b480      	push	{r7}
   816c2:	b083      	sub	sp, #12
   816c4:	af00      	add	r7, sp, #0
   816c6:	6078      	str	r0, [r7, #4]
   816c8:	f44f 63c0 	mov.w	r3, #1536	; 0x600
   816cc:	f2c4 030e 	movt	r3, #16398	; 0x400e
   816d0:	f44f 62c0 	mov.w	r2, #1536	; 0x600
   816d4:	f2c4 020e 	movt	r2, #16398	; 0x400e
   816d8:	6b12      	ldr	r2, [r2, #48]	; 0x30
   816da:	f022 0170 	bic.w	r1, r2, #112	; 0x70
   816de:	687a      	ldr	r2, [r7, #4]
   816e0:	430a      	orrs	r2, r1
   816e2:	631a      	str	r2, [r3, #48]	; 0x30
   816e4:	bf00      	nop
   816e6:	f44f 63c0 	mov.w	r3, #1536	; 0x600
   816ea:	f2c4 030e 	movt	r3, #16398	; 0x400e
   816ee:	6e9b      	ldr	r3, [r3, #104]	; 0x68
   816f0:	f003 0308 	and.w	r3, r3, #8
   816f4:	2b00      	cmp	r3, #0
   816f6:	d0f6      	beq.n	816e6 <pmc_mck_set_prescaler+0x26>
   816f8:	370c      	adds	r7, #12
   816fa:	46bd      	mov	sp, r7
   816fc:	f85d 7b04 	ldr.w	r7, [sp], #4
   81700:	4770      	bx	lr
   81702:	bf00      	nop

00081704 <pmc_mck_set_source>:
   81704:	b480      	push	{r7}
   81706:	b083      	sub	sp, #12
   81708:	af00      	add	r7, sp, #0
   8170a:	6078      	str	r0, [r7, #4]
   8170c:	f44f 63c0 	mov.w	r3, #1536	; 0x600
   81710:	f2c4 030e 	movt	r3, #16398	; 0x400e
   81714:	f44f 62c0 	mov.w	r2, #1536	; 0x600
   81718:	f2c4 020e 	movt	r2, #16398	; 0x400e
   8171c:	6b12      	ldr	r2, [r2, #48]	; 0x30
   8171e:	f022 0103 	bic.w	r1, r2, #3
   81722:	687a      	ldr	r2, [r7, #4]
   81724:	430a      	orrs	r2, r1
   81726:	631a      	str	r2, [r3, #48]	; 0x30
   81728:	bf00      	nop
   8172a:	f44f 63c0 	mov.w	r3, #1536	; 0x600
   8172e:	f2c4 030e 	movt	r3, #16398	; 0x400e
   81732:	6e9b      	ldr	r3, [r3, #104]	; 0x68
   81734:	f003 0308 	and.w	r3, r3, #8
   81738:	2b00      	cmp	r3, #0
   8173a:	d0f6      	beq.n	8172a <pmc_mck_set_source+0x26>
   8173c:	370c      	adds	r7, #12
   8173e:	46bd      	mov	sp, r7
   81740:	f85d 7b04 	ldr.w	r7, [sp], #4
   81744:	4770      	bx	lr
   81746:	bf00      	nop

00081748 <pmc_switch_mck_to_sclk>:
   81748:	b480      	push	{r7}
   8174a:	b085      	sub	sp, #20
   8174c:	af00      	add	r7, sp, #0
   8174e:	6078      	str	r0, [r7, #4]
   81750:	f44f 63c0 	mov.w	r3, #1536	; 0x600
   81754:	f2c4 030e 	movt	r3, #16398	; 0x400e
   81758:	f44f 62c0 	mov.w	r2, #1536	; 0x600
   8175c:	f2c4 020e 	movt	r2, #16398	; 0x400e
   81760:	6b12      	ldr	r2, [r2, #48]	; 0x30
   81762:	f022 0203 	bic.w	r2, r2, #3
   81766:	631a      	str	r2, [r3, #48]	; 0x30
   81768:	f44f 6300 	mov.w	r3, #2048	; 0x800
   8176c:	60fb      	str	r3, [r7, #12]
   8176e:	e007      	b.n	81780 <pmc_switch_mck_to_sclk+0x38>
   81770:	68fb      	ldr	r3, [r7, #12]
   81772:	2b00      	cmp	r3, #0
   81774:	d101      	bne.n	8177a <pmc_switch_mck_to_sclk+0x32>
   81776:	2301      	movs	r3, #1
   81778:	e02f      	b.n	817da <pmc_switch_mck_to_sclk+0x92>
   8177a:	68fb      	ldr	r3, [r7, #12]
   8177c:	3b01      	subs	r3, #1
   8177e:	60fb      	str	r3, [r7, #12]
   81780:	f44f 63c0 	mov.w	r3, #1536	; 0x600
   81784:	f2c4 030e 	movt	r3, #16398	; 0x400e
   81788:	6e9b      	ldr	r3, [r3, #104]	; 0x68
   8178a:	f003 0308 	and.w	r3, r3, #8
   8178e:	2b00      	cmp	r3, #0
   81790:	d0ee      	beq.n	81770 <pmc_switch_mck_to_sclk+0x28>
   81792:	f44f 63c0 	mov.w	r3, #1536	; 0x600
   81796:	f2c4 030e 	movt	r3, #16398	; 0x400e
   8179a:	f44f 62c0 	mov.w	r2, #1536	; 0x600
   8179e:	f2c4 020e 	movt	r2, #16398	; 0x400e
   817a2:	6b12      	ldr	r2, [r2, #48]	; 0x30
   817a4:	f022 0170 	bic.w	r1, r2, #112	; 0x70
   817a8:	687a      	ldr	r2, [r7, #4]
   817aa:	430a      	orrs	r2, r1
   817ac:	631a      	str	r2, [r3, #48]	; 0x30
   817ae:	f44f 6300 	mov.w	r3, #2048	; 0x800
   817b2:	60fb      	str	r3, [r7, #12]
   817b4:	e007      	b.n	817c6 <pmc_switch_mck_to_sclk+0x7e>
   817b6:	68fb      	ldr	r3, [r7, #12]
   817b8:	2b00      	cmp	r3, #0
   817ba:	d101      	bne.n	817c0 <pmc_switch_mck_to_sclk+0x78>
   817bc:	2301      	movs	r3, #1
   817be:	e00c      	b.n	817da <pmc_switch_mck_to_sclk+0x92>
   817c0:	68fb      	ldr	r3, [r7, #12]
   817c2:	3b01      	subs	r3, #1
   817c4:	60fb      	str	r3, [r7, #12]
   817c6:	f44f 63c0 	mov.w	r3, #1536	; 0x600
   817ca:	f2c4 030e 	movt	r3, #16398	; 0x400e
   817ce:	6e9b      	ldr	r3, [r3, #104]	; 0x68
   817d0:	f003 0308 	and.w	r3, r3, #8
   817d4:	2b00      	cmp	r3, #0
   817d6:	d0ee      	beq.n	817b6 <pmc_switch_mck_to_sclk+0x6e>
   817d8:	2300      	movs	r3, #0
   817da:	4618      	mov	r0, r3
   817dc:	3714      	adds	r7, #20
   817de:	46bd      	mov	sp, r7
   817e0:	f85d 7b04 	ldr.w	r7, [sp], #4
   817e4:	4770      	bx	lr
   817e6:	bf00      	nop

000817e8 <pmc_switch_mck_to_mainck>:
   817e8:	b480      	push	{r7}
   817ea:	b085      	sub	sp, #20
   817ec:	af00      	add	r7, sp, #0
   817ee:	6078      	str	r0, [r7, #4]
   817f0:	f44f 63c0 	mov.w	r3, #1536	; 0x600
   817f4:	f2c4 030e 	movt	r3, #16398	; 0x400e
   817f8:	f44f 62c0 	mov.w	r2, #1536	; 0x600
   817fc:	f2c4 020e 	movt	r2, #16398	; 0x400e
   81800:	6b12      	ldr	r2, [r2, #48]	; 0x30
   81802:	f022 0203 	bic.w	r2, r2, #3
   81806:	f042 0201 	orr.w	r2, r2, #1
   8180a:	631a      	str	r2, [r3, #48]	; 0x30
   8180c:	f44f 6300 	mov.w	r3, #2048	; 0x800
   81810:	60fb      	str	r3, [r7, #12]
   81812:	e007      	b.n	81824 <pmc_switch_mck_to_mainck+0x3c>
   81814:	68fb      	ldr	r3, [r7, #12]
   81816:	2b00      	cmp	r3, #0
   81818:	d101      	bne.n	8181e <pmc_switch_mck_to_mainck+0x36>
   8181a:	2301      	movs	r3, #1
   8181c:	e02f      	b.n	8187e <pmc_switch_mck_to_mainck+0x96>
   8181e:	68fb      	ldr	r3, [r7, #12]
   81820:	3b01      	subs	r3, #1
   81822:	60fb      	str	r3, [r7, #12]
   81824:	f44f 63c0 	mov.w	r3, #1536	; 0x600
   81828:	f2c4 030e 	movt	r3, #16398	; 0x400e
   8182c:	6e9b      	ldr	r3, [r3, #104]	; 0x68
   8182e:	f003 0308 	and.w	r3, r3, #8
   81832:	2b00      	cmp	r3, #0
   81834:	d0ee      	beq.n	81814 <pmc_switch_mck_to_mainck+0x2c>
   81836:	f44f 63c0 	mov.w	r3, #1536	; 0x600
   8183a:	f2c4 030e 	movt	r3, #16398	; 0x400e
   8183e:	f44f 62c0 	mov.w	r2, #1536	; 0x600
   81842:	f2c4 020e 	movt	r2, #16398	; 0x400e
   81846:	6b12      	ldr	r2, [r2, #48]	; 0x30
   81848:	f022 0170 	bic.w	r1, r2, #112	; 0x70
   8184c:	687a      	ldr	r2, [r7, #4]
   8184e:	430a      	orrs	r2, r1
   81850:	631a      	str	r2, [r3, #48]	; 0x30
   81852:	f44f 6300 	mov.w	r3, #2048	; 0x800
   81856:	60fb      	str	r3, [r7, #12]
   81858:	e007      	b.n	8186a <pmc_switch_mck_to_mainck+0x82>
   8185a:	68fb      	ldr	r3, [r7, #12]
   8185c:	2b00      	cmp	r3, #0
   8185e:	d101      	bne.n	81864 <pmc_switch_mck_to_mainck+0x7c>
   81860:	2301      	movs	r3, #1
   81862:	e00c      	b.n	8187e <pmc_switch_mck_to_mainck+0x96>
   81864:	68fb      	ldr	r3, [r7, #12]
   81866:	3b01      	subs	r3, #1
   81868:	60fb      	str	r3, [r7, #12]
   8186a:	f44f 63c0 	mov.w	r3, #1536	; 0x600
   8186e:	f2c4 030e 	movt	r3, #16398	; 0x400e
   81872:	6e9b      	ldr	r3, [r3, #104]	; 0x68
   81874:	f003 0308 	and.w	r3, r3, #8
   81878:	2b00      	cmp	r3, #0
   8187a:	d0ee      	beq.n	8185a <pmc_switch_mck_to_mainck+0x72>
   8187c:	2300      	movs	r3, #0
   8187e:	4618      	mov	r0, r3
   81880:	3714      	adds	r7, #20
   81882:	46bd      	mov	sp, r7
   81884:	f85d 7b04 	ldr.w	r7, [sp], #4
   81888:	4770      	bx	lr
   8188a:	bf00      	nop

0008188c <pmc_switch_mck_to_pllack>:
   8188c:	b480      	push	{r7}
   8188e:	b085      	sub	sp, #20
   81890:	af00      	add	r7, sp, #0
   81892:	6078      	str	r0, [r7, #4]
   81894:	f44f 63c0 	mov.w	r3, #1536	; 0x600
   81898:	f2c4 030e 	movt	r3, #16398	; 0x400e
   8189c:	f44f 62c0 	mov.w	r2, #1536	; 0x600
   818a0:	f2c4 020e 	movt	r2, #16398	; 0x400e
   818a4:	6b12      	ldr	r2, [r2, #48]	; 0x30
   818a6:	f022 0170 	bic.w	r1, r2, #112	; 0x70
   818aa:	687a      	ldr	r2, [r7, #4]
   818ac:	430a      	orrs	r2, r1
   818ae:	631a      	str	r2, [r3, #48]	; 0x30
   818b0:	f44f 6300 	mov.w	r3, #2048	; 0x800
   818b4:	60fb      	str	r3, [r7, #12]
   818b6:	e007      	b.n	818c8 <pmc_switch_mck_to_pllack+0x3c>
   818b8:	68fb      	ldr	r3, [r7, #12]
   818ba:	2b00      	cmp	r3, #0
   818bc:	d101      	bne.n	818c2 <pmc_switch_mck_to_pllack+0x36>
   818be:	2301      	movs	r3, #1
   818c0:	e02f      	b.n	81922 <pmc_switch_mck_to_pllack+0x96>
   818c2:	68fb      	ldr	r3, [r7, #12]
   818c4:	3b01      	subs	r3, #1
   818c6:	60fb      	str	r3, [r7, #12]
   818c8:	f44f 63c0 	mov.w	r3, #1536	; 0x600
   818cc:	f2c4 030e 	movt	r3, #16398	; 0x400e
   818d0:	6e9b      	ldr	r3, [r3, #104]	; 0x68
   818d2:	f003 0308 	and.w	r3, r3, #8
   818d6:	2b00      	cmp	r3, #0
   818d8:	d0ee      	beq.n	818b8 <pmc_switch_mck_to_pllack+0x2c>
   818da:	f44f 63c0 	mov.w	r3, #1536	; 0x600
   818de:	f2c4 030e 	movt	r3, #16398	; 0x400e
   818e2:	f44f 62c0 	mov.w	r2, #1536	; 0x600
   818e6:	f2c4 020e 	movt	r2, #16398	; 0x400e
   818ea:	6b12      	ldr	r2, [r2, #48]	; 0x30
   818ec:	f022 0203 	bic.w	r2, r2, #3
   818f0:	f042 0202 	orr.w	r2, r2, #2
   818f4:	631a      	str	r2, [r3, #48]	; 0x30
   818f6:	f44f 6300 	mov.w	r3, #2048	; 0x800
   818fa:	60fb      	str	r3, [r7, #12]
   818fc:	e007      	b.n	8190e <pmc_switch_mck_to_pllack+0x82>
   818fe:	68fb      	ldr	r3, [r7, #12]
   81900:	2b00      	cmp	r3, #0
   81902:	d101      	bne.n	81908 <pmc_switch_mck_to_pllack+0x7c>
   81904:	2301      	movs	r3, #1
   81906:	e00c      	b.n	81922 <pmc_switch_mck_to_pllack+0x96>
   81908:	68fb      	ldr	r3, [r7, #12]
   8190a:	3b01      	subs	r3, #1
   8190c:	60fb      	str	r3, [r7, #12]
   8190e:	f44f 63c0 	mov.w	r3, #1536	; 0x600
   81912:	f2c4 030e 	movt	r3, #16398	; 0x400e
   81916:	6e9b      	ldr	r3, [r3, #104]	; 0x68
   81918:	f003 0308 	and.w	r3, r3, #8
   8191c:	2b00      	cmp	r3, #0
   8191e:	d0ee      	beq.n	818fe <pmc_switch_mck_to_pllack+0x72>
   81920:	2300      	movs	r3, #0
   81922:	4618      	mov	r0, r3
   81924:	3714      	adds	r7, #20
   81926:	46bd      	mov	sp, r7
   81928:	f85d 7b04 	ldr.w	r7, [sp], #4
   8192c:	4770      	bx	lr
   8192e:	bf00      	nop

00081930 <pmc_switch_mck_to_upllck>:
   81930:	b480      	push	{r7}
   81932:	b085      	sub	sp, #20
   81934:	af00      	add	r7, sp, #0
   81936:	6078      	str	r0, [r7, #4]
   81938:	f44f 63c0 	mov.w	r3, #1536	; 0x600
   8193c:	f2c4 030e 	movt	r3, #16398	; 0x400e
   81940:	f44f 62c0 	mov.w	r2, #1536	; 0x600
   81944:	f2c4 020e 	movt	r2, #16398	; 0x400e
   81948:	6b12      	ldr	r2, [r2, #48]	; 0x30
   8194a:	f022 0170 	bic.w	r1, r2, #112	; 0x70
   8194e:	687a      	ldr	r2, [r7, #4]
   81950:	430a      	orrs	r2, r1
   81952:	631a      	str	r2, [r3, #48]	; 0x30
   81954:	f44f 6300 	mov.w	r3, #2048	; 0x800
   81958:	60fb      	str	r3, [r7, #12]
   8195a:	e007      	b.n	8196c <pmc_switch_mck_to_upllck+0x3c>
   8195c:	68fb      	ldr	r3, [r7, #12]
   8195e:	2b00      	cmp	r3, #0
   81960:	d101      	bne.n	81966 <pmc_switch_mck_to_upllck+0x36>
   81962:	2301      	movs	r3, #1
   81964:	e02d      	b.n	819c2 <pmc_switch_mck_to_upllck+0x92>
   81966:	68fb      	ldr	r3, [r7, #12]
   81968:	3b01      	subs	r3, #1
   8196a:	60fb      	str	r3, [r7, #12]
   8196c:	f44f 63c0 	mov.w	r3, #1536	; 0x600
   81970:	f2c4 030e 	movt	r3, #16398	; 0x400e
   81974:	6e9b      	ldr	r3, [r3, #104]	; 0x68
   81976:	f003 0308 	and.w	r3, r3, #8
   8197a:	2b00      	cmp	r3, #0
   8197c:	d0ee      	beq.n	8195c <pmc_switch_mck_to_upllck+0x2c>
   8197e:	f44f 63c0 	mov.w	r3, #1536	; 0x600
   81982:	f2c4 030e 	movt	r3, #16398	; 0x400e
   81986:	f44f 62c0 	mov.w	r2, #1536	; 0x600
   8198a:	f2c4 020e 	movt	r2, #16398	; 0x400e
   8198e:	6b12      	ldr	r2, [r2, #48]	; 0x30
   81990:	f042 0203 	orr.w	r2, r2, #3
   81994:	631a      	str	r2, [r3, #48]	; 0x30
   81996:	f44f 6300 	mov.w	r3, #2048	; 0x800
   8199a:	60fb      	str	r3, [r7, #12]
   8199c:	e007      	b.n	819ae <pmc_switch_mck_to_upllck+0x7e>
   8199e:	68fb      	ldr	r3, [r7, #12]
   819a0:	2b00      	cmp	r3, #0
   819a2:	d101      	bne.n	819a8 <pmc_switch_mck_to_upllck+0x78>
   819a4:	2301      	movs	r3, #1
   819a6:	e00c      	b.n	819c2 <pmc_switch_mck_to_upllck+0x92>
   819a8:	68fb      	ldr	r3, [r7, #12]
   819aa:	3b01      	subs	r3, #1
   819ac:	60fb      	str	r3, [r7, #12]
   819ae:	f44f 63c0 	mov.w	r3, #1536	; 0x600
   819b2:	f2c4 030e 	movt	r3, #16398	; 0x400e
   819b6:	6e9b      	ldr	r3, [r3, #104]	; 0x68
   819b8:	f003 0308 	and.w	r3, r3, #8
   819bc:	2b00      	cmp	r3, #0
   819be:	d0ee      	beq.n	8199e <pmc_switch_mck_to_upllck+0x6e>
   819c0:	2300      	movs	r3, #0
   819c2:	4618      	mov	r0, r3
   819c4:	3714      	adds	r7, #20
   819c6:	46bd      	mov	sp, r7
   819c8:	f85d 7b04 	ldr.w	r7, [sp], #4
   819cc:	4770      	bx	lr
   819ce:	bf00      	nop

000819d0 <pmc_switch_sclk_to_32kxtal>:
   819d0:	b480      	push	{r7}
   819d2:	b083      	sub	sp, #12
   819d4:	af00      	add	r7, sp, #0
   819d6:	6078      	str	r0, [r7, #4]
   819d8:	687b      	ldr	r3, [r7, #4]
   819da:	2b01      	cmp	r3, #1
   819dc:	d10d      	bne.n	819fa <pmc_switch_sclk_to_32kxtal+0x2a>
   819de:	f641 2310 	movw	r3, #6672	; 0x1a10
   819e2:	f2c4 030e 	movt	r3, #16398	; 0x400e
   819e6:	f641 2210 	movw	r2, #6672	; 0x1a10
   819ea:	f2c4 020e 	movt	r2, #16398	; 0x400e
   819ee:	6892      	ldr	r2, [r2, #8]
   819f0:	f042 4225 	orr.w	r2, r2, #2768240640	; 0xa5000000
   819f4:	f442 1280 	orr.w	r2, r2, #1048576	; 0x100000
   819f8:	609a      	str	r2, [r3, #8]
   819fa:	f641 2310 	movw	r3, #6672	; 0x1a10
   819fe:	f2c4 030e 	movt	r3, #16398	; 0x400e
   81a02:	2208      	movs	r2, #8
   81a04:	f2ca 5200 	movt	r2, #42240	; 0xa500
   81a08:	601a      	str	r2, [r3, #0]
   81a0a:	370c      	adds	r7, #12
   81a0c:	46bd      	mov	sp, r7
   81a0e:	f85d 7b04 	ldr.w	r7, [sp], #4
   81a12:	4770      	bx	lr

00081a14 <pmc_osc_is_ready_32kxtal>:
   81a14:	b480      	push	{r7}
   81a16:	af00      	add	r7, sp, #0
   81a18:	f641 2310 	movw	r3, #6672	; 0x1a10
   81a1c:	f2c4 030e 	movt	r3, #16398	; 0x400e
   81a20:	695b      	ldr	r3, [r3, #20]
   81a22:	f003 0380 	and.w	r3, r3, #128	; 0x80
   81a26:	2b00      	cmp	r3, #0
   81a28:	d00a      	beq.n	81a40 <pmc_osc_is_ready_32kxtal+0x2c>
   81a2a:	f44f 63c0 	mov.w	r3, #1536	; 0x600
   81a2e:	f2c4 030e 	movt	r3, #16398	; 0x400e
   81a32:	6e9b      	ldr	r3, [r3, #104]	; 0x68
   81a34:	f003 0380 	and.w	r3, r3, #128	; 0x80
   81a38:	2b00      	cmp	r3, #0
   81a3a:	d001      	beq.n	81a40 <pmc_osc_is_ready_32kxtal+0x2c>
   81a3c:	2301      	movs	r3, #1
   81a3e:	e000      	b.n	81a42 <pmc_osc_is_ready_32kxtal+0x2e>
   81a40:	2300      	movs	r3, #0
   81a42:	4618      	mov	r0, r3
   81a44:	46bd      	mov	sp, r7
   81a46:	f85d 7b04 	ldr.w	r7, [sp], #4
   81a4a:	4770      	bx	lr

00081a4c <pmc_switch_mainck_to_fastrc>:
   81a4c:	b480      	push	{r7}
   81a4e:	b083      	sub	sp, #12
   81a50:	af00      	add	r7, sp, #0
   81a52:	6078      	str	r0, [r7, #4]
   81a54:	f44f 63c0 	mov.w	r3, #1536	; 0x600
   81a58:	f2c4 030e 	movt	r3, #16398	; 0x400e
   81a5c:	f44f 62c0 	mov.w	r2, #1536	; 0x600
   81a60:	f2c4 020e 	movt	r2, #16398	; 0x400e
   81a64:	6a12      	ldr	r2, [r2, #32]
   81a66:	f442 125c 	orr.w	r2, r2, #3604480	; 0x370000
   81a6a:	f042 0208 	orr.w	r2, r2, #8
   81a6e:	621a      	str	r2, [r3, #32]
   81a70:	bf00      	nop
   81a72:	f44f 63c0 	mov.w	r3, #1536	; 0x600
   81a76:	f2c4 030e 	movt	r3, #16398	; 0x400e
   81a7a:	6e9b      	ldr	r3, [r3, #104]	; 0x68
   81a7c:	f403 3300 	and.w	r3, r3, #131072	; 0x20000
   81a80:	2b00      	cmp	r3, #0
   81a82:	d0f6      	beq.n	81a72 <pmc_switch_mainck_to_fastrc+0x26>
   81a84:	f44f 63c0 	mov.w	r3, #1536	; 0x600
   81a88:	f2c4 030e 	movt	r3, #16398	; 0x400e
   81a8c:	f44f 62c0 	mov.w	r2, #1536	; 0x600
   81a90:	f2c4 020e 	movt	r2, #16398	; 0x400e
   81a94:	6a12      	ldr	r2, [r2, #32]
   81a96:	f422 125c 	bic.w	r2, r2, #3604480	; 0x370000
   81a9a:	f022 0270 	bic.w	r2, r2, #112	; 0x70
   81a9e:	6879      	ldr	r1, [r7, #4]
   81aa0:	430a      	orrs	r2, r1
   81aa2:	f442 125c 	orr.w	r2, r2, #3604480	; 0x370000
   81aa6:	621a      	str	r2, [r3, #32]
   81aa8:	bf00      	nop
   81aaa:	f44f 63c0 	mov.w	r3, #1536	; 0x600
   81aae:	f2c4 030e 	movt	r3, #16398	; 0x400e
   81ab2:	6e9b      	ldr	r3, [r3, #104]	; 0x68
   81ab4:	f403 3300 	and.w	r3, r3, #131072	; 0x20000
   81ab8:	2b00      	cmp	r3, #0
   81aba:	d0f6      	beq.n	81aaa <pmc_switch_mainck_to_fastrc+0x5e>
   81abc:	f44f 63c0 	mov.w	r3, #1536	; 0x600
   81ac0:	f2c4 030e 	movt	r3, #16398	; 0x400e
   81ac4:	f44f 62c0 	mov.w	r2, #1536	; 0x600
   81ac8:	f2c4 020e 	movt	r2, #16398	; 0x400e
   81acc:	6a12      	ldr	r2, [r2, #32]
   81ace:	f022 729b 	bic.w	r2, r2, #20316160	; 0x1360000
   81ad2:	f422 3280 	bic.w	r2, r2, #65536	; 0x10000
   81ad6:	f442 125c 	orr.w	r2, r2, #3604480	; 0x370000
   81ada:	621a      	str	r2, [r3, #32]
   81adc:	370c      	adds	r7, #12
   81ade:	46bd      	mov	sp, r7
   81ae0:	f85d 7b04 	ldr.w	r7, [sp], #4
   81ae4:	4770      	bx	lr
   81ae6:	bf00      	nop

00081ae8 <pmc_osc_enable_fastrc>:
   81ae8:	b480      	push	{r7}
   81aea:	b083      	sub	sp, #12
   81aec:	af00      	add	r7, sp, #0
   81aee:	6078      	str	r0, [r7, #4]
   81af0:	f44f 63c0 	mov.w	r3, #1536	; 0x600
   81af4:	f2c4 030e 	movt	r3, #16398	; 0x400e
   81af8:	f44f 62c0 	mov.w	r2, #1536	; 0x600
   81afc:	f2c4 020e 	movt	r2, #16398	; 0x400e
   81b00:	6a12      	ldr	r2, [r2, #32]
   81b02:	f442 125c 	orr.w	r2, r2, #3604480	; 0x370000
   81b06:	f042 0208 	orr.w	r2, r2, #8
   81b0a:	621a      	str	r2, [r3, #32]
   81b0c:	bf00      	nop
   81b0e:	f44f 63c0 	mov.w	r3, #1536	; 0x600
   81b12:	f2c4 030e 	movt	r3, #16398	; 0x400e
   81b16:	6e9b      	ldr	r3, [r3, #104]	; 0x68
   81b18:	f403 3300 	and.w	r3, r3, #131072	; 0x20000
   81b1c:	2b00      	cmp	r3, #0
   81b1e:	d0f6      	beq.n	81b0e <pmc_osc_enable_fastrc+0x26>
   81b20:	f44f 63c0 	mov.w	r3, #1536	; 0x600
   81b24:	f2c4 030e 	movt	r3, #16398	; 0x400e
   81b28:	f44f 62c0 	mov.w	r2, #1536	; 0x600
   81b2c:	f2c4 020e 	movt	r2, #16398	; 0x400e
   81b30:	6a12      	ldr	r2, [r2, #32]
   81b32:	f422 125c 	bic.w	r2, r2, #3604480	; 0x370000
   81b36:	f022 0270 	bic.w	r2, r2, #112	; 0x70
   81b3a:	6879      	ldr	r1, [r7, #4]
   81b3c:	430a      	orrs	r2, r1
   81b3e:	f442 125c 	orr.w	r2, r2, #3604480	; 0x370000
   81b42:	621a      	str	r2, [r3, #32]
   81b44:	bf00      	nop
   81b46:	f44f 63c0 	mov.w	r3, #1536	; 0x600
   81b4a:	f2c4 030e 	movt	r3, #16398	; 0x400e
   81b4e:	6e9b      	ldr	r3, [r3, #104]	; 0x68
   81b50:	f403 3300 	and.w	r3, r3, #131072	; 0x20000
   81b54:	2b00      	cmp	r3, #0
   81b56:	d0f6      	beq.n	81b46 <pmc_osc_enable_fastrc+0x5e>
   81b58:	370c      	adds	r7, #12
   81b5a:	46bd      	mov	sp, r7
   81b5c:	f85d 7b04 	ldr.w	r7, [sp], #4
   81b60:	4770      	bx	lr
   81b62:	bf00      	nop

00081b64 <pmc_osc_disable_fastrc>:
   81b64:	b480      	push	{r7}
   81b66:	af00      	add	r7, sp, #0
   81b68:	f44f 63c0 	mov.w	r3, #1536	; 0x600
   81b6c:	f2c4 030e 	movt	r3, #16398	; 0x400e
   81b70:	f44f 62c0 	mov.w	r2, #1536	; 0x600
   81b74:	f2c4 020e 	movt	r2, #16398	; 0x400e
   81b78:	6a12      	ldr	r2, [r2, #32]
   81b7a:	f422 125c 	bic.w	r2, r2, #3604480	; 0x370000
   81b7e:	f022 0278 	bic.w	r2, r2, #120	; 0x78
   81b82:	f442 125c 	orr.w	r2, r2, #3604480	; 0x370000
   81b86:	621a      	str	r2, [r3, #32]
   81b88:	46bd      	mov	sp, r7
   81b8a:	f85d 7b04 	ldr.w	r7, [sp], #4
   81b8e:	4770      	bx	lr

00081b90 <pmc_osc_is_ready_fastrc>:
   81b90:	b480      	push	{r7}
   81b92:	af00      	add	r7, sp, #0
   81b94:	f44f 63c0 	mov.w	r3, #1536	; 0x600
   81b98:	f2c4 030e 	movt	r3, #16398	; 0x400e
   81b9c:	6e9b      	ldr	r3, [r3, #104]	; 0x68
   81b9e:	f403 3300 	and.w	r3, r3, #131072	; 0x20000
   81ba2:	4618      	mov	r0, r3
   81ba4:	46bd      	mov	sp, r7
   81ba6:	f85d 7b04 	ldr.w	r7, [sp], #4
   81baa:	4770      	bx	lr

00081bac <pmc_osc_enable_main_xtal>:
   81bac:	b480      	push	{r7}
   81bae:	b085      	sub	sp, #20
   81bb0:	af00      	add	r7, sp, #0
   81bb2:	6078      	str	r0, [r7, #4]
   81bb4:	f44f 63c0 	mov.w	r3, #1536	; 0x600
   81bb8:	f2c4 030e 	movt	r3, #16398	; 0x400e
   81bbc:	6a1b      	ldr	r3, [r3, #32]
   81bbe:	60fb      	str	r3, [r7, #12]
   81bc0:	68fb      	ldr	r3, [r7, #12]
   81bc2:	f023 0303 	bic.w	r3, r3, #3
   81bc6:	60fb      	str	r3, [r7, #12]
   81bc8:	687b      	ldr	r3, [r7, #4]
   81bca:	021b      	lsls	r3, r3, #8
   81bcc:	b29a      	uxth	r2, r3
   81bce:	68fb      	ldr	r3, [r7, #12]
   81bd0:	4313      	orrs	r3, r2
   81bd2:	f443 135c 	orr.w	r3, r3, #3604480	; 0x370000
   81bd6:	f043 0301 	orr.w	r3, r3, #1
   81bda:	60fb      	str	r3, [r7, #12]
   81bdc:	f44f 63c0 	mov.w	r3, #1536	; 0x600
   81be0:	f2c4 030e 	movt	r3, #16398	; 0x400e
   81be4:	68fa      	ldr	r2, [r7, #12]
   81be6:	621a      	str	r2, [r3, #32]
   81be8:	bf00      	nop
   81bea:	f44f 63c0 	mov.w	r3, #1536	; 0x600
   81bee:	f2c4 030e 	movt	r3, #16398	; 0x400e
   81bf2:	6e9b      	ldr	r3, [r3, #104]	; 0x68
   81bf4:	f003 0301 	and.w	r3, r3, #1
   81bf8:	2b00      	cmp	r3, #0
   81bfa:	d0f6      	beq.n	81bea <pmc_osc_enable_main_xtal+0x3e>
   81bfc:	3714      	adds	r7, #20
   81bfe:	46bd      	mov	sp, r7
   81c00:	f85d 7b04 	ldr.w	r7, [sp], #4
   81c04:	4770      	bx	lr
   81c06:	bf00      	nop

00081c08 <pmc_osc_bypass_main_xtal>:
   81c08:	b480      	push	{r7}
   81c0a:	b083      	sub	sp, #12
   81c0c:	af00      	add	r7, sp, #0
   81c0e:	f44f 63c0 	mov.w	r3, #1536	; 0x600
   81c12:	f2c4 030e 	movt	r3, #16398	; 0x400e
   81c16:	6a1b      	ldr	r3, [r3, #32]
   81c18:	607b      	str	r3, [r7, #4]
   81c1a:	687b      	ldr	r3, [r7, #4]
   81c1c:	f023 0303 	bic.w	r3, r3, #3
   81c20:	607b      	str	r3, [r7, #4]
   81c22:	687b      	ldr	r3, [r7, #4]
   81c24:	f443 135c 	orr.w	r3, r3, #3604480	; 0x370000
   81c28:	f043 0302 	orr.w	r3, r3, #2
   81c2c:	607b      	str	r3, [r7, #4]
   81c2e:	f44f 63c0 	mov.w	r3, #1536	; 0x600
   81c32:	f2c4 030e 	movt	r3, #16398	; 0x400e
   81c36:	687a      	ldr	r2, [r7, #4]
   81c38:	621a      	str	r2, [r3, #32]
   81c3a:	370c      	adds	r7, #12
   81c3c:	46bd      	mov	sp, r7
   81c3e:	f85d 7b04 	ldr.w	r7, [sp], #4
   81c42:	4770      	bx	lr

00081c44 <pmc_osc_disable_main_xtal>:
   81c44:	b480      	push	{r7}
   81c46:	b083      	sub	sp, #12
   81c48:	af00      	add	r7, sp, #0
   81c4a:	f44f 63c0 	mov.w	r3, #1536	; 0x600
   81c4e:	f2c4 030e 	movt	r3, #16398	; 0x400e
   81c52:	6a1b      	ldr	r3, [r3, #32]
   81c54:	607b      	str	r3, [r7, #4]
   81c56:	687b      	ldr	r3, [r7, #4]
   81c58:	f023 0303 	bic.w	r3, r3, #3
   81c5c:	607b      	str	r3, [r7, #4]
   81c5e:	f44f 63c0 	mov.w	r3, #1536	; 0x600
   81c62:	f2c4 030e 	movt	r3, #16398	; 0x400e
   81c66:	687a      	ldr	r2, [r7, #4]
   81c68:	f442 125c 	orr.w	r2, r2, #3604480	; 0x370000
   81c6c:	621a      	str	r2, [r3, #32]
   81c6e:	370c      	adds	r7, #12
   81c70:	46bd      	mov	sp, r7
   81c72:	f85d 7b04 	ldr.w	r7, [sp], #4
   81c76:	4770      	bx	lr

00081c78 <pmc_osc_is_bypassed_main_xtal>:
   81c78:	b480      	push	{r7}
   81c7a:	af00      	add	r7, sp, #0
   81c7c:	f44f 63c0 	mov.w	r3, #1536	; 0x600
   81c80:	f2c4 030e 	movt	r3, #16398	; 0x400e
   81c84:	6a1b      	ldr	r3, [r3, #32]
   81c86:	f003 0302 	and.w	r3, r3, #2
   81c8a:	4618      	mov	r0, r3
   81c8c:	46bd      	mov	sp, r7
   81c8e:	f85d 7b04 	ldr.w	r7, [sp], #4
   81c92:	4770      	bx	lr

00081c94 <pmc_osc_is_ready_main_xtal>:
   81c94:	b480      	push	{r7}
   81c96:	af00      	add	r7, sp, #0
   81c98:	f44f 63c0 	mov.w	r3, #1536	; 0x600
   81c9c:	f2c4 030e 	movt	r3, #16398	; 0x400e
   81ca0:	6e9b      	ldr	r3, [r3, #104]	; 0x68
   81ca2:	f003 0301 	and.w	r3, r3, #1
   81ca6:	4618      	mov	r0, r3
   81ca8:	46bd      	mov	sp, r7
   81caa:	f85d 7b04 	ldr.w	r7, [sp], #4
   81cae:	4770      	bx	lr

00081cb0 <pmc_switch_mainck_to_xtal>:
   81cb0:	b480      	push	{r7}
   81cb2:	b083      	sub	sp, #12
   81cb4:	af00      	add	r7, sp, #0
   81cb6:	6078      	str	r0, [r7, #4]
   81cb8:	6039      	str	r1, [r7, #0]
   81cba:	687b      	ldr	r3, [r7, #4]
   81cbc:	2b00      	cmp	r3, #0
   81cbe:	d013      	beq.n	81ce8 <pmc_switch_mainck_to_xtal+0x38>
   81cc0:	f44f 61c0 	mov.w	r1, #1536	; 0x600
   81cc4:	f2c4 010e 	movt	r1, #16398	; 0x400e
   81cc8:	f44f 63c0 	mov.w	r3, #1536	; 0x600
   81ccc:	f2c4 030e 	movt	r3, #16398	; 0x400e
   81cd0:	6a1b      	ldr	r3, [r3, #32]
   81cd2:	f64f 72fc 	movw	r2, #65532	; 0xfffc
   81cd6:	f6cf 62c8 	movt	r2, #65224	; 0xfec8
   81cda:	401a      	ands	r2, r3
   81cdc:	2302      	movs	r3, #2
   81cde:	f2c0 1337 	movt	r3, #311	; 0x137
   81ce2:	4313      	orrs	r3, r2
   81ce4:	620b      	str	r3, [r1, #32]
   81ce6:	e02d      	b.n	81d44 <pmc_switch_mainck_to_xtal+0x94>
   81ce8:	f44f 63c0 	mov.w	r3, #1536	; 0x600
   81cec:	f2c4 030e 	movt	r3, #16398	; 0x400e
   81cf0:	f44f 62c0 	mov.w	r2, #1536	; 0x600
   81cf4:	f2c4 020e 	movt	r2, #16398	; 0x400e
   81cf8:	6a12      	ldr	r2, [r2, #32]
   81cfa:	f422 125c 	bic.w	r2, r2, #3604480	; 0x370000
   81cfe:	f022 0203 	bic.w	r2, r2, #3
   81d02:	6839      	ldr	r1, [r7, #0]
   81d04:	0209      	lsls	r1, r1, #8
   81d06:	b289      	uxth	r1, r1
   81d08:	430a      	orrs	r2, r1
   81d0a:	f442 125c 	orr.w	r2, r2, #3604480	; 0x370000
   81d0e:	f042 0201 	orr.w	r2, r2, #1
   81d12:	621a      	str	r2, [r3, #32]
   81d14:	bf00      	nop
   81d16:	f44f 63c0 	mov.w	r3, #1536	; 0x600
   81d1a:	f2c4 030e 	movt	r3, #16398	; 0x400e
   81d1e:	6e9b      	ldr	r3, [r3, #104]	; 0x68
   81d20:	f003 0301 	and.w	r3, r3, #1
   81d24:	2b00      	cmp	r3, #0
   81d26:	d0f6      	beq.n	81d16 <pmc_switch_mainck_to_xtal+0x66>
   81d28:	f44f 63c0 	mov.w	r3, #1536	; 0x600
   81d2c:	f2c4 030e 	movt	r3, #16398	; 0x400e
   81d30:	f44f 62c0 	mov.w	r2, #1536	; 0x600
   81d34:	f2c4 020e 	movt	r2, #16398	; 0x400e
   81d38:	6a12      	ldr	r2, [r2, #32]
   81d3a:	f042 729b 	orr.w	r2, r2, #20316160	; 0x1360000
   81d3e:	f442 3280 	orr.w	r2, r2, #65536	; 0x10000
   81d42:	621a      	str	r2, [r3, #32]
   81d44:	370c      	adds	r7, #12
   81d46:	46bd      	mov	sp, r7
   81d48:	f85d 7b04 	ldr.w	r7, [sp], #4
   81d4c:	4770      	bx	lr
   81d4e:	bf00      	nop

00081d50 <pmc_osc_disable_xtal>:
   81d50:	b480      	push	{r7}
   81d52:	b083      	sub	sp, #12
   81d54:	af00      	add	r7, sp, #0
   81d56:	6078      	str	r0, [r7, #4]
   81d58:	687b      	ldr	r3, [r7, #4]
   81d5a:	2b00      	cmp	r3, #0
   81d5c:	d010      	beq.n	81d80 <pmc_osc_disable_xtal+0x30>
   81d5e:	f44f 63c0 	mov.w	r3, #1536	; 0x600
   81d62:	f2c4 030e 	movt	r3, #16398	; 0x400e
   81d66:	f44f 62c0 	mov.w	r2, #1536	; 0x600
   81d6a:	f2c4 020e 	movt	r2, #16398	; 0x400e
   81d6e:	6a12      	ldr	r2, [r2, #32]
   81d70:	f422 125c 	bic.w	r2, r2, #3604480	; 0x370000
   81d74:	f022 0202 	bic.w	r2, r2, #2
   81d78:	f442 125c 	orr.w	r2, r2, #3604480	; 0x370000
   81d7c:	621a      	str	r2, [r3, #32]
   81d7e:	e00f      	b.n	81da0 <pmc_osc_disable_xtal+0x50>
   81d80:	f44f 63c0 	mov.w	r3, #1536	; 0x600
   81d84:	f2c4 030e 	movt	r3, #16398	; 0x400e
   81d88:	f44f 62c0 	mov.w	r2, #1536	; 0x600
   81d8c:	f2c4 020e 	movt	r2, #16398	; 0x400e
   81d90:	6a12      	ldr	r2, [r2, #32]
   81d92:	f422 125c 	bic.w	r2, r2, #3604480	; 0x370000
   81d96:	f022 0201 	bic.w	r2, r2, #1
   81d9a:	f442 125c 	orr.w	r2, r2, #3604480	; 0x370000
   81d9e:	621a      	str	r2, [r3, #32]
   81da0:	370c      	adds	r7, #12
   81da2:	46bd      	mov	sp, r7
   81da4:	f85d 7b04 	ldr.w	r7, [sp], #4
   81da8:	4770      	bx	lr
   81daa:	bf00      	nop

00081dac <pmc_osc_is_ready_mainck>:
   81dac:	b480      	push	{r7}
   81dae:	af00      	add	r7, sp, #0
   81db0:	f44f 63c0 	mov.w	r3, #1536	; 0x600
   81db4:	f2c4 030e 	movt	r3, #16398	; 0x400e
   81db8:	6e9b      	ldr	r3, [r3, #104]	; 0x68
   81dba:	f403 3380 	and.w	r3, r3, #65536	; 0x10000
   81dbe:	4618      	mov	r0, r3
   81dc0:	46bd      	mov	sp, r7
   81dc2:	f85d 7b04 	ldr.w	r7, [sp], #4
   81dc6:	4770      	bx	lr

00081dc8 <pmc_mainck_osc_select>:
   81dc8:	b480      	push	{r7}
   81dca:	b085      	sub	sp, #20
   81dcc:	af00      	add	r7, sp, #0
   81dce:	6078      	str	r0, [r7, #4]
   81dd0:	f44f 63c0 	mov.w	r3, #1536	; 0x600
   81dd4:	f2c4 030e 	movt	r3, #16398	; 0x400e
   81dd8:	6a1b      	ldr	r3, [r3, #32]
   81dda:	60fb      	str	r3, [r7, #12]
   81ddc:	687b      	ldr	r3, [r7, #4]
   81dde:	2b00      	cmp	r3, #0
   81de0:	d004      	beq.n	81dec <pmc_mainck_osc_select+0x24>
   81de2:	68fb      	ldr	r3, [r7, #12]
   81de4:	f043 7380 	orr.w	r3, r3, #16777216	; 0x1000000
   81de8:	60fb      	str	r3, [r7, #12]
   81dea:	e003      	b.n	81df4 <pmc_mainck_osc_select+0x2c>
   81dec:	68fb      	ldr	r3, [r7, #12]
   81dee:	f023 7380 	bic.w	r3, r3, #16777216	; 0x1000000
   81df2:	60fb      	str	r3, [r7, #12]
   81df4:	f44f 63c0 	mov.w	r3, #1536	; 0x600
   81df8:	f2c4 030e 	movt	r3, #16398	; 0x400e
   81dfc:	68fa      	ldr	r2, [r7, #12]
   81dfe:	f442 125c 	orr.w	r2, r2, #3604480	; 0x370000
   81e02:	621a      	str	r2, [r3, #32]
   81e04:	3714      	adds	r7, #20
   81e06:	46bd      	mov	sp, r7
   81e08:	f85d 7b04 	ldr.w	r7, [sp], #4
   81e0c:	4770      	bx	lr
   81e0e:	bf00      	nop

00081e10 <pmc_enable_pllack>:
   81e10:	b580      	push	{r7, lr}
   81e12:	b084      	sub	sp, #16
   81e14:	af00      	add	r7, sp, #0
   81e16:	60f8      	str	r0, [r7, #12]
   81e18:	60b9      	str	r1, [r7, #8]
   81e1a:	607a      	str	r2, [r7, #4]
   81e1c:	f000 f822 	bl	81e64 <pmc_disable_pllack>
   81e20:	f44f 62c0 	mov.w	r2, #1536	; 0x600
   81e24:	f2c4 020e 	movt	r2, #16398	; 0x400e
   81e28:	687b      	ldr	r3, [r7, #4]
   81e2a:	b2d9      	uxtb	r1, r3
   81e2c:	68bb      	ldr	r3, [r7, #8]
   81e2e:	021b      	lsls	r3, r3, #8
   81e30:	f403 537c 	and.w	r3, r3, #16128	; 0x3f00
   81e34:	4319      	orrs	r1, r3
   81e36:	68fb      	ldr	r3, [r7, #12]
   81e38:	0418      	lsls	r0, r3, #16
   81e3a:	2300      	movs	r3, #0
   81e3c:	f2c0 73ff 	movt	r3, #2047	; 0x7ff
   81e40:	4003      	ands	r3, r0
   81e42:	430b      	orrs	r3, r1
   81e44:	f043 5300 	orr.w	r3, r3, #536870912	; 0x20000000
   81e48:	6293      	str	r3, [r2, #40]	; 0x28
   81e4a:	bf00      	nop
   81e4c:	f44f 63c0 	mov.w	r3, #1536	; 0x600
   81e50:	f2c4 030e 	movt	r3, #16398	; 0x400e
   81e54:	6e9b      	ldr	r3, [r3, #104]	; 0x68
   81e56:	f003 0302 	and.w	r3, r3, #2
   81e5a:	2b00      	cmp	r3, #0
   81e5c:	d0f6      	beq.n	81e4c <pmc_enable_pllack+0x3c>
   81e5e:	3710      	adds	r7, #16
   81e60:	46bd      	mov	sp, r7
   81e62:	bd80      	pop	{r7, pc}

00081e64 <pmc_disable_pllack>:
   81e64:	b480      	push	{r7}
   81e66:	af00      	add	r7, sp, #0
   81e68:	f44f 63c0 	mov.w	r3, #1536	; 0x600
   81e6c:	f2c4 030e 	movt	r3, #16398	; 0x400e
   81e70:	f04f 5200 	mov.w	r2, #536870912	; 0x20000000
   81e74:	629a      	str	r2, [r3, #40]	; 0x28
   81e76:	46bd      	mov	sp, r7
   81e78:	f85d 7b04 	ldr.w	r7, [sp], #4
   81e7c:	4770      	bx	lr
   81e7e:	bf00      	nop

00081e80 <pmc_is_locked_pllack>:
   81e80:	b480      	push	{r7}
   81e82:	af00      	add	r7, sp, #0
   81e84:	f44f 63c0 	mov.w	r3, #1536	; 0x600
   81e88:	f2c4 030e 	movt	r3, #16398	; 0x400e
   81e8c:	6e9b      	ldr	r3, [r3, #104]	; 0x68
   81e8e:	f003 0302 	and.w	r3, r3, #2
   81e92:	4618      	mov	r0, r3
   81e94:	46bd      	mov	sp, r7
   81e96:	f85d 7b04 	ldr.w	r7, [sp], #4
   81e9a:	4770      	bx	lr

00081e9c <pmc_enable_upll_clock>:
   81e9c:	b480      	push	{r7}
   81e9e:	af00      	add	r7, sp, #0
   81ea0:	f44f 63c0 	mov.w	r3, #1536	; 0x600
   81ea4:	f2c4 030e 	movt	r3, #16398	; 0x400e
   81ea8:	f44f 1244 	mov.w	r2, #3211264	; 0x310000
   81eac:	61da      	str	r2, [r3, #28]
   81eae:	bf00      	nop
   81eb0:	f44f 63c0 	mov.w	r3, #1536	; 0x600
   81eb4:	f2c4 030e 	movt	r3, #16398	; 0x400e
   81eb8:	6e9b      	ldr	r3, [r3, #104]	; 0x68
   81eba:	f003 0340 	and.w	r3, r3, #64	; 0x40
   81ebe:	2b00      	cmp	r3, #0
   81ec0:	d0f6      	beq.n	81eb0 <pmc_enable_upll_clock+0x14>
   81ec2:	46bd      	mov	sp, r7
   81ec4:	f85d 7b04 	ldr.w	r7, [sp], #4
   81ec8:	4770      	bx	lr
   81eca:	bf00      	nop

00081ecc <pmc_disable_upll_clock>:
   81ecc:	b480      	push	{r7}
   81ece:	af00      	add	r7, sp, #0
   81ed0:	f44f 63c0 	mov.w	r3, #1536	; 0x600
   81ed4:	f2c4 030e 	movt	r3, #16398	; 0x400e
   81ed8:	f44f 62c0 	mov.w	r2, #1536	; 0x600
   81edc:	f2c4 020e 	movt	r2, #16398	; 0x400e
   81ee0:	69d2      	ldr	r2, [r2, #28]
   81ee2:	f422 3280 	bic.w	r2, r2, #65536	; 0x10000
   81ee6:	61da      	str	r2, [r3, #28]
   81ee8:	46bd      	mov	sp, r7
   81eea:	f85d 7b04 	ldr.w	r7, [sp], #4
   81eee:	4770      	bx	lr

00081ef0 <pmc_is_locked_upll>:
   81ef0:	b480      	push	{r7}
   81ef2:	af00      	add	r7, sp, #0
   81ef4:	f44f 63c0 	mov.w	r3, #1536	; 0x600
   81ef8:	f2c4 030e 	movt	r3, #16398	; 0x400e
   81efc:	6e9b      	ldr	r3, [r3, #104]	; 0x68
   81efe:	f003 0340 	and.w	r3, r3, #64	; 0x40
   81f02:	4618      	mov	r0, r3
   81f04:	46bd      	mov	sp, r7
   81f06:	f85d 7b04 	ldr.w	r7, [sp], #4
   81f0a:	4770      	bx	lr

00081f0c <pmc_enable_periph_clk>:
   81f0c:	b480      	push	{r7}
   81f0e:	b083      	sub	sp, #12
   81f10:	af00      	add	r7, sp, #0
   81f12:	6078      	str	r0, [r7, #4]
   81f14:	687b      	ldr	r3, [r7, #4]
   81f16:	2b2c      	cmp	r3, #44	; 0x2c
   81f18:	d901      	bls.n	81f1e <pmc_enable_periph_clk+0x12>
   81f1a:	2301      	movs	r3, #1
   81f1c:	e03b      	b.n	81f96 <pmc_enable_periph_clk+0x8a>
   81f1e:	687b      	ldr	r3, [r7, #4]
   81f20:	2b1f      	cmp	r3, #31
   81f22:	d819      	bhi.n	81f58 <pmc_enable_periph_clk+0x4c>
   81f24:	f44f 63c0 	mov.w	r3, #1536	; 0x600
   81f28:	f2c4 030e 	movt	r3, #16398	; 0x400e
   81f2c:	699a      	ldr	r2, [r3, #24]
   81f2e:	687b      	ldr	r3, [r7, #4]
   81f30:	2101      	movs	r1, #1
   81f32:	fa01 f303 	lsl.w	r3, r1, r3
   81f36:	401a      	ands	r2, r3
   81f38:	687b      	ldr	r3, [r7, #4]
   81f3a:	2101      	movs	r1, #1
   81f3c:	fa01 f303 	lsl.w	r3, r1, r3
   81f40:	429a      	cmp	r2, r3
   81f42:	d027      	beq.n	81f94 <pmc_enable_periph_clk+0x88>
   81f44:	f44f 63c0 	mov.w	r3, #1536	; 0x600
   81f48:	f2c4 030e 	movt	r3, #16398	; 0x400e
   81f4c:	687a      	ldr	r2, [r7, #4]
   81f4e:	2101      	movs	r1, #1
   81f50:	fa01 f202 	lsl.w	r2, r1, r2
   81f54:	611a      	str	r2, [r3, #16]
   81f56:	e01d      	b.n	81f94 <pmc_enable_periph_clk+0x88>
   81f58:	687b      	ldr	r3, [r7, #4]
   81f5a:	3b20      	subs	r3, #32
   81f5c:	607b      	str	r3, [r7, #4]
   81f5e:	f44f 63c0 	mov.w	r3, #1536	; 0x600
   81f62:	f2c4 030e 	movt	r3, #16398	; 0x400e
   81f66:	f8d3 2108 	ldr.w	r2, [r3, #264]	; 0x108
   81f6a:	687b      	ldr	r3, [r7, #4]
   81f6c:	2101      	movs	r1, #1
   81f6e:	fa01 f303 	lsl.w	r3, r1, r3
   81f72:	401a      	ands	r2, r3
   81f74:	687b      	ldr	r3, [r7, #4]
   81f76:	2101      	movs	r1, #1
   81f78:	fa01 f303 	lsl.w	r3, r1, r3
   81f7c:	429a      	cmp	r2, r3
   81f7e:	d009      	beq.n	81f94 <pmc_enable_periph_clk+0x88>
   81f80:	f44f 63c0 	mov.w	r3, #1536	; 0x600
   81f84:	f2c4 030e 	movt	r3, #16398	; 0x400e
   81f88:	687a      	ldr	r2, [r7, #4]
   81f8a:	2101      	movs	r1, #1
   81f8c:	fa01 f202 	lsl.w	r2, r1, r2
   81f90:	f8c3 2100 	str.w	r2, [r3, #256]	; 0x100
   81f94:	2300      	movs	r3, #0
   81f96:	4618      	mov	r0, r3
   81f98:	370c      	adds	r7, #12
   81f9a:	46bd      	mov	sp, r7
   81f9c:	f85d 7b04 	ldr.w	r7, [sp], #4
   81fa0:	4770      	bx	lr
   81fa2:	bf00      	nop

00081fa4 <pmc_disable_periph_clk>:
   81fa4:	b480      	push	{r7}
   81fa6:	b083      	sub	sp, #12
   81fa8:	af00      	add	r7, sp, #0
   81faa:	6078      	str	r0, [r7, #4]
   81fac:	687b      	ldr	r3, [r7, #4]
   81fae:	2b2c      	cmp	r3, #44	; 0x2c
   81fb0:	d901      	bls.n	81fb6 <pmc_disable_periph_clk+0x12>
   81fb2:	2301      	movs	r3, #1
   81fb4:	e03b      	b.n	8202e <pmc_disable_periph_clk+0x8a>
   81fb6:	687b      	ldr	r3, [r7, #4]
   81fb8:	2b1f      	cmp	r3, #31
   81fba:	d819      	bhi.n	81ff0 <pmc_disable_periph_clk+0x4c>
   81fbc:	f44f 63c0 	mov.w	r3, #1536	; 0x600
   81fc0:	f2c4 030e 	movt	r3, #16398	; 0x400e
   81fc4:	699a      	ldr	r2, [r3, #24]
   81fc6:	687b      	ldr	r3, [r7, #4]
   81fc8:	2101      	movs	r1, #1
   81fca:	fa01 f303 	lsl.w	r3, r1, r3
   81fce:	401a      	ands	r2, r3
   81fd0:	687b      	ldr	r3, [r7, #4]
   81fd2:	2101      	movs	r1, #1
   81fd4:	fa01 f303 	lsl.w	r3, r1, r3
   81fd8:	429a      	cmp	r2, r3
   81fda:	d127      	bne.n	8202c <pmc_disable_periph_clk+0x88>
   81fdc:	f44f 63c0 	mov.w	r3, #1536	; 0x600
   81fe0:	f2c4 030e 	movt	r3, #16398	; 0x400e
   81fe4:	687a      	ldr	r2, [r7, #4]
   81fe6:	2101      	movs	r1, #1
   81fe8:	fa01 f202 	lsl.w	r2, r1, r2
   81fec:	615a      	str	r2, [r3, #20]
   81fee:	e01d      	b.n	8202c <pmc_disable_periph_clk+0x88>
   81ff0:	687b      	ldr	r3, [r7, #4]
   81ff2:	3b20      	subs	r3, #32
   81ff4:	607b      	str	r3, [r7, #4]
   81ff6:	f44f 63c0 	mov.w	r3, #1536	; 0x600
   81ffa:	f2c4 030e 	movt	r3, #16398	; 0x400e
   81ffe:	f8d3 2108 	ldr.w	r2, [r3, #264]	; 0x108
   82002:	687b      	ldr	r3, [r7, #4]
   82004:	2101      	movs	r1, #1
   82006:	fa01 f303 	lsl.w	r3, r1, r3
   8200a:	401a      	ands	r2, r3
   8200c:	687b      	ldr	r3, [r7, #4]
   8200e:	2101      	movs	r1, #1
   82010:	fa01 f303 	lsl.w	r3, r1, r3
   82014:	429a      	cmp	r2, r3
   82016:	d109      	bne.n	8202c <pmc_disable_periph_clk+0x88>
   82018:	f44f 63c0 	mov.w	r3, #1536	; 0x600
   8201c:	f2c4 030e 	movt	r3, #16398	; 0x400e
   82020:	687a      	ldr	r2, [r7, #4]
   82022:	2101      	movs	r1, #1
   82024:	fa01 f202 	lsl.w	r2, r1, r2
   82028:	f8c3 2104 	str.w	r2, [r3, #260]	; 0x104
   8202c:	2300      	movs	r3, #0
   8202e:	4618      	mov	r0, r3
   82030:	370c      	adds	r7, #12
   82032:	46bd      	mov	sp, r7
   82034:	f85d 7b04 	ldr.w	r7, [sp], #4
   82038:	4770      	bx	lr
   8203a:	bf00      	nop

0008203c <pmc_enable_all_periph_clk>:
   8203c:	b480      	push	{r7}
   8203e:	af00      	add	r7, sp, #0
   82040:	f44f 63c0 	mov.w	r3, #1536	; 0x600
   82044:	f2c4 030e 	movt	r3, #16398	; 0x400e
   82048:	f06f 0203 	mvn.w	r2, #3
   8204c:	611a      	str	r2, [r3, #16]
   8204e:	bf00      	nop
   82050:	f44f 63c0 	mov.w	r3, #1536	; 0x600
   82054:	f2c4 030e 	movt	r3, #16398	; 0x400e
   82058:	699b      	ldr	r3, [r3, #24]
   8205a:	f023 0303 	bic.w	r3, r3, #3
   8205e:	f113 0f04 	cmn.w	r3, #4
   82062:	d1f5      	bne.n	82050 <pmc_enable_all_periph_clk+0x14>
   82064:	f44f 63c0 	mov.w	r3, #1536	; 0x600
   82068:	f2c4 030e 	movt	r3, #16398	; 0x400e
   8206c:	f04f 32ff 	mov.w	r2, #4294967295	; 0xffffffff
   82070:	f8c3 2100 	str.w	r2, [r3, #256]	; 0x100
   82074:	bf00      	nop
   82076:	f44f 63c0 	mov.w	r3, #1536	; 0x600
   8207a:	f2c4 030e 	movt	r3, #16398	; 0x400e
   8207e:	f8d3 3108 	ldr.w	r3, [r3, #264]	; 0x108
   82082:	f1b3 3fff 	cmp.w	r3, #4294967295	; 0xffffffff
   82086:	d1f6      	bne.n	82076 <pmc_enable_all_periph_clk+0x3a>
   82088:	46bd      	mov	sp, r7
   8208a:	f85d 7b04 	ldr.w	r7, [sp], #4
   8208e:	4770      	bx	lr

00082090 <pmc_disable_all_periph_clk>:
   82090:	b480      	push	{r7}
   82092:	af00      	add	r7, sp, #0
   82094:	f44f 63c0 	mov.w	r3, #1536	; 0x600
   82098:	f2c4 030e 	movt	r3, #16398	; 0x400e
   8209c:	f06f 0203 	mvn.w	r2, #3
   820a0:	615a      	str	r2, [r3, #20]
   820a2:	bf00      	nop
   820a4:	f44f 63c0 	mov.w	r3, #1536	; 0x600
   820a8:	f2c4 030e 	movt	r3, #16398	; 0x400e
   820ac:	699b      	ldr	r3, [r3, #24]
   820ae:	f023 0303 	bic.w	r3, r3, #3
   820b2:	2b00      	cmp	r3, #0
   820b4:	d1f6      	bne.n	820a4 <pmc_disable_all_periph_clk+0x14>
   820b6:	f44f 63c0 	mov.w	r3, #1536	; 0x600
   820ba:	f2c4 030e 	movt	r3, #16398	; 0x400e
   820be:	f04f 32ff 	mov.w	r2, #4294967295	; 0xffffffff
   820c2:	f8c3 2104 	str.w	r2, [r3, #260]	; 0x104
   820c6:	bf00      	nop
   820c8:	f44f 63c0 	mov.w	r3, #1536	; 0x600
   820cc:	f2c4 030e 	movt	r3, #16398	; 0x400e
   820d0:	f8d3 3108 	ldr.w	r3, [r3, #264]	; 0x108
   820d4:	2b00      	cmp	r3, #0
   820d6:	d1f7      	bne.n	820c8 <pmc_disable_all_periph_clk+0x38>
   820d8:	46bd      	mov	sp, r7
   820da:	f85d 7b04 	ldr.w	r7, [sp], #4
   820de:	4770      	bx	lr

000820e0 <pmc_is_periph_clk_enabled>:
   820e0:	b480      	push	{r7}
   820e2:	b083      	sub	sp, #12
   820e4:	af00      	add	r7, sp, #0
   820e6:	6078      	str	r0, [r7, #4]
   820e8:	687b      	ldr	r3, [r7, #4]
   820ea:	2b2c      	cmp	r3, #44	; 0x2c
   820ec:	d901      	bls.n	820f2 <pmc_is_periph_clk_enabled+0x12>
   820ee:	2300      	movs	r3, #0
   820f0:	e025      	b.n	8213e <pmc_is_periph_clk_enabled+0x5e>
   820f2:	687b      	ldr	r3, [r7, #4]
   820f4:	2b1f      	cmp	r3, #31
   820f6:	d80f      	bhi.n	82118 <pmc_is_periph_clk_enabled+0x38>
   820f8:	f44f 63c0 	mov.w	r3, #1536	; 0x600
   820fc:	f2c4 030e 	movt	r3, #16398	; 0x400e
   82100:	699a      	ldr	r2, [r3, #24]
   82102:	687b      	ldr	r3, [r7, #4]
   82104:	2101      	movs	r1, #1
   82106:	fa01 f303 	lsl.w	r3, r1, r3
   8210a:	4013      	ands	r3, r2
   8210c:	2b00      	cmp	r3, #0
   8210e:	d001      	beq.n	82114 <pmc_is_periph_clk_enabled+0x34>
   82110:	2301      	movs	r3, #1
   82112:	e014      	b.n	8213e <pmc_is_periph_clk_enabled+0x5e>
   82114:	2300      	movs	r3, #0
   82116:	e012      	b.n	8213e <pmc_is_periph_clk_enabled+0x5e>
   82118:	687b      	ldr	r3, [r7, #4]
   8211a:	3b20      	subs	r3, #32
   8211c:	607b      	str	r3, [r7, #4]
   8211e:	f44f 63c0 	mov.w	r3, #1536	; 0x600
   82122:	f2c4 030e 	movt	r3, #16398	; 0x400e
   82126:	f8d3 2108 	ldr.w	r2, [r3, #264]	; 0x108
   8212a:	687b      	ldr	r3, [r7, #4]
   8212c:	2101      	movs	r1, #1
   8212e:	fa01 f303 	lsl.w	r3, r1, r3
   82132:	4013      	ands	r3, r2
   82134:	2b00      	cmp	r3, #0
   82136:	d001      	beq.n	8213c <pmc_is_periph_clk_enabled+0x5c>
   82138:	2301      	movs	r3, #1
   8213a:	e000      	b.n	8213e <pmc_is_periph_clk_enabled+0x5e>
   8213c:	2300      	movs	r3, #0
   8213e:	4618      	mov	r0, r3
   82140:	370c      	adds	r7, #12
   82142:	46bd      	mov	sp, r7
   82144:	f85d 7b04 	ldr.w	r7, [sp], #4
   82148:	4770      	bx	lr
   8214a:	bf00      	nop

0008214c <pmc_pck_set_prescaler>:
   8214c:	b480      	push	{r7}
   8214e:	b083      	sub	sp, #12
   82150:	af00      	add	r7, sp, #0
   82152:	6078      	str	r0, [r7, #4]
   82154:	6039      	str	r1, [r7, #0]
   82156:	f44f 63c0 	mov.w	r3, #1536	; 0x600
   8215a:	f2c4 030e 	movt	r3, #16398	; 0x400e
   8215e:	f44f 62c0 	mov.w	r2, #1536	; 0x600
   82162:	f2c4 020e 	movt	r2, #16398	; 0x400e
   82166:	6879      	ldr	r1, [r7, #4]
   82168:	3110      	adds	r1, #16
   8216a:	f852 2021 	ldr.w	r2, [r2, r1, lsl #2]
   8216e:	f022 0170 	bic.w	r1, r2, #112	; 0x70
   82172:	683a      	ldr	r2, [r7, #0]
   82174:	4311      	orrs	r1, r2
   82176:	687a      	ldr	r2, [r7, #4]
   82178:	3210      	adds	r2, #16
   8217a:	f843 1022 	str.w	r1, [r3, r2, lsl #2]
   8217e:	bf00      	nop
   82180:	f44f 63c0 	mov.w	r3, #1536	; 0x600
   82184:	f2c4 030e 	movt	r3, #16398	; 0x400e
   82188:	681a      	ldr	r2, [r3, #0]
   8218a:	687b      	ldr	r3, [r7, #4]
   8218c:	f44f 7180 	mov.w	r1, #256	; 0x100
   82190:	fa01 f303 	lsl.w	r3, r1, r3
   82194:	4013      	ands	r3, r2
   82196:	2b00      	cmp	r3, #0
   82198:	d00c      	beq.n	821b4 <pmc_pck_set_prescaler+0x68>
   8219a:	f44f 63c0 	mov.w	r3, #1536	; 0x600
   8219e:	f2c4 030e 	movt	r3, #16398	; 0x400e
   821a2:	6e9a      	ldr	r2, [r3, #104]	; 0x68
   821a4:	687b      	ldr	r3, [r7, #4]
   821a6:	f44f 7180 	mov.w	r1, #256	; 0x100
   821aa:	fa01 f303 	lsl.w	r3, r1, r3
   821ae:	4013      	ands	r3, r2
   821b0:	2b00      	cmp	r3, #0
   821b2:	d0e5      	beq.n	82180 <pmc_pck_set_prescaler+0x34>
   821b4:	370c      	adds	r7, #12
   821b6:	46bd      	mov	sp, r7
   821b8:	f85d 7b04 	ldr.w	r7, [sp], #4
   821bc:	4770      	bx	lr
   821be:	bf00      	nop

000821c0 <pmc_pck_set_source>:
   821c0:	b480      	push	{r7}
   821c2:	b083      	sub	sp, #12
   821c4:	af00      	add	r7, sp, #0
   821c6:	6078      	str	r0, [r7, #4]
   821c8:	6039      	str	r1, [r7, #0]
   821ca:	f44f 63c0 	mov.w	r3, #1536	; 0x600
   821ce:	f2c4 030e 	movt	r3, #16398	; 0x400e
   821d2:	f44f 62c0 	mov.w	r2, #1536	; 0x600
   821d6:	f2c4 020e 	movt	r2, #16398	; 0x400e
   821da:	6879      	ldr	r1, [r7, #4]
   821dc:	3110      	adds	r1, #16
   821de:	f852 2021 	ldr.w	r2, [r2, r1, lsl #2]
   821e2:	f022 0107 	bic.w	r1, r2, #7
   821e6:	683a      	ldr	r2, [r7, #0]
   821e8:	4311      	orrs	r1, r2
   821ea:	687a      	ldr	r2, [r7, #4]
   821ec:	3210      	adds	r2, #16
   821ee:	f843 1022 	str.w	r1, [r3, r2, lsl #2]
   821f2:	bf00      	nop
   821f4:	f44f 63c0 	mov.w	r3, #1536	; 0x600
   821f8:	f2c4 030e 	movt	r3, #16398	; 0x400e
   821fc:	681a      	ldr	r2, [r3, #0]
   821fe:	687b      	ldr	r3, [r7, #4]
   82200:	f44f 7180 	mov.w	r1, #256	; 0x100
   82204:	fa01 f303 	lsl.w	r3, r1, r3
   82208:	4013      	ands	r3, r2
   8220a:	2b00      	cmp	r3, #0
   8220c:	d00c      	beq.n	82228 <pmc_pck_set_source+0x68>
   8220e:	f44f 63c0 	mov.w	r3, #1536	; 0x600
   82212:	f2c4 030e 	movt	r3, #16398	; 0x400e
   82216:	6e9a      	ldr	r2, [r3, #104]	; 0x68
   82218:	687b      	ldr	r3, [r7, #4]
   8221a:	f44f 7180 	mov.w	r1, #256	; 0x100
   8221e:	fa01 f303 	lsl.w	r3, r1, r3
   82222:	4013      	ands	r3, r2
   82224:	2b00      	cmp	r3, #0
   82226:	d0e5      	beq.n	821f4 <pmc_pck_set_source+0x34>
   82228:	370c      	adds	r7, #12
   8222a:	46bd      	mov	sp, r7
   8222c:	f85d 7b04 	ldr.w	r7, [sp], #4
   82230:	4770      	bx	lr
   82232:	bf00      	nop

00082234 <pmc_switch_pck_to_sclk>:
   82234:	b480      	push	{r7}
   82236:	b085      	sub	sp, #20
   82238:	af00      	add	r7, sp, #0
   8223a:	6078      	str	r0, [r7, #4]
   8223c:	6039      	str	r1, [r7, #0]
   8223e:	f44f 63c0 	mov.w	r3, #1536	; 0x600
   82242:	f2c4 030e 	movt	r3, #16398	; 0x400e
   82246:	687a      	ldr	r2, [r7, #4]
   82248:	3210      	adds	r2, #16
   8224a:	6839      	ldr	r1, [r7, #0]
   8224c:	f843 1022 	str.w	r1, [r3, r2, lsl #2]
   82250:	f44f 6300 	mov.w	r3, #2048	; 0x800
   82254:	60fb      	str	r3, [r7, #12]
   82256:	e007      	b.n	82268 <pmc_switch_pck_to_sclk+0x34>
   82258:	68fb      	ldr	r3, [r7, #12]
   8225a:	2b00      	cmp	r3, #0
   8225c:	d101      	bne.n	82262 <pmc_switch_pck_to_sclk+0x2e>
   8225e:	2301      	movs	r3, #1
   82260:	e010      	b.n	82284 <pmc_switch_pck_to_sclk+0x50>
   82262:	68fb      	ldr	r3, [r7, #12]
   82264:	3b01      	subs	r3, #1
   82266:	60fb      	str	r3, [r7, #12]
   82268:	f44f 63c0 	mov.w	r3, #1536	; 0x600
   8226c:	f2c4 030e 	movt	r3, #16398	; 0x400e
   82270:	6e9a      	ldr	r2, [r3, #104]	; 0x68
   82272:	687b      	ldr	r3, [r7, #4]
   82274:	f44f 7180 	mov.w	r1, #256	; 0x100
   82278:	fa01 f303 	lsl.w	r3, r1, r3
   8227c:	4013      	ands	r3, r2
   8227e:	2b00      	cmp	r3, #0
   82280:	d0ea      	beq.n	82258 <pmc_switch_pck_to_sclk+0x24>
   82282:	2300      	movs	r3, #0
   82284:	4618      	mov	r0, r3
   82286:	3714      	adds	r7, #20
   82288:	46bd      	mov	sp, r7
   8228a:	f85d 7b04 	ldr.w	r7, [sp], #4
   8228e:	4770      	bx	lr

00082290 <pmc_switch_pck_to_mainck>:
   82290:	b480      	push	{r7}
   82292:	b085      	sub	sp, #20
   82294:	af00      	add	r7, sp, #0
   82296:	6078      	str	r0, [r7, #4]
   82298:	6039      	str	r1, [r7, #0]
   8229a:	f44f 63c0 	mov.w	r3, #1536	; 0x600
   8229e:	f2c4 030e 	movt	r3, #16398	; 0x400e
   822a2:	683a      	ldr	r2, [r7, #0]
   822a4:	f042 0101 	orr.w	r1, r2, #1
   822a8:	687a      	ldr	r2, [r7, #4]
   822aa:	3210      	adds	r2, #16
   822ac:	f843 1022 	str.w	r1, [r3, r2, lsl #2]
   822b0:	f44f 6300 	mov.w	r3, #2048	; 0x800
   822b4:	60fb      	str	r3, [r7, #12]
   822b6:	e007      	b.n	822c8 <pmc_switch_pck_to_mainck+0x38>
   822b8:	68fb      	ldr	r3, [r7, #12]
   822ba:	2b00      	cmp	r3, #0
   822bc:	d101      	bne.n	822c2 <pmc_switch_pck_to_mainck+0x32>
   822be:	2301      	movs	r3, #1
   822c0:	e010      	b.n	822e4 <pmc_switch_pck_to_mainck+0x54>
   822c2:	68fb      	ldr	r3, [r7, #12]
   822c4:	3b01      	subs	r3, #1
   822c6:	60fb      	str	r3, [r7, #12]
   822c8:	f44f 63c0 	mov.w	r3, #1536	; 0x600
   822cc:	f2c4 030e 	movt	r3, #16398	; 0x400e
   822d0:	6e9a      	ldr	r2, [r3, #104]	; 0x68
   822d2:	687b      	ldr	r3, [r7, #4]
   822d4:	f44f 7180 	mov.w	r1, #256	; 0x100
   822d8:	fa01 f303 	lsl.w	r3, r1, r3
   822dc:	4013      	ands	r3, r2
   822de:	2b00      	cmp	r3, #0
   822e0:	d0ea      	beq.n	822b8 <pmc_switch_pck_to_mainck+0x28>
   822e2:	2300      	movs	r3, #0
   822e4:	4618      	mov	r0, r3
   822e6:	3714      	adds	r7, #20
   822e8:	46bd      	mov	sp, r7
   822ea:	f85d 7b04 	ldr.w	r7, [sp], #4
   822ee:	4770      	bx	lr

000822f0 <pmc_switch_pck_to_pllack>:
   822f0:	b480      	push	{r7}
   822f2:	b085      	sub	sp, #20
   822f4:	af00      	add	r7, sp, #0
   822f6:	6078      	str	r0, [r7, #4]
   822f8:	6039      	str	r1, [r7, #0]
   822fa:	f44f 63c0 	mov.w	r3, #1536	; 0x600
   822fe:	f2c4 030e 	movt	r3, #16398	; 0x400e
   82302:	683a      	ldr	r2, [r7, #0]
   82304:	f042 0102 	orr.w	r1, r2, #2
   82308:	687a      	ldr	r2, [r7, #4]
   8230a:	3210      	adds	r2, #16
   8230c:	f843 1022 	str.w	r1, [r3, r2, lsl #2]
   82310:	f44f 6300 	mov.w	r3, #2048	; 0x800
   82314:	60fb      	str	r3, [r7, #12]
   82316:	e007      	b.n	82328 <pmc_switch_pck_to_pllack+0x38>
   82318:	68fb      	ldr	r3, [r7, #12]
   8231a:	2b00      	cmp	r3, #0
   8231c:	d101      	bne.n	82322 <pmc_switch_pck_to_pllack+0x32>
   8231e:	2301      	movs	r3, #1
   82320:	e010      	b.n	82344 <pmc_switch_pck_to_pllack+0x54>
   82322:	68fb      	ldr	r3, [r7, #12]
   82324:	3b01      	subs	r3, #1
   82326:	60fb      	str	r3, [r7, #12]
   82328:	f44f 63c0 	mov.w	r3, #1536	; 0x600
   8232c:	f2c4 030e 	movt	r3, #16398	; 0x400e
   82330:	6e9a      	ldr	r2, [r3, #104]	; 0x68
   82332:	687b      	ldr	r3, [r7, #4]
   82334:	f44f 7180 	mov.w	r1, #256	; 0x100
   82338:	fa01 f303 	lsl.w	r3, r1, r3
   8233c:	4013      	ands	r3, r2
   8233e:	2b00      	cmp	r3, #0
   82340:	d0ea      	beq.n	82318 <pmc_switch_pck_to_pllack+0x28>
   82342:	2300      	movs	r3, #0
   82344:	4618      	mov	r0, r3
   82346:	3714      	adds	r7, #20
   82348:	46bd      	mov	sp, r7
   8234a:	f85d 7b04 	ldr.w	r7, [sp], #4
   8234e:	4770      	bx	lr

00082350 <pmc_switch_pck_to_upllck>:
   82350:	b480      	push	{r7}
   82352:	b085      	sub	sp, #20
   82354:	af00      	add	r7, sp, #0
   82356:	6078      	str	r0, [r7, #4]
   82358:	6039      	str	r1, [r7, #0]
   8235a:	f44f 63c0 	mov.w	r3, #1536	; 0x600
   8235e:	f2c4 030e 	movt	r3, #16398	; 0x400e
   82362:	683a      	ldr	r2, [r7, #0]
   82364:	f042 0103 	orr.w	r1, r2, #3
   82368:	687a      	ldr	r2, [r7, #4]
   8236a:	3210      	adds	r2, #16
   8236c:	f843 1022 	str.w	r1, [r3, r2, lsl #2]
   82370:	f44f 6300 	mov.w	r3, #2048	; 0x800
   82374:	60fb      	str	r3, [r7, #12]
   82376:	e007      	b.n	82388 <pmc_switch_pck_to_upllck+0x38>
   82378:	68fb      	ldr	r3, [r7, #12]
   8237a:	2b00      	cmp	r3, #0
   8237c:	d101      	bne.n	82382 <pmc_switch_pck_to_upllck+0x32>
   8237e:	2301      	movs	r3, #1
   82380:	e010      	b.n	823a4 <pmc_switch_pck_to_upllck+0x54>
   82382:	68fb      	ldr	r3, [r7, #12]
   82384:	3b01      	subs	r3, #1
   82386:	60fb      	str	r3, [r7, #12]
   82388:	f44f 63c0 	mov.w	r3, #1536	; 0x600
   8238c:	f2c4 030e 	movt	r3, #16398	; 0x400e
   82390:	6e9a      	ldr	r2, [r3, #104]	; 0x68
   82392:	687b      	ldr	r3, [r7, #4]
   82394:	f44f 7180 	mov.w	r1, #256	; 0x100
   82398:	fa01 f303 	lsl.w	r3, r1, r3
   8239c:	4013      	ands	r3, r2
   8239e:	2b00      	cmp	r3, #0
   823a0:	d0ea      	beq.n	82378 <pmc_switch_pck_to_upllck+0x28>
   823a2:	2300      	movs	r3, #0
   823a4:	4618      	mov	r0, r3
   823a6:	3714      	adds	r7, #20
   823a8:	46bd      	mov	sp, r7
   823aa:	f85d 7b04 	ldr.w	r7, [sp], #4
   823ae:	4770      	bx	lr

000823b0 <pmc_enable_pck>:
   823b0:	b480      	push	{r7}
   823b2:	b083      	sub	sp, #12
   823b4:	af00      	add	r7, sp, #0
   823b6:	6078      	str	r0, [r7, #4]
   823b8:	f44f 63c0 	mov.w	r3, #1536	; 0x600
   823bc:	f2c4 030e 	movt	r3, #16398	; 0x400e
   823c0:	687a      	ldr	r2, [r7, #4]
   823c2:	f44f 7180 	mov.w	r1, #256	; 0x100
   823c6:	fa01 f202 	lsl.w	r2, r1, r2
   823ca:	601a      	str	r2, [r3, #0]
   823cc:	370c      	adds	r7, #12
   823ce:	46bd      	mov	sp, r7
   823d0:	f85d 7b04 	ldr.w	r7, [sp], #4
   823d4:	4770      	bx	lr
   823d6:	bf00      	nop

000823d8 <pmc_disable_pck>:
   823d8:	b480      	push	{r7}
   823da:	b083      	sub	sp, #12
   823dc:	af00      	add	r7, sp, #0
   823de:	6078      	str	r0, [r7, #4]
   823e0:	f44f 63c0 	mov.w	r3, #1536	; 0x600
   823e4:	f2c4 030e 	movt	r3, #16398	; 0x400e
   823e8:	687a      	ldr	r2, [r7, #4]
   823ea:	f44f 7180 	mov.w	r1, #256	; 0x100
   823ee:	fa01 f202 	lsl.w	r2, r1, r2
   823f2:	605a      	str	r2, [r3, #4]
   823f4:	370c      	adds	r7, #12
   823f6:	46bd      	mov	sp, r7
   823f8:	f85d 7b04 	ldr.w	r7, [sp], #4
   823fc:	4770      	bx	lr
   823fe:	bf00      	nop

00082400 <pmc_enable_all_pck>:
   82400:	b480      	push	{r7}
   82402:	af00      	add	r7, sp, #0
   82404:	f44f 63c0 	mov.w	r3, #1536	; 0x600
   82408:	f2c4 030e 	movt	r3, #16398	; 0x400e
   8240c:	f44f 62e0 	mov.w	r2, #1792	; 0x700
   82410:	601a      	str	r2, [r3, #0]
   82412:	46bd      	mov	sp, r7
   82414:	f85d 7b04 	ldr.w	r7, [sp], #4
   82418:	4770      	bx	lr
   8241a:	bf00      	nop

0008241c <pmc_disable_all_pck>:
   8241c:	b480      	push	{r7}
   8241e:	af00      	add	r7, sp, #0
   82420:	f44f 63c0 	mov.w	r3, #1536	; 0x600
   82424:	f2c4 030e 	movt	r3, #16398	; 0x400e
   82428:	f44f 62e0 	mov.w	r2, #1792	; 0x700
   8242c:	605a      	str	r2, [r3, #4]
   8242e:	46bd      	mov	sp, r7
   82430:	f85d 7b04 	ldr.w	r7, [sp], #4
   82434:	4770      	bx	lr
   82436:	bf00      	nop

00082438 <pmc_is_pck_enabled>:
   82438:	b480      	push	{r7}
   8243a:	b083      	sub	sp, #12
   8243c:	af00      	add	r7, sp, #0
   8243e:	6078      	str	r0, [r7, #4]
   82440:	687b      	ldr	r3, [r7, #4]
   82442:	2b02      	cmp	r3, #2
   82444:	d901      	bls.n	8244a <pmc_is_pck_enabled+0x12>
   82446:	2300      	movs	r3, #0
   82448:	e00a      	b.n	82460 <pmc_is_pck_enabled+0x28>
   8244a:	f44f 63c0 	mov.w	r3, #1536	; 0x600
   8244e:	f2c4 030e 	movt	r3, #16398	; 0x400e
   82452:	689a      	ldr	r2, [r3, #8]
   82454:	687b      	ldr	r3, [r7, #4]
   82456:	f44f 7180 	mov.w	r1, #256	; 0x100
   8245a:	fa01 f303 	lsl.w	r3, r1, r3
   8245e:	4013      	ands	r3, r2
   82460:	4618      	mov	r0, r3
   82462:	370c      	adds	r7, #12
   82464:	46bd      	mov	sp, r7
   82466:	f85d 7b04 	ldr.w	r7, [sp], #4
   8246a:	4770      	bx	lr

0008246c <pmc_switch_udpck_to_pllack>:
   8246c:	b480      	push	{r7}
   8246e:	b083      	sub	sp, #12
   82470:	af00      	add	r7, sp, #0
   82472:	6078      	str	r0, [r7, #4]
   82474:	f44f 63c0 	mov.w	r3, #1536	; 0x600
   82478:	f2c4 030e 	movt	r3, #16398	; 0x400e
   8247c:	687a      	ldr	r2, [r7, #4]
   8247e:	0212      	lsls	r2, r2, #8
   82480:	f402 6270 	and.w	r2, r2, #3840	; 0xf00
   82484:	639a      	str	r2, [r3, #56]	; 0x38
   82486:	370c      	adds	r7, #12
   82488:	46bd      	mov	sp, r7
   8248a:	f85d 7b04 	ldr.w	r7, [sp], #4
   8248e:	4770      	bx	lr

00082490 <pmc_switch_udpck_to_upllck>:
   82490:	b480      	push	{r7}
   82492:	b083      	sub	sp, #12
   82494:	af00      	add	r7, sp, #0
   82496:	6078      	str	r0, [r7, #4]
   82498:	f44f 63c0 	mov.w	r3, #1536	; 0x600
   8249c:	f2c4 030e 	movt	r3, #16398	; 0x400e
   824a0:	687a      	ldr	r2, [r7, #4]
   824a2:	0212      	lsls	r2, r2, #8
   824a4:	f402 6270 	and.w	r2, r2, #3840	; 0xf00
   824a8:	f042 0201 	orr.w	r2, r2, #1
   824ac:	639a      	str	r2, [r3, #56]	; 0x38
   824ae:	370c      	adds	r7, #12
   824b0:	46bd      	mov	sp, r7
   824b2:	f85d 7b04 	ldr.w	r7, [sp], #4
   824b6:	4770      	bx	lr

000824b8 <pmc_enable_udpck>:
   824b8:	b480      	push	{r7}
   824ba:	af00      	add	r7, sp, #0
   824bc:	f44f 63c0 	mov.w	r3, #1536	; 0x600
   824c0:	f2c4 030e 	movt	r3, #16398	; 0x400e
   824c4:	2220      	movs	r2, #32
   824c6:	601a      	str	r2, [r3, #0]
   824c8:	46bd      	mov	sp, r7
   824ca:	f85d 7b04 	ldr.w	r7, [sp], #4
   824ce:	4770      	bx	lr

000824d0 <pmc_disable_udpck>:
   824d0:	b480      	push	{r7}
   824d2:	af00      	add	r7, sp, #0
   824d4:	f44f 63c0 	mov.w	r3, #1536	; 0x600
   824d8:	f2c4 030e 	movt	r3, #16398	; 0x400e
   824dc:	2220      	movs	r2, #32
   824de:	605a      	str	r2, [r3, #4]
   824e0:	46bd      	mov	sp, r7
   824e2:	f85d 7b04 	ldr.w	r7, [sp], #4
   824e6:	4770      	bx	lr

000824e8 <pmc_enable_interrupt>:
   824e8:	b480      	push	{r7}
   824ea:	b083      	sub	sp, #12
   824ec:	af00      	add	r7, sp, #0
   824ee:	6078      	str	r0, [r7, #4]
   824f0:	f44f 63c0 	mov.w	r3, #1536	; 0x600
   824f4:	f2c4 030e 	movt	r3, #16398	; 0x400e
   824f8:	687a      	ldr	r2, [r7, #4]
   824fa:	661a      	str	r2, [r3, #96]	; 0x60
   824fc:	370c      	adds	r7, #12
   824fe:	46bd      	mov	sp, r7
   82500:	f85d 7b04 	ldr.w	r7, [sp], #4
   82504:	4770      	bx	lr
   82506:	bf00      	nop

00082508 <pmc_disable_interrupt>:
   82508:	b480      	push	{r7}
   8250a:	b083      	sub	sp, #12
   8250c:	af00      	add	r7, sp, #0
   8250e:	6078      	str	r0, [r7, #4]
   82510:	f44f 63c0 	mov.w	r3, #1536	; 0x600
   82514:	f2c4 030e 	movt	r3, #16398	; 0x400e
   82518:	687a      	ldr	r2, [r7, #4]
   8251a:	665a      	str	r2, [r3, #100]	; 0x64
   8251c:	370c      	adds	r7, #12
   8251e:	46bd      	mov	sp, r7
   82520:	f85d 7b04 	ldr.w	r7, [sp], #4
   82524:	4770      	bx	lr
   82526:	bf00      	nop

00082528 <pmc_get_interrupt_mask>:
   82528:	b480      	push	{r7}
   8252a:	af00      	add	r7, sp, #0
   8252c:	f44f 63c0 	mov.w	r3, #1536	; 0x600
   82530:	f2c4 030e 	movt	r3, #16398	; 0x400e
   82534:	6edb      	ldr	r3, [r3, #108]	; 0x6c
   82536:	4618      	mov	r0, r3
   82538:	46bd      	mov	sp, r7
   8253a:	f85d 7b04 	ldr.w	r7, [sp], #4
   8253e:	4770      	bx	lr

00082540 <pmc_get_status>:
   82540:	b480      	push	{r7}
   82542:	af00      	add	r7, sp, #0
   82544:	f44f 63c0 	mov.w	r3, #1536	; 0x600
   82548:	f2c4 030e 	movt	r3, #16398	; 0x400e
   8254c:	6e9b      	ldr	r3, [r3, #104]	; 0x68
   8254e:	4618      	mov	r0, r3
   82550:	46bd      	mov	sp, r7
   82552:	f85d 7b04 	ldr.w	r7, [sp], #4
   82556:	4770      	bx	lr

00082558 <pmc_set_fast_startup_input>:
   82558:	b480      	push	{r7}
   8255a:	b083      	sub	sp, #12
   8255c:	af00      	add	r7, sp, #0
   8255e:	6078      	str	r0, [r7, #4]
   82560:	687b      	ldr	r3, [r7, #4]
   82562:	f3c3 0312 	ubfx	r3, r3, #0, #19
   82566:	607b      	str	r3, [r7, #4]
   82568:	f44f 63c0 	mov.w	r3, #1536	; 0x600
   8256c:	f2c4 030e 	movt	r3, #16398	; 0x400e
   82570:	f44f 62c0 	mov.w	r2, #1536	; 0x600
   82574:	f2c4 020e 	movt	r2, #16398	; 0x400e
   82578:	6f11      	ldr	r1, [r2, #112]	; 0x70
   8257a:	687a      	ldr	r2, [r7, #4]
   8257c:	430a      	orrs	r2, r1
   8257e:	671a      	str	r2, [r3, #112]	; 0x70
   82580:	370c      	adds	r7, #12
   82582:	46bd      	mov	sp, r7
   82584:	f85d 7b04 	ldr.w	r7, [sp], #4
   82588:	4770      	bx	lr
   8258a:	bf00      	nop

0008258c <pmc_clr_fast_startup_input>:
   8258c:	b480      	push	{r7}
   8258e:	b083      	sub	sp, #12
   82590:	af00      	add	r7, sp, #0
   82592:	6078      	str	r0, [r7, #4]
   82594:	687b      	ldr	r3, [r7, #4]
   82596:	f3c3 0312 	ubfx	r3, r3, #0, #19
   8259a:	607b      	str	r3, [r7, #4]
   8259c:	f44f 63c0 	mov.w	r3, #1536	; 0x600
   825a0:	f2c4 030e 	movt	r3, #16398	; 0x400e
   825a4:	f44f 62c0 	mov.w	r2, #1536	; 0x600
   825a8:	f2c4 020e 	movt	r2, #16398	; 0x400e
   825ac:	6f11      	ldr	r1, [r2, #112]	; 0x70
   825ae:	687a      	ldr	r2, [r7, #4]
   825b0:	43d2      	mvns	r2, r2
   825b2:	400a      	ands	r2, r1
   825b4:	671a      	str	r2, [r3, #112]	; 0x70
   825b6:	370c      	adds	r7, #12
   825b8:	46bd      	mov	sp, r7
   825ba:	f85d 7b04 	ldr.w	r7, [sp], #4
   825be:	4770      	bx	lr

000825c0 <pmc_enable_sleepmode>:
   825c0:	b480      	push	{r7}
   825c2:	b083      	sub	sp, #12
   825c4:	af00      	add	r7, sp, #0
   825c6:	4603      	mov	r3, r0
   825c8:	71fb      	strb	r3, [r7, #7]
   825ca:	f44f 63c0 	mov.w	r3, #1536	; 0x600
   825ce:	f2c4 030e 	movt	r3, #16398	; 0x400e
   825d2:	f44f 62c0 	mov.w	r2, #1536	; 0x600
   825d6:	f2c4 020e 	movt	r2, #16398	; 0x400e
   825da:	6f12      	ldr	r2, [r2, #112]	; 0x70
   825dc:	f422 1280 	bic.w	r2, r2, #1048576	; 0x100000
   825e0:	671a      	str	r2, [r3, #112]	; 0x70
   825e2:	f44f 436d 	mov.w	r3, #60672	; 0xed00
   825e6:	f2ce 0300 	movt	r3, #57344	; 0xe000
   825ea:	f44f 426d 	mov.w	r2, #60672	; 0xed00
   825ee:	f2ce 0200 	movt	r2, #57344	; 0xe000
   825f2:	6912      	ldr	r2, [r2, #16]
   825f4:	f022 0204 	bic.w	r2, r2, #4
   825f8:	611a      	str	r2, [r3, #16]
   825fa:	79fb      	ldrb	r3, [r7, #7]
   825fc:	2b00      	cmp	r3, #0
   825fe:	d101      	bne.n	82604 <pmc_enable_sleepmode+0x44>
   82600:	bf30      	wfi
   82602:	e000      	b.n	82606 <pmc_enable_sleepmode+0x46>
   82604:	bf20      	wfe
   82606:	370c      	adds	r7, #12
   82608:	46bd      	mov	sp, r7
   8260a:	f85d 7b04 	ldr.w	r7, [sp], #4
   8260e:	4770      	bx	lr

00082610 <pmc_enable_waitmode>:
   82610:	b480      	push	{r7}
   82612:	b083      	sub	sp, #12
   82614:	af00      	add	r7, sp, #0
   82616:	f44f 63c0 	mov.w	r3, #1536	; 0x600
   8261a:	f2c4 030e 	movt	r3, #16398	; 0x400e
   8261e:	f44f 62c0 	mov.w	r2, #1536	; 0x600
   82622:	f2c4 020e 	movt	r2, #16398	; 0x400e
   82626:	6f12      	ldr	r2, [r2, #112]	; 0x70
   82628:	f442 1280 	orr.w	r2, r2, #1048576	; 0x100000
   8262c:	671a      	str	r2, [r3, #112]	; 0x70
   8262e:	f44f 436d 	mov.w	r3, #60672	; 0xed00
   82632:	f2ce 0300 	movt	r3, #57344	; 0xe000
   82636:	f44f 426d 	mov.w	r2, #60672	; 0xed00
   8263a:	f2ce 0200 	movt	r2, #57344	; 0xe000
   8263e:	6912      	ldr	r2, [r2, #16]
   82640:	f022 0204 	bic.w	r2, r2, #4
   82644:	611a      	str	r2, [r3, #16]
   82646:	bf20      	wfe
   82648:	2300      	movs	r3, #0
   8264a:	607b      	str	r3, [r7, #4]
   8264c:	e003      	b.n	82656 <pmc_enable_waitmode+0x46>
   8264e:	bf00      	nop
   82650:	687b      	ldr	r3, [r7, #4]
   82652:	3301      	adds	r3, #1
   82654:	607b      	str	r3, [r7, #4]
   82656:	687b      	ldr	r3, [r7, #4]
   82658:	f5b3 7ffa 	cmp.w	r3, #500	; 0x1f4
   8265c:	d3f7      	bcc.n	8264e <pmc_enable_waitmode+0x3e>
   8265e:	bf00      	nop
   82660:	f44f 63c0 	mov.w	r3, #1536	; 0x600
   82664:	f2c4 030e 	movt	r3, #16398	; 0x400e
   82668:	6a1b      	ldr	r3, [r3, #32]
   8266a:	f003 0308 	and.w	r3, r3, #8
   8266e:	2b00      	cmp	r3, #0
   82670:	d0f6      	beq.n	82660 <pmc_enable_waitmode+0x50>
   82672:	370c      	adds	r7, #12
   82674:	46bd      	mov	sp, r7
   82676:	f85d 7b04 	ldr.w	r7, [sp], #4
   8267a:	4770      	bx	lr

0008267c <pmc_enable_backupmode>:
   8267c:	b480      	push	{r7}
   8267e:	af00      	add	r7, sp, #0
   82680:	f44f 436d 	mov.w	r3, #60672	; 0xed00
   82684:	f2ce 0300 	movt	r3, #57344	; 0xe000
   82688:	f44f 426d 	mov.w	r2, #60672	; 0xed00
   8268c:	f2ce 0200 	movt	r2, #57344	; 0xe000
   82690:	6912      	ldr	r2, [r2, #16]
   82692:	f042 0204 	orr.w	r2, r2, #4
   82696:	611a      	str	r2, [r3, #16]
   82698:	bf20      	wfe
   8269a:	46bd      	mov	sp, r7
   8269c:	f85d 7b04 	ldr.w	r7, [sp], #4
   826a0:	4770      	bx	lr
   826a2:	bf00      	nop

000826a4 <pmc_enable_clock_failure_detector>:
   826a4:	b480      	push	{r7}
   826a6:	b083      	sub	sp, #12
   826a8:	af00      	add	r7, sp, #0
   826aa:	f44f 63c0 	mov.w	r3, #1536	; 0x600
   826ae:	f2c4 030e 	movt	r3, #16398	; 0x400e
   826b2:	6a1b      	ldr	r3, [r3, #32]
   826b4:	607b      	str	r3, [r7, #4]
   826b6:	f44f 63c0 	mov.w	r3, #1536	; 0x600
   826ba:	f2c4 030e 	movt	r3, #16398	; 0x400e
   826be:	687a      	ldr	r2, [r7, #4]
   826c0:	f042 720d 	orr.w	r2, r2, #36962304	; 0x2340000
   826c4:	f442 3240 	orr.w	r2, r2, #196608	; 0x30000
   826c8:	621a      	str	r2, [r3, #32]
   826ca:	370c      	adds	r7, #12
   826cc:	46bd      	mov	sp, r7
   826ce:	f85d 7b04 	ldr.w	r7, [sp], #4
   826d2:	4770      	bx	lr

000826d4 <pmc_disable_clock_failure_detector>:
   826d4:	b480      	push	{r7}
   826d6:	b083      	sub	sp, #12
   826d8:	af00      	add	r7, sp, #0
   826da:	f44f 63c0 	mov.w	r3, #1536	; 0x600
   826de:	f2c4 030e 	movt	r3, #16398	; 0x400e
   826e2:	6a1b      	ldr	r3, [r3, #32]
   826e4:	f023 7300 	bic.w	r3, r3, #33554432	; 0x2000000
   826e8:	607b      	str	r3, [r7, #4]
   826ea:	f44f 63c0 	mov.w	r3, #1536	; 0x600
   826ee:	f2c4 030e 	movt	r3, #16398	; 0x400e
   826f2:	687a      	ldr	r2, [r7, #4]
   826f4:	f442 125c 	orr.w	r2, r2, #3604480	; 0x370000
   826f8:	621a      	str	r2, [r3, #32]
   826fa:	370c      	adds	r7, #12
   826fc:	46bd      	mov	sp, r7
   826fe:	f85d 7b04 	ldr.w	r7, [sp], #4
   82702:	4770      	bx	lr

00082704 <pmc_set_writeprotect>:
   82704:	b480      	push	{r7}
   82706:	b083      	sub	sp, #12
   82708:	af00      	add	r7, sp, #0
   8270a:	6078      	str	r0, [r7, #4]
   8270c:	687b      	ldr	r3, [r7, #4]
   8270e:	2b00      	cmp	r3, #0
   82710:	d00a      	beq.n	82728 <pmc_set_writeprotect+0x24>
   82712:	f44f 63c0 	mov.w	r3, #1536	; 0x600
   82716:	f2c4 030e 	movt	r3, #16398	; 0x400e
   8271a:	f244 3201 	movw	r2, #17153	; 0x4301
   8271e:	f2c5 024d 	movt	r2, #20557	; 0x504d
   82722:	f8c3 20e4 	str.w	r2, [r3, #228]	; 0xe4
   82726:	e009      	b.n	8273c <pmc_set_writeprotect+0x38>
   82728:	f44f 63c0 	mov.w	r3, #1536	; 0x600
   8272c:	f2c4 030e 	movt	r3, #16398	; 0x400e
   82730:	f44f 4286 	mov.w	r2, #17152	; 0x4300
   82734:	f2c5 024d 	movt	r2, #20557	; 0x504d
   82738:	f8c3 20e4 	str.w	r2, [r3, #228]	; 0xe4
   8273c:	370c      	adds	r7, #12
   8273e:	46bd      	mov	sp, r7
   82740:	f85d 7b04 	ldr.w	r7, [sp], #4
   82744:	4770      	bx	lr
   82746:	bf00      	nop

00082748 <pmc_get_writeprotect_status>:
   82748:	b480      	push	{r7}
   8274a:	af00      	add	r7, sp, #0
   8274c:	f44f 63c0 	mov.w	r3, #1536	; 0x600
   82750:	f2c4 030e 	movt	r3, #16398	; 0x400e
   82754:	f8d3 30e4 	ldr.w	r3, [r3, #228]	; 0xe4
   82758:	f003 0301 	and.w	r3, r3, #1
   8275c:	4618      	mov	r0, r3
   8275e:	46bd      	mov	sp, r7
   82760:	f85d 7b04 	ldr.w	r7, [sp], #4
   82764:	4770      	bx	lr
   82766:	bf00      	nop

00082768 <wdt_get_timeout_value>:
   82768:	b480      	push	{r7}
   8276a:	b085      	sub	sp, #20
   8276c:	af00      	add	r7, sp, #0
   8276e:	6078      	str	r0, [r7, #4]
   82770:	6039      	str	r1, [r7, #0]
   82772:	f44f 5300 	mov.w	r3, #8192	; 0x2000
   82776:	f2c0 73a1 	movt	r3, #1953	; 0x7a1
   8277a:	683a      	ldr	r2, [r7, #0]
   8277c:	fbb3 f3f2 	udiv	r3, r3, r2
   82780:	60fb      	str	r3, [r7, #12]
   82782:	68fa      	ldr	r2, [r7, #12]
   82784:	4613      	mov	r3, r2
   82786:	031b      	lsls	r3, r3, #12
   82788:	1a9b      	subs	r3, r3, r2
   8278a:	60bb      	str	r3, [r7, #8]
   8278c:	687a      	ldr	r2, [r7, #4]
   8278e:	68fb      	ldr	r3, [r7, #12]
   82790:	429a      	cmp	r2, r3
   82792:	d303      	bcc.n	8279c <wdt_get_timeout_value+0x34>
   82794:	687a      	ldr	r2, [r7, #4]
   82796:	68bb      	ldr	r3, [r7, #8]
   82798:	429a      	cmp	r2, r3
   8279a:	d902      	bls.n	827a2 <wdt_get_timeout_value+0x3a>
   8279c:	f64f 73ff 	movw	r3, #65535	; 0xffff
   827a0:	e005      	b.n	827ae <wdt_get_timeout_value+0x46>
   827a2:	687a      	ldr	r2, [r7, #4]
   827a4:	68fb      	ldr	r3, [r7, #12]
   827a6:	fbb2 f3f3 	udiv	r3, r2, r3
   827aa:	f3c3 030b 	ubfx	r3, r3, #0, #12
   827ae:	4618      	mov	r0, r3
   827b0:	3714      	adds	r7, #20
   827b2:	46bd      	mov	sp, r7
   827b4:	f85d 7b04 	ldr.w	r7, [sp], #4
   827b8:	4770      	bx	lr
   827ba:	bf00      	nop

000827bc <wdt_init>:
   827bc:	b480      	push	{r7}
   827be:	b085      	sub	sp, #20
   827c0:	af00      	add	r7, sp, #0
   827c2:	60f8      	str	r0, [r7, #12]
   827c4:	60b9      	str	r1, [r7, #8]
   827c6:	80fa      	strh	r2, [r7, #6]
   827c8:	80bb      	strh	r3, [r7, #4]
   827ca:	88fb      	ldrh	r3, [r7, #6]
   827cc:	f3c3 020b 	ubfx	r2, r3, #0, #12
   827d0:	68bb      	ldr	r3, [r7, #8]
   827d2:	431a      	orrs	r2, r3
   827d4:	88bb      	ldrh	r3, [r7, #4]
   827d6:	041b      	lsls	r3, r3, #16
   827d8:	4619      	mov	r1, r3
   827da:	2300      	movs	r3, #0
   827dc:	f6c0 73ff 	movt	r3, #4095	; 0xfff
   827e0:	400b      	ands	r3, r1
   827e2:	431a      	orrs	r2, r3
   827e4:	68fb      	ldr	r3, [r7, #12]
   827e6:	605a      	str	r2, [r3, #4]
   827e8:	3714      	adds	r7, #20
   827ea:	46bd      	mov	sp, r7
   827ec:	f85d 7b04 	ldr.w	r7, [sp], #4
   827f0:	4770      	bx	lr
   827f2:	bf00      	nop

000827f4 <wdt_disable>:
   827f4:	b480      	push	{r7}
   827f6:	b083      	sub	sp, #12
   827f8:	af00      	add	r7, sp, #0
   827fa:	6078      	str	r0, [r7, #4]
   827fc:	687b      	ldr	r3, [r7, #4]
   827fe:	f44f 4200 	mov.w	r2, #32768	; 0x8000
   82802:	605a      	str	r2, [r3, #4]
   82804:	370c      	adds	r7, #12
   82806:	46bd      	mov	sp, r7
   82808:	f85d 7b04 	ldr.w	r7, [sp], #4
   8280c:	4770      	bx	lr
   8280e:	bf00      	nop

00082810 <wdt_restart>:
   82810:	b480      	push	{r7}
   82812:	b083      	sub	sp, #12
   82814:	af00      	add	r7, sp, #0
   82816:	6078      	str	r0, [r7, #4]
   82818:	687a      	ldr	r2, [r7, #4]
   8281a:	f641 2350 	movw	r3, #6736	; 0x1a50
   8281e:	f2c4 030e 	movt	r3, #16398	; 0x400e
   82822:	429a      	cmp	r2, r3
   82824:	d104      	bne.n	82830 <wdt_restart+0x20>
   82826:	687a      	ldr	r2, [r7, #4]
   82828:	2301      	movs	r3, #1
   8282a:	f2ca 5300 	movt	r3, #42240	; 0xa500
   8282e:	6013      	str	r3, [r2, #0]
   82830:	370c      	adds	r7, #12
   82832:	46bd      	mov	sp, r7
   82834:	f85d 7b04 	ldr.w	r7, [sp], #4
   82838:	4770      	bx	lr
   8283a:	bf00      	nop

0008283c <wdt_get_status>:
   8283c:	b480      	push	{r7}
   8283e:	b083      	sub	sp, #12
   82840:	af00      	add	r7, sp, #0
   82842:	6078      	str	r0, [r7, #4]
   82844:	687b      	ldr	r3, [r7, #4]
   82846:	689b      	ldr	r3, [r3, #8]
   82848:	4618      	mov	r0, r3
   8284a:	370c      	adds	r7, #12
   8284c:	46bd      	mov	sp, r7
   8284e:	f85d 7b04 	ldr.w	r7, [sp], #4
   82852:	4770      	bx	lr

00082854 <wdt_get_us_timeout_period>:
   82854:	b480      	push	{r7}
   82856:	b083      	sub	sp, #12
   82858:	af00      	add	r7, sp, #0
   8285a:	6078      	str	r0, [r7, #4]
   8285c:	6039      	str	r1, [r7, #0]
   8285e:	687b      	ldr	r3, [r7, #4]
   82860:	685b      	ldr	r3, [r3, #4]
   82862:	f3c3 030b 	ubfx	r3, r3, #0, #12
   82866:	01da      	lsls	r2, r3, #7
   82868:	683b      	ldr	r3, [r7, #0]
   8286a:	fbb2 f2f3 	udiv	r2, r2, r3
   8286e:	f244 2340 	movw	r3, #16960	; 0x4240
   82872:	f2c0 030f 	movt	r3, #15
   82876:	fb03 f302 	mul.w	r3, r3, r2
   8287a:	4618      	mov	r0, r3
   8287c:	370c      	adds	r7, #12
   8287e:	46bd      	mov	sp, r7
   82880:	f85d 7b04 	ldr.w	r7, [sp], #4
   82884:	4770      	bx	lr
   82886:	bf00      	nop

00082888 <uart_init>:
   82888:	b480      	push	{r7}
   8288a:	b085      	sub	sp, #20
   8288c:	af00      	add	r7, sp, #0
   8288e:	6078      	str	r0, [r7, #4]
   82890:	6039      	str	r1, [r7, #0]
   82892:	2300      	movs	r3, #0
   82894:	60fb      	str	r3, [r7, #12]
   82896:	687b      	ldr	r3, [r7, #4]
   82898:	22ac      	movs	r2, #172	; 0xac
   8289a:	601a      	str	r2, [r3, #0]
   8289c:	683b      	ldr	r3, [r7, #0]
   8289e:	681a      	ldr	r2, [r3, #0]
   828a0:	683b      	ldr	r3, [r7, #0]
   828a2:	685b      	ldr	r3, [r3, #4]
   828a4:	fbb2 f3f3 	udiv	r3, r2, r3
   828a8:	091b      	lsrs	r3, r3, #4
   828aa:	60fb      	str	r3, [r7, #12]
   828ac:	68fb      	ldr	r3, [r7, #12]
   828ae:	2b00      	cmp	r3, #0
   828b0:	d003      	beq.n	828ba <uart_init+0x32>
   828b2:	68fb      	ldr	r3, [r7, #12]
   828b4:	f5b3 3f80 	cmp.w	r3, #65536	; 0x10000
   828b8:	d301      	bcc.n	828be <uart_init+0x36>
   828ba:	2301      	movs	r3, #1
   828bc:	e00f      	b.n	828de <uart_init+0x56>
   828be:	687b      	ldr	r3, [r7, #4]
   828c0:	68fa      	ldr	r2, [r7, #12]
   828c2:	621a      	str	r2, [r3, #32]
   828c4:	683b      	ldr	r3, [r7, #0]
   828c6:	689a      	ldr	r2, [r3, #8]
   828c8:	687b      	ldr	r3, [r7, #4]
   828ca:	605a      	str	r2, [r3, #4]
   828cc:	687b      	ldr	r3, [r7, #4]
   828ce:	f240 2202 	movw	r2, #514	; 0x202
   828d2:	f8c3 2120 	str.w	r2, [r3, #288]	; 0x120
   828d6:	687b      	ldr	r3, [r7, #4]
   828d8:	2250      	movs	r2, #80	; 0x50
   828da:	601a      	str	r2, [r3, #0]
   828dc:	2300      	movs	r3, #0
   828de:	4618      	mov	r0, r3
   828e0:	3714      	adds	r7, #20
   828e2:	46bd      	mov	sp, r7
   828e4:	f85d 7b04 	ldr.w	r7, [sp], #4
   828e8:	4770      	bx	lr
   828ea:	bf00      	nop

000828ec <uart_enable_tx>:
   828ec:	b480      	push	{r7}
   828ee:	b083      	sub	sp, #12
   828f0:	af00      	add	r7, sp, #0
   828f2:	6078      	str	r0, [r7, #4]
   828f4:	687b      	ldr	r3, [r7, #4]
   828f6:	2240      	movs	r2, #64	; 0x40
   828f8:	601a      	str	r2, [r3, #0]
   828fa:	370c      	adds	r7, #12
   828fc:	46bd      	mov	sp, r7
   828fe:	f85d 7b04 	ldr.w	r7, [sp], #4
   82902:	4770      	bx	lr

00082904 <uart_disable_tx>:
   82904:	b480      	push	{r7}
   82906:	b083      	sub	sp, #12
   82908:	af00      	add	r7, sp, #0
   8290a:	6078      	str	r0, [r7, #4]
   8290c:	687b      	ldr	r3, [r7, #4]
   8290e:	2280      	movs	r2, #128	; 0x80
   82910:	601a      	str	r2, [r3, #0]
   82912:	370c      	adds	r7, #12
   82914:	46bd      	mov	sp, r7
   82916:	f85d 7b04 	ldr.w	r7, [sp], #4
   8291a:	4770      	bx	lr

0008291c <uart_reset_tx>:
   8291c:	b480      	push	{r7}
   8291e:	b083      	sub	sp, #12
   82920:	af00      	add	r7, sp, #0
   82922:	6078      	str	r0, [r7, #4]
   82924:	687b      	ldr	r3, [r7, #4]
   82926:	2288      	movs	r2, #136	; 0x88
   82928:	601a      	str	r2, [r3, #0]
   8292a:	370c      	adds	r7, #12
   8292c:	46bd      	mov	sp, r7
   8292e:	f85d 7b04 	ldr.w	r7, [sp], #4
   82932:	4770      	bx	lr

00082934 <uart_enable_rx>:
   82934:	b480      	push	{r7}
   82936:	b083      	sub	sp, #12
   82938:	af00      	add	r7, sp, #0
   8293a:	6078      	str	r0, [r7, #4]
   8293c:	687b      	ldr	r3, [r7, #4]
   8293e:	2210      	movs	r2, #16
   82940:	601a      	str	r2, [r3, #0]
   82942:	370c      	adds	r7, #12
   82944:	46bd      	mov	sp, r7
   82946:	f85d 7b04 	ldr.w	r7, [sp], #4
   8294a:	4770      	bx	lr

0008294c <uart_disable_rx>:
   8294c:	b480      	push	{r7}
   8294e:	b083      	sub	sp, #12
   82950:	af00      	add	r7, sp, #0
   82952:	6078      	str	r0, [r7, #4]
   82954:	687b      	ldr	r3, [r7, #4]
   82956:	2220      	movs	r2, #32
   82958:	601a      	str	r2, [r3, #0]
   8295a:	370c      	adds	r7, #12
   8295c:	46bd      	mov	sp, r7
   8295e:	f85d 7b04 	ldr.w	r7, [sp], #4
   82962:	4770      	bx	lr

00082964 <uart_reset_rx>:
   82964:	b480      	push	{r7}
   82966:	b083      	sub	sp, #12
   82968:	af00      	add	r7, sp, #0
   8296a:	6078      	str	r0, [r7, #4]
   8296c:	687b      	ldr	r3, [r7, #4]
   8296e:	2224      	movs	r2, #36	; 0x24
   82970:	601a      	str	r2, [r3, #0]
   82972:	370c      	adds	r7, #12
   82974:	46bd      	mov	sp, r7
   82976:	f85d 7b04 	ldr.w	r7, [sp], #4
   8297a:	4770      	bx	lr

0008297c <uart_enable>:
   8297c:	b480      	push	{r7}
   8297e:	b083      	sub	sp, #12
   82980:	af00      	add	r7, sp, #0
   82982:	6078      	str	r0, [r7, #4]
   82984:	687b      	ldr	r3, [r7, #4]
   82986:	2250      	movs	r2, #80	; 0x50
   82988:	601a      	str	r2, [r3, #0]
   8298a:	370c      	adds	r7, #12
   8298c:	46bd      	mov	sp, r7
   8298e:	f85d 7b04 	ldr.w	r7, [sp], #4
   82992:	4770      	bx	lr

00082994 <uart_disable>:
   82994:	b480      	push	{r7}
   82996:	b083      	sub	sp, #12
   82998:	af00      	add	r7, sp, #0
   8299a:	6078      	str	r0, [r7, #4]
   8299c:	687b      	ldr	r3, [r7, #4]
   8299e:	22a0      	movs	r2, #160	; 0xa0
   829a0:	601a      	str	r2, [r3, #0]
   829a2:	370c      	adds	r7, #12
   829a4:	46bd      	mov	sp, r7
   829a6:	f85d 7b04 	ldr.w	r7, [sp], #4
   829aa:	4770      	bx	lr

000829ac <uart_reset>:
   829ac:	b480      	push	{r7}
   829ae:	b083      	sub	sp, #12
   829b0:	af00      	add	r7, sp, #0
   829b2:	6078      	str	r0, [r7, #4]
   829b4:	687b      	ldr	r3, [r7, #4]
   829b6:	22ac      	movs	r2, #172	; 0xac
   829b8:	601a      	str	r2, [r3, #0]
   829ba:	370c      	adds	r7, #12
   829bc:	46bd      	mov	sp, r7
   829be:	f85d 7b04 	ldr.w	r7, [sp], #4
   829c2:	4770      	bx	lr

000829c4 <uart_enable_interrupt>:
   829c4:	b480      	push	{r7}
   829c6:	b083      	sub	sp, #12
   829c8:	af00      	add	r7, sp, #0
   829ca:	6078      	str	r0, [r7, #4]
   829cc:	6039      	str	r1, [r7, #0]
   829ce:	687b      	ldr	r3, [r7, #4]
   829d0:	683a      	ldr	r2, [r7, #0]
   829d2:	609a      	str	r2, [r3, #8]
   829d4:	370c      	adds	r7, #12
   829d6:	46bd      	mov	sp, r7
   829d8:	f85d 7b04 	ldr.w	r7, [sp], #4
   829dc:	4770      	bx	lr
   829de:	bf00      	nop

000829e0 <uart_disable_interrupt>:
   829e0:	b480      	push	{r7}
   829e2:	b083      	sub	sp, #12
   829e4:	af00      	add	r7, sp, #0
   829e6:	6078      	str	r0, [r7, #4]
   829e8:	6039      	str	r1, [r7, #0]
   829ea:	687b      	ldr	r3, [r7, #4]
   829ec:	683a      	ldr	r2, [r7, #0]
   829ee:	60da      	str	r2, [r3, #12]
   829f0:	370c      	adds	r7, #12
   829f2:	46bd      	mov	sp, r7
   829f4:	f85d 7b04 	ldr.w	r7, [sp], #4
   829f8:	4770      	bx	lr
   829fa:	bf00      	nop

000829fc <uart_get_interrupt_mask>:
   829fc:	b480      	push	{r7}
   829fe:	b083      	sub	sp, #12
   82a00:	af00      	add	r7, sp, #0
   82a02:	6078      	str	r0, [r7, #4]
   82a04:	687b      	ldr	r3, [r7, #4]
   82a06:	691b      	ldr	r3, [r3, #16]
   82a08:	4618      	mov	r0, r3
   82a0a:	370c      	adds	r7, #12
   82a0c:	46bd      	mov	sp, r7
   82a0e:	f85d 7b04 	ldr.w	r7, [sp], #4
   82a12:	4770      	bx	lr

00082a14 <uart_get_status>:
   82a14:	b480      	push	{r7}
   82a16:	b083      	sub	sp, #12
   82a18:	af00      	add	r7, sp, #0
   82a1a:	6078      	str	r0, [r7, #4]
   82a1c:	687b      	ldr	r3, [r7, #4]
   82a1e:	695b      	ldr	r3, [r3, #20]
   82a20:	4618      	mov	r0, r3
   82a22:	370c      	adds	r7, #12
   82a24:	46bd      	mov	sp, r7
   82a26:	f85d 7b04 	ldr.w	r7, [sp], #4
   82a2a:	4770      	bx	lr

00082a2c <uart_reset_status>:
   82a2c:	b480      	push	{r7}
   82a2e:	b083      	sub	sp, #12
   82a30:	af00      	add	r7, sp, #0
   82a32:	6078      	str	r0, [r7, #4]
   82a34:	687b      	ldr	r3, [r7, #4]
   82a36:	f44f 7280 	mov.w	r2, #256	; 0x100
   82a3a:	601a      	str	r2, [r3, #0]
   82a3c:	370c      	adds	r7, #12
   82a3e:	46bd      	mov	sp, r7
   82a40:	f85d 7b04 	ldr.w	r7, [sp], #4
   82a44:	4770      	bx	lr
   82a46:	bf00      	nop

00082a48 <uart_is_tx_ready>:
   82a48:	b480      	push	{r7}
   82a4a:	b083      	sub	sp, #12
   82a4c:	af00      	add	r7, sp, #0
   82a4e:	6078      	str	r0, [r7, #4]
   82a50:	687b      	ldr	r3, [r7, #4]
   82a52:	695b      	ldr	r3, [r3, #20]
   82a54:	f003 0302 	and.w	r3, r3, #2
   82a58:	2b00      	cmp	r3, #0
   82a5a:	bf0c      	ite	eq
   82a5c:	2300      	moveq	r3, #0
   82a5e:	2301      	movne	r3, #1
   82a60:	b2db      	uxtb	r3, r3
   82a62:	4618      	mov	r0, r3
   82a64:	370c      	adds	r7, #12
   82a66:	46bd      	mov	sp, r7
   82a68:	f85d 7b04 	ldr.w	r7, [sp], #4
   82a6c:	4770      	bx	lr
   82a6e:	bf00      	nop

00082a70 <uart_is_tx_empty>:
   82a70:	b480      	push	{r7}
   82a72:	b083      	sub	sp, #12
   82a74:	af00      	add	r7, sp, #0
   82a76:	6078      	str	r0, [r7, #4]
   82a78:	687b      	ldr	r3, [r7, #4]
   82a7a:	695b      	ldr	r3, [r3, #20]
   82a7c:	f403 7300 	and.w	r3, r3, #512	; 0x200
   82a80:	2b00      	cmp	r3, #0
   82a82:	bf0c      	ite	eq
   82a84:	2300      	moveq	r3, #0
   82a86:	2301      	movne	r3, #1
   82a88:	b2db      	uxtb	r3, r3
   82a8a:	4618      	mov	r0, r3
   82a8c:	370c      	adds	r7, #12
   82a8e:	46bd      	mov	sp, r7
   82a90:	f85d 7b04 	ldr.w	r7, [sp], #4
   82a94:	4770      	bx	lr
   82a96:	bf00      	nop

00082a98 <uart_is_rx_ready>:
   82a98:	b480      	push	{r7}
   82a9a:	b083      	sub	sp, #12
   82a9c:	af00      	add	r7, sp, #0
   82a9e:	6078      	str	r0, [r7, #4]
   82aa0:	687b      	ldr	r3, [r7, #4]
   82aa2:	695b      	ldr	r3, [r3, #20]
   82aa4:	f003 0301 	and.w	r3, r3, #1
   82aa8:	2b00      	cmp	r3, #0
   82aaa:	bf0c      	ite	eq
   82aac:	2300      	moveq	r3, #0
   82aae:	2301      	movne	r3, #1
   82ab0:	b2db      	uxtb	r3, r3
   82ab2:	4618      	mov	r0, r3
   82ab4:	370c      	adds	r7, #12
   82ab6:	46bd      	mov	sp, r7
   82ab8:	f85d 7b04 	ldr.w	r7, [sp], #4
   82abc:	4770      	bx	lr
   82abe:	bf00      	nop

00082ac0 <uart_is_rx_buf_end>:
   82ac0:	b480      	push	{r7}
   82ac2:	b083      	sub	sp, #12
   82ac4:	af00      	add	r7, sp, #0
   82ac6:	6078      	str	r0, [r7, #4]
   82ac8:	687b      	ldr	r3, [r7, #4]
   82aca:	695b      	ldr	r3, [r3, #20]
   82acc:	f003 0308 	and.w	r3, r3, #8
   82ad0:	2b00      	cmp	r3, #0
   82ad2:	bf0c      	ite	eq
   82ad4:	2300      	moveq	r3, #0
   82ad6:	2301      	movne	r3, #1
   82ad8:	b2db      	uxtb	r3, r3
   82ada:	4618      	mov	r0, r3
   82adc:	370c      	adds	r7, #12
   82ade:	46bd      	mov	sp, r7
   82ae0:	f85d 7b04 	ldr.w	r7, [sp], #4
   82ae4:	4770      	bx	lr
   82ae6:	bf00      	nop

00082ae8 <uart_is_tx_buf_end>:
   82ae8:	b480      	push	{r7}
   82aea:	b083      	sub	sp, #12
   82aec:	af00      	add	r7, sp, #0
   82aee:	6078      	str	r0, [r7, #4]
   82af0:	687b      	ldr	r3, [r7, #4]
   82af2:	695b      	ldr	r3, [r3, #20]
   82af4:	f003 0310 	and.w	r3, r3, #16
   82af8:	2b00      	cmp	r3, #0
   82afa:	bf0c      	ite	eq
   82afc:	2300      	moveq	r3, #0
   82afe:	2301      	movne	r3, #1
   82b00:	b2db      	uxtb	r3, r3
   82b02:	4618      	mov	r0, r3
   82b04:	370c      	adds	r7, #12
   82b06:	46bd      	mov	sp, r7
   82b08:	f85d 7b04 	ldr.w	r7, [sp], #4
   82b0c:	4770      	bx	lr
   82b0e:	bf00      	nop

00082b10 <uart_is_rx_buf_full>:
   82b10:	b480      	push	{r7}
   82b12:	b083      	sub	sp, #12
   82b14:	af00      	add	r7, sp, #0
   82b16:	6078      	str	r0, [r7, #4]
   82b18:	687b      	ldr	r3, [r7, #4]
   82b1a:	695b      	ldr	r3, [r3, #20]
   82b1c:	f403 5380 	and.w	r3, r3, #4096	; 0x1000
   82b20:	2b00      	cmp	r3, #0
   82b22:	bf0c      	ite	eq
   82b24:	2300      	moveq	r3, #0
   82b26:	2301      	movne	r3, #1
   82b28:	b2db      	uxtb	r3, r3
   82b2a:	4618      	mov	r0, r3
   82b2c:	370c      	adds	r7, #12
   82b2e:	46bd      	mov	sp, r7
   82b30:	f85d 7b04 	ldr.w	r7, [sp], #4
   82b34:	4770      	bx	lr
   82b36:	bf00      	nop

00082b38 <uart_is_tx_buf_empty>:
   82b38:	b480      	push	{r7}
   82b3a:	b083      	sub	sp, #12
   82b3c:	af00      	add	r7, sp, #0
   82b3e:	6078      	str	r0, [r7, #4]
   82b40:	687b      	ldr	r3, [r7, #4]
   82b42:	695b      	ldr	r3, [r3, #20]
   82b44:	f403 7300 	and.w	r3, r3, #512	; 0x200
   82b48:	2b00      	cmp	r3, #0
   82b4a:	bf0c      	ite	eq
   82b4c:	2300      	moveq	r3, #0
   82b4e:	2301      	movne	r3, #1
   82b50:	b2db      	uxtb	r3, r3
   82b52:	4618      	mov	r0, r3
   82b54:	370c      	adds	r7, #12
   82b56:	46bd      	mov	sp, r7
   82b58:	f85d 7b04 	ldr.w	r7, [sp], #4
   82b5c:	4770      	bx	lr
   82b5e:	bf00      	nop

00082b60 <uart_set_clock_divisor>:
   82b60:	b480      	push	{r7}
   82b62:	b083      	sub	sp, #12
   82b64:	af00      	add	r7, sp, #0
   82b66:	6078      	str	r0, [r7, #4]
   82b68:	460b      	mov	r3, r1
   82b6a:	807b      	strh	r3, [r7, #2]
   82b6c:	887a      	ldrh	r2, [r7, #2]
   82b6e:	687b      	ldr	r3, [r7, #4]
   82b70:	621a      	str	r2, [r3, #32]
   82b72:	370c      	adds	r7, #12
   82b74:	46bd      	mov	sp, r7
   82b76:	f85d 7b04 	ldr.w	r7, [sp], #4
   82b7a:	4770      	bx	lr

00082b7c <uart_write>:
   82b7c:	b480      	push	{r7}
   82b7e:	b083      	sub	sp, #12
   82b80:	af00      	add	r7, sp, #0
   82b82:	6078      	str	r0, [r7, #4]
   82b84:	460b      	mov	r3, r1
   82b86:	70fb      	strb	r3, [r7, #3]
   82b88:	687b      	ldr	r3, [r7, #4]
   82b8a:	695b      	ldr	r3, [r3, #20]
   82b8c:	f003 0302 	and.w	r3, r3, #2
   82b90:	2b00      	cmp	r3, #0
   82b92:	d101      	bne.n	82b98 <uart_write+0x1c>
   82b94:	2301      	movs	r3, #1
   82b96:	e003      	b.n	82ba0 <uart_write+0x24>
   82b98:	78fa      	ldrb	r2, [r7, #3]
   82b9a:	687b      	ldr	r3, [r7, #4]
   82b9c:	61da      	str	r2, [r3, #28]
   82b9e:	2300      	movs	r3, #0
   82ba0:	4618      	mov	r0, r3
   82ba2:	370c      	adds	r7, #12
   82ba4:	46bd      	mov	sp, r7
   82ba6:	f85d 7b04 	ldr.w	r7, [sp], #4
   82baa:	4770      	bx	lr

00082bac <uart_read>:
   82bac:	b480      	push	{r7}
   82bae:	b083      	sub	sp, #12
   82bb0:	af00      	add	r7, sp, #0
   82bb2:	6078      	str	r0, [r7, #4]
   82bb4:	6039      	str	r1, [r7, #0]
   82bb6:	687b      	ldr	r3, [r7, #4]
   82bb8:	695b      	ldr	r3, [r3, #20]
   82bba:	f003 0301 	and.w	r3, r3, #1
   82bbe:	2b00      	cmp	r3, #0
   82bc0:	d101      	bne.n	82bc6 <uart_read+0x1a>
   82bc2:	2301      	movs	r3, #1
   82bc4:	e005      	b.n	82bd2 <uart_read+0x26>
   82bc6:	687b      	ldr	r3, [r7, #4]
   82bc8:	699b      	ldr	r3, [r3, #24]
   82bca:	b2da      	uxtb	r2, r3
   82bcc:	683b      	ldr	r3, [r7, #0]
   82bce:	701a      	strb	r2, [r3, #0]
   82bd0:	2300      	movs	r3, #0
   82bd2:	4618      	mov	r0, r3
   82bd4:	370c      	adds	r7, #12
   82bd6:	46bd      	mov	sp, r7
   82bd8:	f85d 7b04 	ldr.w	r7, [sp], #4
   82bdc:	4770      	bx	lr
   82bde:	bf00      	nop

00082be0 <uart_get_pdc_base>:
   82be0:	b480      	push	{r7}
   82be2:	b085      	sub	sp, #20
   82be4:	af00      	add	r7, sp, #0
   82be6:	6078      	str	r0, [r7, #4]
   82be8:	687a      	ldr	r2, [r7, #4]
   82bea:	f44f 6300 	mov.w	r3, #2048	; 0x800
   82bee:	f2c4 030e 	movt	r3, #16398	; 0x400e
   82bf2:	429a      	cmp	r2, r3
   82bf4:	d104      	bne.n	82c00 <uart_get_pdc_base+0x20>
   82bf6:	f44f 6310 	mov.w	r3, #2304	; 0x900
   82bfa:	f2c4 030e 	movt	r3, #16398	; 0x400e
   82bfe:	60fb      	str	r3, [r7, #12]
   82c00:	68fb      	ldr	r3, [r7, #12]
   82c02:	4618      	mov	r0, r3
   82c04:	3714      	adds	r7, #20
   82c06:	46bd      	mov	sp, r7
   82c08:	f85d 7b04 	ldr.w	r7, [sp], #4
   82c0c:	4770      	bx	lr
   82c0e:	bf00      	nop

00082c10 <atexit>:
   82c10:	4601      	mov	r1, r0
   82c12:	2000      	movs	r0, #0
   82c14:	4602      	mov	r2, r0
   82c16:	4603      	mov	r3, r0
   82c18:	f000 b966 	b.w	82ee8 <__register_exitproc>

00082c1c <__libc_fini_array>:
   82c1c:	b538      	push	{r3, r4, r5, lr}
   82c1e:	f24a 343c 	movw	r4, #41788	; 0xa33c
   82c22:	f24a 3538 	movw	r5, #41784	; 0xa338
   82c26:	f2c0 0408 	movt	r4, #8
   82c2a:	f2c0 0508 	movt	r5, #8
   82c2e:	1b64      	subs	r4, r4, r5
   82c30:	10a4      	asrs	r4, r4, #2
   82c32:	bf18      	it	ne
   82c34:	eb05 0584 	addne.w	r5, r5, r4, lsl #2
   82c38:	d005      	beq.n	82c46 <__libc_fini_array+0x2a>
   82c3a:	3c01      	subs	r4, #1
   82c3c:	f855 3d04 	ldr.w	r3, [r5, #-4]!
   82c40:	4798      	blx	r3
   82c42:	2c00      	cmp	r4, #0
   82c44:	d1f9      	bne.n	82c3a <__libc_fini_array+0x1e>
   82c46:	e8bd 4038 	ldmia.w	sp!, {r3, r4, r5, lr}
   82c4a:	f007 bb6f 	b.w	8a32c <_fini>
   82c4e:	bf00      	nop

00082c50 <__libc_init_array>:
   82c50:	b570      	push	{r4, r5, r6, lr}
   82c52:	f24a 3624 	movw	r6, #41764	; 0xa324
   82c56:	f24a 3524 	movw	r5, #41764	; 0xa324
   82c5a:	f2c0 0608 	movt	r6, #8
   82c5e:	f2c0 0508 	movt	r5, #8
   82c62:	1b76      	subs	r6, r6, r5
   82c64:	10b6      	asrs	r6, r6, #2
   82c66:	bf1c      	itt	ne
   82c68:	3d04      	subne	r5, #4
   82c6a:	2400      	movne	r4, #0
   82c6c:	d005      	beq.n	82c7a <__libc_init_array+0x2a>
   82c6e:	3401      	adds	r4, #1
   82c70:	f855 3f04 	ldr.w	r3, [r5, #4]!
   82c74:	4798      	blx	r3
   82c76:	42a6      	cmp	r6, r4
   82c78:	d1f9      	bne.n	82c6e <__libc_init_array+0x1e>
   82c7a:	f24a 362c 	movw	r6, #41772	; 0xa32c
   82c7e:	f24a 3524 	movw	r5, #41764	; 0xa324
   82c82:	f2c0 0508 	movt	r5, #8
   82c86:	f2c0 0608 	movt	r6, #8
   82c8a:	1b76      	subs	r6, r6, r5
   82c8c:	f007 fb44 	bl	8a318 <_init>
   82c90:	10b6      	asrs	r6, r6, #2
   82c92:	bf1c      	itt	ne
   82c94:	3d04      	subne	r5, #4
   82c96:	2400      	movne	r4, #0
   82c98:	d006      	beq.n	82ca8 <__libc_init_array+0x58>
   82c9a:	3401      	adds	r4, #1
   82c9c:	f855 3f04 	ldr.w	r3, [r5, #4]!
   82ca0:	4798      	blx	r3
   82ca2:	42a6      	cmp	r6, r4
   82ca4:	d1f9      	bne.n	82c9a <__libc_init_array+0x4a>
   82ca6:	bd70      	pop	{r4, r5, r6, pc}
   82ca8:	bd70      	pop	{r4, r5, r6, pc}
   82caa:	bf00      	nop

00082cac <memset>:
   82cac:	0783      	lsls	r3, r0, #30
   82cae:	b4f0      	push	{r4, r5, r6, r7}
   82cb0:	d048      	beq.n	82d44 <memset+0x98>
   82cb2:	1e54      	subs	r4, r2, #1
   82cb4:	2a00      	cmp	r2, #0
   82cb6:	d043      	beq.n	82d40 <memset+0x94>
   82cb8:	b2cd      	uxtb	r5, r1
   82cba:	4603      	mov	r3, r0
   82cbc:	e002      	b.n	82cc4 <memset+0x18>
   82cbe:	2c00      	cmp	r4, #0
   82cc0:	d03e      	beq.n	82d40 <memset+0x94>
   82cc2:	4614      	mov	r4, r2
   82cc4:	f803 5b01 	strb.w	r5, [r3], #1
   82cc8:	f013 0f03 	tst.w	r3, #3
   82ccc:	f104 32ff 	add.w	r2, r4, #4294967295	; 0xffffffff
   82cd0:	d1f5      	bne.n	82cbe <memset+0x12>
   82cd2:	2c03      	cmp	r4, #3
   82cd4:	d92d      	bls.n	82d32 <memset+0x86>
   82cd6:	b2cd      	uxtb	r5, r1
   82cd8:	2c0f      	cmp	r4, #15
   82cda:	ea45 2505 	orr.w	r5, r5, r5, lsl #8
   82cde:	ea45 4505 	orr.w	r5, r5, r5, lsl #16
   82ce2:	d918      	bls.n	82d16 <memset+0x6a>
   82ce4:	f1a4 0710 	sub.w	r7, r4, #16
   82ce8:	f103 0610 	add.w	r6, r3, #16
   82cec:	461a      	mov	r2, r3
   82cee:	093f      	lsrs	r7, r7, #4
   82cf0:	eb06 1607 	add.w	r6, r6, r7, lsl #4
   82cf4:	6015      	str	r5, [r2, #0]
   82cf6:	3210      	adds	r2, #16
   82cf8:	f842 5c0c 	str.w	r5, [r2, #-12]
   82cfc:	f842 5c08 	str.w	r5, [r2, #-8]
   82d00:	f842 5c04 	str.w	r5, [r2, #-4]
   82d04:	42b2      	cmp	r2, r6
   82d06:	d1f5      	bne.n	82cf4 <memset+0x48>
   82d08:	f004 040f 	and.w	r4, r4, #15
   82d0c:	3701      	adds	r7, #1
   82d0e:	2c03      	cmp	r4, #3
   82d10:	eb03 1307 	add.w	r3, r3, r7, lsl #4
   82d14:	d90d      	bls.n	82d32 <memset+0x86>
   82d16:	461e      	mov	r6, r3
   82d18:	4622      	mov	r2, r4
   82d1a:	3a04      	subs	r2, #4
   82d1c:	f846 5b04 	str.w	r5, [r6], #4
   82d20:	2a03      	cmp	r2, #3
   82d22:	d8fa      	bhi.n	82d1a <memset+0x6e>
   82d24:	1f22      	subs	r2, r4, #4
   82d26:	f004 0403 	and.w	r4, r4, #3
   82d2a:	f022 0203 	bic.w	r2, r2, #3
   82d2e:	3204      	adds	r2, #4
   82d30:	4413      	add	r3, r2
   82d32:	b12c      	cbz	r4, 82d40 <memset+0x94>
   82d34:	b2c9      	uxtb	r1, r1
   82d36:	441c      	add	r4, r3
   82d38:	f803 1b01 	strb.w	r1, [r3], #1
   82d3c:	42a3      	cmp	r3, r4
   82d3e:	d1fb      	bne.n	82d38 <memset+0x8c>
   82d40:	bcf0      	pop	{r4, r5, r6, r7}
   82d42:	4770      	bx	lr
   82d44:	4614      	mov	r4, r2
   82d46:	4603      	mov	r3, r0
   82d48:	e7c3      	b.n	82cd2 <memset+0x26>
   82d4a:	bf00      	nop

00082d4c <_sbrk>:
   82d4c:	b480      	push	{r7}
   82d4e:	b085      	sub	sp, #20
   82d50:	af00      	add	r7, sp, #0
   82d52:	6078      	str	r0, [r7, #4]
   82d54:	f240 53a4 	movw	r3, #1444	; 0x5a4
   82d58:	f2c2 0307 	movt	r3, #8199	; 0x2007
   82d5c:	681b      	ldr	r3, [r3, #0]
   82d5e:	2b00      	cmp	r3, #0
   82d60:	d108      	bne.n	82d74 <_sbrk+0x28>
   82d62:	f240 53a4 	movw	r3, #1444	; 0x5a4
   82d66:	f2c2 0307 	movt	r3, #8199	; 0x2007
   82d6a:	f240 52e8 	movw	r2, #1512	; 0x5e8
   82d6e:	f2c2 0207 	movt	r2, #8199	; 0x2007
   82d72:	601a      	str	r2, [r3, #0]
   82d74:	f240 53a4 	movw	r3, #1444	; 0x5a4
   82d78:	f2c2 0307 	movt	r3, #8199	; 0x2007
   82d7c:	681b      	ldr	r3, [r3, #0]
   82d7e:	60fb      	str	r3, [r7, #12]
   82d80:	f240 53a4 	movw	r3, #1444	; 0x5a4
   82d84:	f2c2 0307 	movt	r3, #8199	; 0x2007
   82d88:	681a      	ldr	r2, [r3, #0]
   82d8a:	687b      	ldr	r3, [r7, #4]
   82d8c:	441a      	add	r2, r3
   82d8e:	f240 53a4 	movw	r3, #1444	; 0x5a4
   82d92:	f2c2 0307 	movt	r3, #8199	; 0x2007
   82d96:	601a      	str	r2, [r3, #0]
   82d98:	68fb      	ldr	r3, [r7, #12]
   82d9a:	4618      	mov	r0, r3
   82d9c:	3714      	adds	r7, #20
   82d9e:	46bd      	mov	sp, r7
   82da0:	f85d 7b04 	ldr.w	r7, [sp], #4
   82da4:	4770      	bx	lr
   82da6:	bf00      	nop

00082da8 <link>:
   82da8:	b480      	push	{r7}
   82daa:	b083      	sub	sp, #12
   82dac:	af00      	add	r7, sp, #0
   82dae:	6078      	str	r0, [r7, #4]
   82db0:	6039      	str	r1, [r7, #0]
   82db2:	f04f 33ff 	mov.w	r3, #4294967295	; 0xffffffff
   82db6:	4618      	mov	r0, r3
   82db8:	370c      	adds	r7, #12
   82dba:	46bd      	mov	sp, r7
   82dbc:	f85d 7b04 	ldr.w	r7, [sp], #4
   82dc0:	4770      	bx	lr
   82dc2:	bf00      	nop

00082dc4 <_close>:
   82dc4:	b480      	push	{r7}
   82dc6:	b083      	sub	sp, #12
   82dc8:	af00      	add	r7, sp, #0
   82dca:	6078      	str	r0, [r7, #4]
   82dcc:	f04f 33ff 	mov.w	r3, #4294967295	; 0xffffffff
   82dd0:	4618      	mov	r0, r3
   82dd2:	370c      	adds	r7, #12
   82dd4:	46bd      	mov	sp, r7
   82dd6:	f85d 7b04 	ldr.w	r7, [sp], #4
   82dda:	4770      	bx	lr

00082ddc <_fstat>:
   82ddc:	b480      	push	{r7}
   82dde:	b083      	sub	sp, #12
   82de0:	af00      	add	r7, sp, #0
   82de2:	6078      	str	r0, [r7, #4]
   82de4:	6039      	str	r1, [r7, #0]
   82de6:	683b      	ldr	r3, [r7, #0]
   82de8:	f44f 5200 	mov.w	r2, #8192	; 0x2000
   82dec:	605a      	str	r2, [r3, #4]
   82dee:	2300      	movs	r3, #0
   82df0:	4618      	mov	r0, r3
   82df2:	370c      	adds	r7, #12
   82df4:	46bd      	mov	sp, r7
   82df6:	f85d 7b04 	ldr.w	r7, [sp], #4
   82dfa:	4770      	bx	lr

00082dfc <_isatty>:
   82dfc:	b480      	push	{r7}
   82dfe:	b083      	sub	sp, #12
   82e00:	af00      	add	r7, sp, #0
   82e02:	6078      	str	r0, [r7, #4]
   82e04:	2301      	movs	r3, #1
   82e06:	4618      	mov	r0, r3
   82e08:	370c      	adds	r7, #12
   82e0a:	46bd      	mov	sp, r7
   82e0c:	f85d 7b04 	ldr.w	r7, [sp], #4
   82e10:	4770      	bx	lr
   82e12:	bf00      	nop

00082e14 <_lseek>:
   82e14:	b480      	push	{r7}
   82e16:	b085      	sub	sp, #20
   82e18:	af00      	add	r7, sp, #0
   82e1a:	60f8      	str	r0, [r7, #12]
   82e1c:	60b9      	str	r1, [r7, #8]
   82e1e:	607a      	str	r2, [r7, #4]
   82e20:	2300      	movs	r3, #0
   82e22:	4618      	mov	r0, r3
   82e24:	3714      	adds	r7, #20
   82e26:	46bd      	mov	sp, r7
   82e28:	f85d 7b04 	ldr.w	r7, [sp], #4
   82e2c:	4770      	bx	lr
   82e2e:	bf00      	nop

00082e30 <_read>:
   82e30:	b480      	push	{r7}
   82e32:	b085      	sub	sp, #20
   82e34:	af00      	add	r7, sp, #0
   82e36:	60f8      	str	r0, [r7, #12]
   82e38:	60b9      	str	r1, [r7, #8]
   82e3a:	607a      	str	r2, [r7, #4]
   82e3c:	2300      	movs	r3, #0
   82e3e:	4618      	mov	r0, r3
   82e40:	3714      	adds	r7, #20
   82e42:	46bd      	mov	sp, r7
   82e44:	f85d 7b04 	ldr.w	r7, [sp], #4
   82e48:	4770      	bx	lr
   82e4a:	bf00      	nop

00082e4c <_write>:
   82e4c:	b480      	push	{r7}
   82e4e:	b087      	sub	sp, #28
   82e50:	af00      	add	r7, sp, #0
   82e52:	60f8      	str	r0, [r7, #12]
   82e54:	60b9      	str	r1, [r7, #8]
   82e56:	607a      	str	r2, [r7, #4]
   82e58:	2300      	movs	r3, #0
   82e5a:	617b      	str	r3, [r7, #20]
   82e5c:	e016      	b.n	82e8c <_write+0x40>
   82e5e:	bf00      	nop
   82e60:	f44f 6300 	mov.w	r3, #2048	; 0x800
   82e64:	f2c4 030e 	movt	r3, #16398	; 0x400e
   82e68:	695b      	ldr	r3, [r3, #20]
   82e6a:	f003 0302 	and.w	r3, r3, #2
   82e6e:	2b00      	cmp	r3, #0
   82e70:	d0f6      	beq.n	82e60 <_write+0x14>
   82e72:	f44f 6300 	mov.w	r3, #2048	; 0x800
   82e76:	f2c4 030e 	movt	r3, #16398	; 0x400e
   82e7a:	68ba      	ldr	r2, [r7, #8]
   82e7c:	7812      	ldrb	r2, [r2, #0]
   82e7e:	61da      	str	r2, [r3, #28]
   82e80:	697b      	ldr	r3, [r7, #20]
   82e82:	3301      	adds	r3, #1
   82e84:	617b      	str	r3, [r7, #20]
   82e86:	68bb      	ldr	r3, [r7, #8]
   82e88:	3301      	adds	r3, #1
   82e8a:	60bb      	str	r3, [r7, #8]
   82e8c:	697a      	ldr	r2, [r7, #20]
   82e8e:	687b      	ldr	r3, [r7, #4]
   82e90:	429a      	cmp	r2, r3
   82e92:	dbe4      	blt.n	82e5e <_write+0x12>
   82e94:	697b      	ldr	r3, [r7, #20]
   82e96:	4618      	mov	r0, r3
   82e98:	371c      	adds	r7, #28
   82e9a:	46bd      	mov	sp, r7
   82e9c:	f85d 7b04 	ldr.w	r7, [sp], #4
   82ea0:	4770      	bx	lr
   82ea2:	bf00      	nop

00082ea4 <_exit>:
   82ea4:	b580      	push	{r7, lr}
   82ea6:	b082      	sub	sp, #8
   82ea8:	af00      	add	r7, sp, #0
   82eaa:	6078      	str	r0, [r7, #4]
   82eac:	f24a 00d0 	movw	r0, #41168	; 0xa0d0
   82eb0:	f2c0 0008 	movt	r0, #8
   82eb4:	6879      	ldr	r1, [r7, #4]
   82eb6:	f000 f8ad 	bl	83014 <printf>
   82eba:	e7fe      	b.n	82eba <_exit+0x16>

00082ebc <_kill>:
   82ebc:	b480      	push	{r7}
   82ebe:	b083      	sub	sp, #12
   82ec0:	af00      	add	r7, sp, #0
   82ec2:	6078      	str	r0, [r7, #4]
   82ec4:	6039      	str	r1, [r7, #0]
   82ec6:	bf00      	nop
   82ec8:	370c      	adds	r7, #12
   82eca:	46bd      	mov	sp, r7
   82ecc:	f85d 7b04 	ldr.w	r7, [sp], #4
   82ed0:	4770      	bx	lr
   82ed2:	bf00      	nop

00082ed4 <_getpid>:
   82ed4:	b480      	push	{r7}
   82ed6:	af00      	add	r7, sp, #0
   82ed8:	f04f 33ff 	mov.w	r3, #4294967295	; 0xffffffff
   82edc:	4618      	mov	r0, r3
   82ede:	46bd      	mov	sp, r7
   82ee0:	f85d 7b04 	ldr.w	r7, [sp], #4
   82ee4:	4770      	bx	lr
   82ee6:	bf00      	nop

00082ee8 <__register_exitproc>:
   82ee8:	e92d 41f0 	stmdb	sp!, {r4, r5, r6, r7, r8, lr}
   82eec:	f24a 04c8 	movw	r4, #41160	; 0xa0c8
   82ef0:	f2c0 0408 	movt	r4, #8
   82ef4:	b084      	sub	sp, #16
   82ef6:	4607      	mov	r7, r0
   82ef8:	6825      	ldr	r5, [r4, #0]
   82efa:	6cac      	ldr	r4, [r5, #72]	; 0x48
   82efc:	2c00      	cmp	r4, #0
   82efe:	d045      	beq.n	82f8c <__register_exitproc+0xa4>
   82f00:	6866      	ldr	r6, [r4, #4]
   82f02:	2e1f      	cmp	r6, #31
   82f04:	dd1c      	ble.n	82f40 <__register_exitproc+0x58>
   82f06:	f246 0485 	movw	r4, #24709	; 0x6085
   82f0a:	f2c0 0408 	movt	r4, #8
   82f0e:	b924      	cbnz	r4, 82f1a <__register_exitproc+0x32>
   82f10:	f04f 30ff 	mov.w	r0, #4294967295	; 0xffffffff
   82f14:	b004      	add	sp, #16
   82f16:	e8bd 81f0 	ldmia.w	sp!, {r4, r5, r6, r7, r8, pc}
   82f1a:	208c      	movs	r0, #140	; 0x8c
   82f1c:	9103      	str	r1, [sp, #12]
   82f1e:	9202      	str	r2, [sp, #8]
   82f20:	9301      	str	r3, [sp, #4]
   82f22:	f003 f8af 	bl	86084 <malloc>
   82f26:	9903      	ldr	r1, [sp, #12]
   82f28:	9a02      	ldr	r2, [sp, #8]
   82f2a:	9b01      	ldr	r3, [sp, #4]
   82f2c:	4604      	mov	r4, r0
   82f2e:	2800      	cmp	r0, #0
   82f30:	d0ee      	beq.n	82f10 <__register_exitproc+0x28>
   82f32:	6cae      	ldr	r6, [r5, #72]	; 0x48
   82f34:	2000      	movs	r0, #0
   82f36:	6060      	str	r0, [r4, #4]
   82f38:	6026      	str	r6, [r4, #0]
   82f3a:	64ac      	str	r4, [r5, #72]	; 0x48
   82f3c:	f8c4 0088 	str.w	r0, [r4, #136]	; 0x88
   82f40:	b1d7      	cbz	r7, 82f78 <__register_exitproc+0x90>
   82f42:	f8d4 6088 	ldr.w	r6, [r4, #136]	; 0x88
   82f46:	b32e      	cbz	r6, 82f94 <__register_exitproc+0xac>
   82f48:	f8d6 8100 	ldr.w	r8, [r6, #256]	; 0x100
   82f4c:	6865      	ldr	r5, [r4, #4]
   82f4e:	2001      	movs	r0, #1
   82f50:	2f02      	cmp	r7, #2
   82f52:	fa00 f005 	lsl.w	r0, r0, r5
   82f56:	eb06 0c85 	add.w	ip, r6, r5, lsl #2
   82f5a:	f846 2025 	str.w	r2, [r6, r5, lsl #2]
   82f5e:	ea48 0200 	orr.w	r2, r8, r0
   82f62:	f8c6 2100 	str.w	r2, [r6, #256]	; 0x100
   82f66:	f8cc 3080 	str.w	r3, [ip, #128]	; 0x80
   82f6a:	bf02      	ittt	eq
   82f6c:	f8d6 3104 	ldreq.w	r3, [r6, #260]	; 0x104
   82f70:	4318      	orreq	r0, r3
   82f72:	f8c6 0104 	streq.w	r0, [r6, #260]	; 0x104
   82f76:	e000      	b.n	82f7a <__register_exitproc+0x92>
   82f78:	6865      	ldr	r5, [r4, #4]
   82f7a:	1cab      	adds	r3, r5, #2
   82f7c:	2000      	movs	r0, #0
   82f7e:	3501      	adds	r5, #1
   82f80:	6065      	str	r5, [r4, #4]
   82f82:	f844 1023 	str.w	r1, [r4, r3, lsl #2]
   82f86:	b004      	add	sp, #16
   82f88:	e8bd 81f0 	ldmia.w	sp!, {r4, r5, r6, r7, r8, pc}
   82f8c:	f105 044c 	add.w	r4, r5, #76	; 0x4c
   82f90:	64ac      	str	r4, [r5, #72]	; 0x48
   82f92:	e7b5      	b.n	82f00 <__register_exitproc+0x18>
   82f94:	f246 0085 	movw	r0, #24709	; 0x6085
   82f98:	f2c0 0008 	movt	r0, #8
   82f9c:	2800      	cmp	r0, #0
   82f9e:	d0b7      	beq.n	82f10 <__register_exitproc+0x28>
   82fa0:	f44f 7084 	mov.w	r0, #264	; 0x108
   82fa4:	9103      	str	r1, [sp, #12]
   82fa6:	9202      	str	r2, [sp, #8]
   82fa8:	9301      	str	r3, [sp, #4]
   82faa:	f003 f86b 	bl	86084 <malloc>
   82fae:	9903      	ldr	r1, [sp, #12]
   82fb0:	9a02      	ldr	r2, [sp, #8]
   82fb2:	9b01      	ldr	r3, [sp, #4]
   82fb4:	4606      	mov	r6, r0
   82fb6:	2800      	cmp	r0, #0
   82fb8:	d0aa      	beq.n	82f10 <__register_exitproc+0x28>
   82fba:	2000      	movs	r0, #0
   82fbc:	f8c6 0100 	str.w	r0, [r6, #256]	; 0x100
   82fc0:	f8c6 0104 	str.w	r0, [r6, #260]	; 0x104
   82fc4:	4680      	mov	r8, r0
   82fc6:	f8c4 6088 	str.w	r6, [r4, #136]	; 0x88
   82fca:	e7bf      	b.n	82f4c <__register_exitproc+0x64>

00082fcc <register_fini>:
   82fcc:	f240 0300 	movw	r3, #0
   82fd0:	f2c0 0300 	movt	r3, #0
   82fd4:	b12b      	cbz	r3, 82fe2 <register_fini+0x16>
   82fd6:	f642 401d 	movw	r0, #11293	; 0x2c1d
   82fda:	f2c0 0008 	movt	r0, #8
   82fde:	f7ff be17 	b.w	82c10 <atexit>
   82fe2:	4770      	bx	lr

00082fe4 <_printf_r>:
   82fe4:	b40e      	push	{r1, r2, r3}
   82fe6:	b530      	push	{r4, r5, lr}
   82fe8:	b082      	sub	sp, #8
   82fea:	4604      	mov	r4, r0
   82fec:	9d05      	ldr	r5, [sp, #20]
   82fee:	b118      	cbz	r0, 82ff8 <_printf_r+0x14>
   82ff0:	6983      	ldr	r3, [r0, #24]
   82ff2:	b90b      	cbnz	r3, 82ff8 <_printf_r+0x14>
   82ff4:	f002 fd26 	bl	85a44 <__sinit>
   82ff8:	4620      	mov	r0, r4
   82ffa:	ac06      	add	r4, sp, #24
   82ffc:	462a      	mov	r2, r5
   82ffe:	4623      	mov	r3, r4
   83000:	6881      	ldr	r1, [r0, #8]
   83002:	9401      	str	r4, [sp, #4]
   83004:	f000 f822 	bl	8304c <_vfprintf_r>
   83008:	b002      	add	sp, #8
   8300a:	e8bd 4030 	ldmia.w	sp!, {r4, r5, lr}
   8300e:	b003      	add	sp, #12
   83010:	4770      	bx	lr
   83012:	bf00      	nop

00083014 <printf>:
   83014:	b40f      	push	{r0, r1, r2, r3}
   83016:	f240 0304 	movw	r3, #4
   8301a:	f2c2 0307 	movt	r3, #8199	; 0x2007
   8301e:	b530      	push	{r4, r5, lr}
   83020:	b083      	sub	sp, #12
   83022:	681c      	ldr	r4, [r3, #0]
   83024:	9d06      	ldr	r5, [sp, #24]
   83026:	b124      	cbz	r4, 83032 <printf+0x1e>
   83028:	69a3      	ldr	r3, [r4, #24]
   8302a:	b913      	cbnz	r3, 83032 <printf+0x1e>
   8302c:	4620      	mov	r0, r4
   8302e:	f002 fd09 	bl	85a44 <__sinit>
   83032:	4620      	mov	r0, r4
   83034:	ac07      	add	r4, sp, #28
   83036:	462a      	mov	r2, r5
   83038:	4623      	mov	r3, r4
   8303a:	6881      	ldr	r1, [r0, #8]
   8303c:	9401      	str	r4, [sp, #4]
   8303e:	f000 f805 	bl	8304c <_vfprintf_r>
   83042:	b003      	add	sp, #12
   83044:	e8bd 4030 	ldmia.w	sp!, {r4, r5, lr}
   83048:	b004      	add	sp, #16
   8304a:	4770      	bx	lr

0008304c <_vfprintf_r>:
   8304c:	e92d 4ff0 	stmdb	sp!, {r4, r5, r6, r7, r8, r9, sl, fp, lr}
   83050:	b0c9      	sub	sp, #292	; 0x124
   83052:	461c      	mov	r4, r3
   83054:	4689      	mov	r9, r1
   83056:	920b      	str	r2, [sp, #44]	; 0x2c
   83058:	900c      	str	r0, [sp, #48]	; 0x30
   8305a:	f002 ff8d 	bl	85f78 <_localeconv_r>
   8305e:	9414      	str	r4, [sp, #80]	; 0x50
   83060:	6800      	ldr	r0, [r0, #0]
   83062:	9019      	str	r0, [sp, #100]	; 0x64
   83064:	f004 f9b0 	bl	873c8 <strlen>
   83068:	9d0c      	ldr	r5, [sp, #48]	; 0x30
   8306a:	901c      	str	r0, [sp, #112]	; 0x70
   8306c:	b11d      	cbz	r5, 83076 <_vfprintf_r+0x2a>
   8306e:	69ab      	ldr	r3, [r5, #24]
   83070:	2b00      	cmp	r3, #0
   83072:	f000 811f 	beq.w	832b4 <_vfprintf_r+0x268>
   83076:	f24a 13a0 	movw	r3, #41376	; 0xa1a0
   8307a:	f2c0 0308 	movt	r3, #8
   8307e:	4599      	cmp	r9, r3
   83080:	f000 8122 	beq.w	832c8 <_vfprintf_r+0x27c>
   83084:	f24a 1380 	movw	r3, #41344	; 0xa180
   83088:	f2c0 0308 	movt	r3, #8
   8308c:	4599      	cmp	r9, r3
   8308e:	f000 86dc 	beq.w	83e4a <_vfprintf_r+0xdfe>
   83092:	f24a 1360 	movw	r3, #41312	; 0xa160
   83096:	f2c0 0308 	movt	r3, #8
   8309a:	4599      	cmp	r9, r3
   8309c:	bf04      	itt	eq
   8309e:	9d0c      	ldreq	r5, [sp, #48]	; 0x30
   830a0:	f8d5 900c 	ldreq.w	r9, [r5, #12]
   830a4:	f8b9 300c 	ldrh.w	r3, [r9, #12]
   830a8:	b29a      	uxth	r2, r3
   830aa:	0495      	lsls	r5, r2, #18
   830ac:	d40a      	bmi.n	830c4 <_vfprintf_r+0x78>
   830ae:	f443 5300 	orr.w	r3, r3, #8192	; 0x2000
   830b2:	f8d9 1064 	ldr.w	r1, [r9, #100]	; 0x64
   830b6:	f8a9 300c 	strh.w	r3, [r9, #12]
   830ba:	b29a      	uxth	r2, r3
   830bc:	f421 5100 	bic.w	r1, r1, #8192	; 0x2000
   830c0:	f8c9 1064 	str.w	r1, [r9, #100]	; 0x64
   830c4:	0710      	lsls	r0, r2, #28
   830c6:	f140 80cc 	bpl.w	83262 <_vfprintf_r+0x216>
   830ca:	f8d9 3010 	ldr.w	r3, [r9, #16]
   830ce:	2b00      	cmp	r3, #0
   830d0:	f000 80c7 	beq.w	83262 <_vfprintf_r+0x216>
   830d4:	f002 021a 	and.w	r2, r2, #26
   830d8:	2a0a      	cmp	r2, #10
   830da:	f000 80ce 	beq.w	8327a <_vfprintf_r+0x22e>
   830de:	f24a 04ec 	movw	r4, #41196	; 0xa0ec
   830e2:	ad38      	add	r5, sp, #224	; 0xe0
   830e4:	f2c0 0408 	movt	r4, #8
   830e8:	9416      	str	r4, [sp, #88]	; 0x58
   830ea:	f10d 04df 	add.w	r4, sp, #223	; 0xdf
   830ee:	9408      	str	r4, [sp, #32]
   830f0:	9c16      	ldr	r4, [sp, #88]	; 0x58
   830f2:	af38      	add	r7, sp, #224	; 0xe0
   830f4:	9509      	str	r5, [sp, #36]	; 0x24
   830f6:	f24a 154c 	movw	r5, #41292	; 0xa14c
   830fa:	f104 0610 	add.w	r6, r4, #16
   830fe:	9c08      	ldr	r4, [sp, #32]
   83100:	2300      	movs	r3, #0
   83102:	f2c0 0508 	movt	r5, #8
   83106:	9312      	str	r3, [sp, #72]	; 0x48
   83108:	9517      	str	r5, [sp, #92]	; 0x5c
   8310a:	1b3d      	subs	r5, r7, r4
   8310c:	931b      	str	r3, [sp, #108]	; 0x6c
   8310e:	931d      	str	r3, [sp, #116]	; 0x74
   83110:	931a      	str	r3, [sp, #104]	; 0x68
   83112:	931e      	str	r3, [sp, #120]	; 0x78
   83114:	9315      	str	r3, [sp, #84]	; 0x54
   83116:	9521      	str	r5, [sp, #132]	; 0x84
   83118:	932d      	str	r3, [sp, #180]	; 0xb4
   8311a:	932c      	str	r3, [sp, #176]	; 0xb0
   8311c:	972b      	str	r7, [sp, #172]	; 0xac
   8311e:	f8cd 9040 	str.w	r9, [sp, #64]	; 0x40
   83122:	9d0b      	ldr	r5, [sp, #44]	; 0x2c
   83124:	782b      	ldrb	r3, [r5, #0]
   83126:	2b25      	cmp	r3, #37	; 0x25
   83128:	bf18      	it	ne
   8312a:	2b00      	cmpne	r3, #0
   8312c:	f000 80d0 	beq.w	832d0 <_vfprintf_r+0x284>
   83130:	1c6a      	adds	r2, r5, #1
   83132:	4614      	mov	r4, r2
   83134:	3201      	adds	r2, #1
   83136:	7823      	ldrb	r3, [r4, #0]
   83138:	2b25      	cmp	r3, #37	; 0x25
   8313a:	bf18      	it	ne
   8313c:	2b00      	cmpne	r3, #0
   8313e:	d1f8      	bne.n	83132 <_vfprintf_r+0xe6>
   83140:	980b      	ldr	r0, [sp, #44]	; 0x2c
   83142:	1a25      	subs	r5, r4, r0
   83144:	d00f      	beq.n	83166 <_vfprintf_r+0x11a>
   83146:	9b2c      	ldr	r3, [sp, #176]	; 0xb0
   83148:	9a2d      	ldr	r2, [sp, #180]	; 0xb4
   8314a:	3301      	adds	r3, #1
   8314c:	e887 0021 	stmia.w	r7, {r0, r5}
   83150:	2b07      	cmp	r3, #7
   83152:	442a      	add	r2, r5
   83154:	932c      	str	r3, [sp, #176]	; 0xb0
   83156:	bfd8      	it	le
   83158:	3708      	addle	r7, #8
   8315a:	922d      	str	r2, [sp, #180]	; 0xb4
   8315c:	f300 80a0 	bgt.w	832a0 <_vfprintf_r+0x254>
   83160:	9915      	ldr	r1, [sp, #84]	; 0x54
   83162:	4429      	add	r1, r5
   83164:	9115      	str	r1, [sp, #84]	; 0x54
   83166:	7823      	ldrb	r3, [r4, #0]
   83168:	2b00      	cmp	r3, #0
   8316a:	f000 8465 	beq.w	83a38 <_vfprintf_r+0x9ec>
   8316e:	2300      	movs	r3, #0
   83170:	1c65      	adds	r5, r4, #1
   83172:	461a      	mov	r2, r3
   83174:	f88d 308f 	strb.w	r3, [sp, #143]	; 0x8f
   83178:	9313      	str	r3, [sp, #76]	; 0x4c
   8317a:	930a      	str	r3, [sp, #40]	; 0x28
   8317c:	462b      	mov	r3, r5
   8317e:	f894 9001 	ldrb.w	r9, [r4, #1]
   83182:	f04f 34ff 	mov.w	r4, #4294967295	; 0xffffffff
   83186:	950b      	str	r5, [sp, #44]	; 0x2c
   83188:	940d      	str	r4, [sp, #52]	; 0x34
   8318a:	3301      	adds	r3, #1
   8318c:	f1a9 0120 	sub.w	r1, r9, #32
   83190:	2958      	cmp	r1, #88	; 0x58
   83192:	f200 8430 	bhi.w	839f6 <_vfprintf_r+0x9aa>
   83196:	e8df f011 	tbh	[pc, r1, lsl #1]
   8319a:	025b      	.short	0x025b
   8319c:	042e042e 	.word	0x042e042e
   831a0:	042e035a 	.word	0x042e035a
   831a4:	042e042e 	.word	0x042e042e
   831a8:	042e042e 	.word	0x042e042e
   831ac:	0361042e 	.word	0x0361042e
   831b0:	042e0356 	.word	0x042e0356
   831b4:	0262005d 	.word	0x0262005d
   831b8:	0282042e 	.word	0x0282042e
   831bc:	02890289 	.word	0x02890289
   831c0:	02890289 	.word	0x02890289
   831c4:	02890289 	.word	0x02890289
   831c8:	02890289 	.word	0x02890289
   831cc:	042e0289 	.word	0x042e0289
   831d0:	042e042e 	.word	0x042e042e
   831d4:	042e042e 	.word	0x042e042e
   831d8:	042e042e 	.word	0x042e042e
   831dc:	042e042e 	.word	0x042e042e
   831e0:	029a042e 	.word	0x029a042e
   831e4:	042e02bb 	.word	0x042e02bb
   831e8:	042e02bb 	.word	0x042e02bb
   831ec:	042e042e 	.word	0x042e042e
   831f0:	02f8042e 	.word	0x02f8042e
   831f4:	042e042e 	.word	0x042e042e
   831f8:	042e03f9 	.word	0x042e03f9
   831fc:	042e042e 	.word	0x042e042e
   83200:	042e042e 	.word	0x042e042e
   83204:	042e0415 	.word	0x042e0415
   83208:	036d042e 	.word	0x036d042e
   8320c:	042e042e 	.word	0x042e042e
   83210:	042e042e 	.word	0x042e042e
   83214:	042e042e 	.word	0x042e042e
   83218:	042e042e 	.word	0x042e042e
   8321c:	042e042e 	.word	0x042e042e
   83220:	039b0387 	.word	0x039b0387
   83224:	02bb02bb 	.word	0x02bb02bb
   83228:	03b302bb 	.word	0x03b302bb
   8322c:	042e039b 	.word	0x042e039b
   83230:	03ba042e 	.word	0x03ba042e
   83234:	03cd042e 	.word	0x03cd042e
   83238:	03e1024a 	.word	0x03e1024a
   8323c:	042e02ff 	.word	0x042e02ff
   83240:	042e0306 	.word	0x042e0306
   83244:	042e009d 	.word	0x042e009d
   83248:	0330042e 	.word	0x0330042e
   8324c:	9c13      	ldr	r4, [sp, #76]	; 0x4c
   8324e:	9114      	str	r1, [sp, #80]	; 0x50
   83250:	4264      	negs	r4, r4
   83252:	9413      	str	r4, [sp, #76]	; 0x4c
   83254:	9d0a      	ldr	r5, [sp, #40]	; 0x28
   83256:	f045 0504 	orr.w	r5, r5, #4
   8325a:	950a      	str	r5, [sp, #40]	; 0x28
   8325c:	f893 9000 	ldrb.w	r9, [r3]
   83260:	e793      	b.n	8318a <_vfprintf_r+0x13e>
   83262:	980c      	ldr	r0, [sp, #48]	; 0x30
   83264:	4649      	mov	r1, r9
   83266:	f001 f9e9 	bl	8463c <__swsetup_r>
   8326a:	b9a0      	cbnz	r0, 83296 <_vfprintf_r+0x24a>
   8326c:	f8b9 200c 	ldrh.w	r2, [r9, #12]
   83270:	f002 021a 	and.w	r2, r2, #26
   83274:	2a0a      	cmp	r2, #10
   83276:	f47f af32 	bne.w	830de <_vfprintf_r+0x92>
   8327a:	f9b9 300e 	ldrsh.w	r3, [r9, #14]
   8327e:	2b00      	cmp	r3, #0
   83280:	f6ff af2d 	blt.w	830de <_vfprintf_r+0x92>
   83284:	980c      	ldr	r0, [sp, #48]	; 0x30
   83286:	4649      	mov	r1, r9
   83288:	9a0b      	ldr	r2, [sp, #44]	; 0x2c
   8328a:	4623      	mov	r3, r4
   8328c:	f001 f998 	bl	845c0 <__sbprintf>
   83290:	b049      	add	sp, #292	; 0x124
   83292:	e8bd 8ff0 	ldmia.w	sp!, {r4, r5, r6, r7, r8, r9, sl, fp, pc}
   83296:	f04f 30ff 	mov.w	r0, #4294967295	; 0xffffffff
   8329a:	b049      	add	sp, #292	; 0x124
   8329c:	e8bd 8ff0 	ldmia.w	sp!, {r4, r5, r6, r7, r8, r9, sl, fp, pc}
   832a0:	980c      	ldr	r0, [sp, #48]	; 0x30
   832a2:	aa2b      	add	r2, sp, #172	; 0xac
   832a4:	9910      	ldr	r1, [sp, #64]	; 0x40
   832a6:	f004 f8fb 	bl	874a0 <__sprint_r>
   832aa:	2800      	cmp	r0, #0
   832ac:	f040 84ea 	bne.w	83c84 <_vfprintf_r+0xc38>
   832b0:	af38      	add	r7, sp, #224	; 0xe0
   832b2:	e755      	b.n	83160 <_vfprintf_r+0x114>
   832b4:	4628      	mov	r0, r5
   832b6:	f002 fbc5 	bl	85a44 <__sinit>
   832ba:	f24a 13a0 	movw	r3, #41376	; 0xa1a0
   832be:	f2c0 0308 	movt	r3, #8
   832c2:	4599      	cmp	r9, r3
   832c4:	f47f aede 	bne.w	83084 <_vfprintf_r+0x38>
   832c8:	9d0c      	ldr	r5, [sp, #48]	; 0x30
   832ca:	f8d5 9004 	ldr.w	r9, [r5, #4]
   832ce:	e6e9      	b.n	830a4 <_vfprintf_r+0x58>
   832d0:	9c0b      	ldr	r4, [sp, #44]	; 0x2c
   832d2:	e748      	b.n	83166 <_vfprintf_r+0x11a>
   832d4:	9d0a      	ldr	r5, [sp, #40]	; 0x28
   832d6:	930b      	str	r3, [sp, #44]	; 0x2c
   832d8:	06ab      	lsls	r3, r5, #26
   832da:	f140 837c 	bpl.w	839d6 <_vfprintf_r+0x98a>
   832de:	9c14      	ldr	r4, [sp, #80]	; 0x50
   832e0:	2301      	movs	r3, #1
   832e2:	1de2      	adds	r2, r4, #7
   832e4:	f022 0207 	bic.w	r2, r2, #7
   832e8:	f102 0508 	add.w	r5, r2, #8
   832ec:	9514      	str	r5, [sp, #80]	; 0x50
   832ee:	e9d2 4500 	ldrd	r4, r5, [r2]
   832f2:	f04f 0a00 	mov.w	sl, #0
   832f6:	f88d a08f 	strb.w	sl, [sp, #143]	; 0x8f
   832fa:	9a0d      	ldr	r2, [sp, #52]	; 0x34
   832fc:	2a00      	cmp	r2, #0
   832fe:	bfa2      	ittt	ge
   83300:	980a      	ldrge	r0, [sp, #40]	; 0x28
   83302:	f020 0080 	bicge.w	r0, r0, #128	; 0x80
   83306:	900a      	strge	r0, [sp, #40]	; 0x28
   83308:	ea54 0105 	orrs.w	r1, r4, r5
   8330c:	980d      	ldr	r0, [sp, #52]	; 0x34
   8330e:	bf0c      	ite	eq
   83310:	2200      	moveq	r2, #0
   83312:	2201      	movne	r2, #1
   83314:	2800      	cmp	r0, #0
   83316:	bf18      	it	ne
   83318:	f042 0201 	orrne.w	r2, r2, #1
   8331c:	2a00      	cmp	r2, #0
   8331e:	f000 83ff 	beq.w	83b20 <_vfprintf_r+0xad4>
   83322:	2b01      	cmp	r3, #1
   83324:	f000 851f 	beq.w	83d66 <_vfprintf_r+0xd1a>
   83328:	2b02      	cmp	r3, #2
   8332a:	f10d 02df 	add.w	r2, sp, #223	; 0xdf
   8332e:	f040 8162 	bne.w	835f6 <_vfprintf_r+0x5aa>
   83332:	f8dd c068 	ldr.w	ip, [sp, #104]	; 0x68
   83336:	f004 010f 	and.w	r1, r4, #15
   8333a:	0923      	lsrs	r3, r4, #4
   8333c:	ea43 7305 	orr.w	r3, r3, r5, lsl #28
   83340:	0928      	lsrs	r0, r5, #4
   83342:	f81c 1001 	ldrb.w	r1, [ip, r1]
   83346:	461c      	mov	r4, r3
   83348:	4605      	mov	r5, r0
   8334a:	4690      	mov	r8, r2
   8334c:	ea54 0005 	orrs.w	r0, r4, r5
   83350:	f102 32ff 	add.w	r2, r2, #4294967295	; 0xffffffff
   83354:	f888 1000 	strb.w	r1, [r8]
   83358:	d1ed      	bne.n	83336 <_vfprintf_r+0x2ea>
   8335a:	9b09      	ldr	r3, [sp, #36]	; 0x24
   8335c:	ebc8 0303 	rsb	r3, r8, r3
   83360:	9311      	str	r3, [sp, #68]	; 0x44
   83362:	9c0d      	ldr	r4, [sp, #52]	; 0x34
   83364:	9d11      	ldr	r5, [sp, #68]	; 0x44
   83366:	42a5      	cmp	r5, r4
   83368:	bfb8      	it	lt
   8336a:	4625      	movlt	r5, r4
   8336c:	2400      	movs	r4, #0
   8336e:	950e      	str	r5, [sp, #56]	; 0x38
   83370:	9418      	str	r4, [sp, #96]	; 0x60
   83372:	f1ba 0f00 	cmp.w	sl, #0
   83376:	d002      	beq.n	8337e <_vfprintf_r+0x332>
   83378:	9c0e      	ldr	r4, [sp, #56]	; 0x38
   8337a:	3401      	adds	r4, #1
   8337c:	940e      	str	r4, [sp, #56]	; 0x38
   8337e:	9d0a      	ldr	r5, [sp, #40]	; 0x28
   83380:	f015 0502 	ands.w	r5, r5, #2
   83384:	950f      	str	r5, [sp, #60]	; 0x3c
   83386:	bf1e      	ittt	ne
   83388:	9c0e      	ldrne	r4, [sp, #56]	; 0x38
   8338a:	3402      	addne	r4, #2
   8338c:	940e      	strne	r4, [sp, #56]	; 0x38
   8338e:	9c0a      	ldr	r4, [sp, #40]	; 0x28
   83390:	f014 0584 	ands.w	r5, r4, #132	; 0x84
   83394:	f040 834e 	bne.w	83a34 <_vfprintf_r+0x9e8>
   83398:	9c13      	ldr	r4, [sp, #76]	; 0x4c
   8339a:	980e      	ldr	r0, [sp, #56]	; 0x38
   8339c:	ebc0 0b04 	rsb	fp, r0, r4
   833a0:	f1bb 0f00 	cmp.w	fp, #0
   833a4:	f340 8346 	ble.w	83a34 <_vfprintf_r+0x9e8>
   833a8:	f1bb 0f10 	cmp.w	fp, #16
   833ac:	f24a 0aec 	movw	sl, #41196	; 0xa0ec
   833b0:	992d      	ldr	r1, [sp, #180]	; 0xb4
   833b2:	bfdc      	itt	le
   833b4:	f2c0 0a08 	movtle	sl, #8
   833b8:	9a2c      	ldrle	r2, [sp, #176]	; 0xb0
   833ba:	dd34      	ble.n	83426 <_vfprintf_r+0x3da>
   833bc:	f2c0 0a08 	movt	sl, #8
   833c0:	f8cd 907c 	str.w	r9, [sp, #124]	; 0x7c
   833c4:	f8cd 8080 	str.w	r8, [sp, #128]	; 0x80
   833c8:	2410      	movs	r4, #16
   833ca:	46d8      	mov	r8, fp
   833cc:	9a2c      	ldr	r2, [sp, #176]	; 0xb0
   833ce:	46d3      	mov	fp, sl
   833d0:	f8dd 9040 	ldr.w	r9, [sp, #64]	; 0x40
   833d4:	46aa      	mov	sl, r5
   833d6:	9d16      	ldr	r5, [sp, #88]	; 0x58
   833d8:	e004      	b.n	833e4 <_vfprintf_r+0x398>
   833da:	f1a8 0810 	sub.w	r8, r8, #16
   833de:	f1b8 0f10 	cmp.w	r8, #16
   833e2:	dd19      	ble.n	83418 <_vfprintf_r+0x3cc>
   833e4:	3201      	adds	r2, #1
   833e6:	3110      	adds	r1, #16
   833e8:	2a07      	cmp	r2, #7
   833ea:	603d      	str	r5, [r7, #0]
   833ec:	607c      	str	r4, [r7, #4]
   833ee:	f107 0708 	add.w	r7, r7, #8
   833f2:	922c      	str	r2, [sp, #176]	; 0xb0
   833f4:	912d      	str	r1, [sp, #180]	; 0xb4
   833f6:	ddf0      	ble.n	833da <_vfprintf_r+0x38e>
   833f8:	980c      	ldr	r0, [sp, #48]	; 0x30
   833fa:	4649      	mov	r1, r9
   833fc:	aa2b      	add	r2, sp, #172	; 0xac
   833fe:	af38      	add	r7, sp, #224	; 0xe0
   83400:	f004 f84e 	bl	874a0 <__sprint_r>
   83404:	2800      	cmp	r0, #0
   83406:	f040 8320 	bne.w	83a4a <_vfprintf_r+0x9fe>
   8340a:	f1a8 0810 	sub.w	r8, r8, #16
   8340e:	992d      	ldr	r1, [sp, #180]	; 0xb4
   83410:	f1b8 0f10 	cmp.w	r8, #16
   83414:	9a2c      	ldr	r2, [sp, #176]	; 0xb0
   83416:	dce5      	bgt.n	833e4 <_vfprintf_r+0x398>
   83418:	4655      	mov	r5, sl
   8341a:	f8dd 907c 	ldr.w	r9, [sp, #124]	; 0x7c
   8341e:	46da      	mov	sl, fp
   83420:	46c3      	mov	fp, r8
   83422:	f8dd 8080 	ldr.w	r8, [sp, #128]	; 0x80
   83426:	3201      	adds	r2, #1
   83428:	eb0b 0401 	add.w	r4, fp, r1
   8342c:	2a07      	cmp	r2, #7
   8342e:	922c      	str	r2, [sp, #176]	; 0xb0
   83430:	942d      	str	r4, [sp, #180]	; 0xb4
   83432:	e887 0c00 	stmia.w	r7, {sl, fp}
   83436:	f300 82f2 	bgt.w	83a1e <_vfprintf_r+0x9d2>
   8343a:	f89d a08f 	ldrb.w	sl, [sp, #143]	; 0x8f
   8343e:	3708      	adds	r7, #8
   83440:	f1ba 0f00 	cmp.w	sl, #0
   83444:	d00e      	beq.n	83464 <_vfprintf_r+0x418>
   83446:	9b2c      	ldr	r3, [sp, #176]	; 0xb0
   83448:	f10d 028f 	add.w	r2, sp, #143	; 0x8f
   8344c:	3401      	adds	r4, #1
   8344e:	603a      	str	r2, [r7, #0]
   83450:	3301      	adds	r3, #1
   83452:	2201      	movs	r2, #1
   83454:	2b07      	cmp	r3, #7
   83456:	607a      	str	r2, [r7, #4]
   83458:	942d      	str	r4, [sp, #180]	; 0xb4
   8345a:	bfd8      	it	le
   8345c:	3708      	addle	r7, #8
   8345e:	932c      	str	r3, [sp, #176]	; 0xb0
   83460:	f300 8418 	bgt.w	83c94 <_vfprintf_r+0xc48>
   83464:	9b0f      	ldr	r3, [sp, #60]	; 0x3c
   83466:	b16b      	cbz	r3, 83484 <_vfprintf_r+0x438>
   83468:	9b2c      	ldr	r3, [sp, #176]	; 0xb0
   8346a:	aa24      	add	r2, sp, #144	; 0x90
   8346c:	3402      	adds	r4, #2
   8346e:	603a      	str	r2, [r7, #0]
   83470:	3301      	adds	r3, #1
   83472:	2202      	movs	r2, #2
   83474:	2b07      	cmp	r3, #7
   83476:	607a      	str	r2, [r7, #4]
   83478:	942d      	str	r4, [sp, #180]	; 0xb4
   8347a:	bfd8      	it	le
   8347c:	3708      	addle	r7, #8
   8347e:	932c      	str	r3, [sp, #176]	; 0xb0
   83480:	f300 8413 	bgt.w	83caa <_vfprintf_r+0xc5e>
   83484:	2d80      	cmp	r5, #128	; 0x80
   83486:	f000 835e 	beq.w	83b46 <_vfprintf_r+0xafa>
   8348a:	9d0d      	ldr	r5, [sp, #52]	; 0x34
   8348c:	9b11      	ldr	r3, [sp, #68]	; 0x44
   8348e:	ebc3 0a05 	rsb	sl, r3, r5
   83492:	f1ba 0f00 	cmp.w	sl, #0
   83496:	dd43      	ble.n	83520 <_vfprintf_r+0x4d4>
   83498:	f1ba 0f10 	cmp.w	sl, #16
   8349c:	9b2c      	ldr	r3, [sp, #176]	; 0xb0
   8349e:	bfdc      	itt	le
   834a0:	4d9a      	ldrle	r5, [pc, #616]	; (8370c <_vfprintf_r+0x6c0>)
   834a2:	950f      	strle	r5, [sp, #60]	; 0x3c
   834a4:	dd27      	ble.n	834f6 <_vfprintf_r+0x4aa>
   834a6:	4899      	ldr	r0, [pc, #612]	; (8370c <_vfprintf_r+0x6c0>)
   834a8:	4622      	mov	r2, r4
   834aa:	2510      	movs	r5, #16
   834ac:	f8dd b030 	ldr.w	fp, [sp, #48]	; 0x30
   834b0:	9c10      	ldr	r4, [sp, #64]	; 0x40
   834b2:	900f      	str	r0, [sp, #60]	; 0x3c
   834b4:	e004      	b.n	834c0 <_vfprintf_r+0x474>
   834b6:	f1aa 0a10 	sub.w	sl, sl, #16
   834ba:	f1ba 0f10 	cmp.w	sl, #16
   834be:	dd19      	ble.n	834f4 <_vfprintf_r+0x4a8>
   834c0:	3301      	adds	r3, #1
   834c2:	3210      	adds	r2, #16
   834c4:	2b07      	cmp	r3, #7
   834c6:	603e      	str	r6, [r7, #0]
   834c8:	607d      	str	r5, [r7, #4]
   834ca:	f107 0708 	add.w	r7, r7, #8
   834ce:	932c      	str	r3, [sp, #176]	; 0xb0
   834d0:	922d      	str	r2, [sp, #180]	; 0xb4
   834d2:	ddf0      	ble.n	834b6 <_vfprintf_r+0x46a>
   834d4:	4658      	mov	r0, fp
   834d6:	4621      	mov	r1, r4
   834d8:	aa2b      	add	r2, sp, #172	; 0xac
   834da:	af38      	add	r7, sp, #224	; 0xe0
   834dc:	f003 ffe0 	bl	874a0 <__sprint_r>
   834e0:	2800      	cmp	r0, #0
   834e2:	f040 8375 	bne.w	83bd0 <_vfprintf_r+0xb84>
   834e6:	f1aa 0a10 	sub.w	sl, sl, #16
   834ea:	9a2d      	ldr	r2, [sp, #180]	; 0xb4
   834ec:	f1ba 0f10 	cmp.w	sl, #16
   834f0:	9b2c      	ldr	r3, [sp, #176]	; 0xb0
   834f2:	dce5      	bgt.n	834c0 <_vfprintf_r+0x474>
   834f4:	4614      	mov	r4, r2
   834f6:	3301      	adds	r3, #1
   834f8:	9d0f      	ldr	r5, [sp, #60]	; 0x3c
   834fa:	2b07      	cmp	r3, #7
   834fc:	4454      	add	r4, sl
   834fe:	932c      	str	r3, [sp, #176]	; 0xb0
   83500:	e887 0420 	stmia.w	r7, {r5, sl}
   83504:	bfd8      	it	le
   83506:	3708      	addle	r7, #8
   83508:	942d      	str	r4, [sp, #180]	; 0xb4
   8350a:	dd09      	ble.n	83520 <_vfprintf_r+0x4d4>
   8350c:	980c      	ldr	r0, [sp, #48]	; 0x30
   8350e:	aa2b      	add	r2, sp, #172	; 0xac
   83510:	9910      	ldr	r1, [sp, #64]	; 0x40
   83512:	f003 ffc5 	bl	874a0 <__sprint_r>
   83516:	2800      	cmp	r0, #0
   83518:	f040 83b4 	bne.w	83c84 <_vfprintf_r+0xc38>
   8351c:	9c2d      	ldr	r4, [sp, #180]	; 0xb4
   8351e:	af38      	add	r7, sp, #224	; 0xe0
   83520:	9d0a      	ldr	r5, [sp, #40]	; 0x28
   83522:	05ea      	lsls	r2, r5, #23
   83524:	f100 829a 	bmi.w	83a5c <_vfprintf_r+0xa10>
   83528:	9b2c      	ldr	r3, [sp, #176]	; 0xb0
   8352a:	9d11      	ldr	r5, [sp, #68]	; 0x44
   8352c:	3301      	adds	r3, #1
   8352e:	f8c7 8000 	str.w	r8, [r7]
   83532:	2b07      	cmp	r3, #7
   83534:	442c      	add	r4, r5
   83536:	607d      	str	r5, [r7, #4]
   83538:	942d      	str	r4, [sp, #180]	; 0xb4
   8353a:	932c      	str	r3, [sp, #176]	; 0xb0
   8353c:	f300 8391 	bgt.w	83c62 <_vfprintf_r+0xc16>
   83540:	3708      	adds	r7, #8
   83542:	9d0a      	ldr	r5, [sp, #40]	; 0x28
   83544:	076a      	lsls	r2, r5, #29
   83546:	d547      	bpl.n	835d8 <_vfprintf_r+0x58c>
   83548:	9813      	ldr	r0, [sp, #76]	; 0x4c
   8354a:	990e      	ldr	r1, [sp, #56]	; 0x38
   8354c:	1a45      	subs	r5, r0, r1
   8354e:	2d00      	cmp	r5, #0
   83550:	dd42      	ble.n	835d8 <_vfprintf_r+0x58c>
   83552:	2d10      	cmp	r5, #16
   83554:	f24a 0aec 	movw	sl, #41196	; 0xa0ec
   83558:	9b2c      	ldr	r3, [sp, #176]	; 0xb0
   8355a:	f2c0 0a08 	movt	sl, #8
   8355e:	dd29      	ble.n	835b4 <_vfprintf_r+0x568>
   83560:	f8cd a028 	str.w	sl, [sp, #40]	; 0x28
   83564:	f04f 0810 	mov.w	r8, #16
   83568:	f8dd 9030 	ldr.w	r9, [sp, #48]	; 0x30
   8356c:	f8dd b040 	ldr.w	fp, [sp, #64]	; 0x40
   83570:	f8dd a058 	ldr.w	sl, [sp, #88]	; 0x58
   83574:	e002      	b.n	8357c <_vfprintf_r+0x530>
   83576:	3d10      	subs	r5, #16
   83578:	2d10      	cmp	r5, #16
   8357a:	dd19      	ble.n	835b0 <_vfprintf_r+0x564>
   8357c:	3301      	adds	r3, #1
   8357e:	3410      	adds	r4, #16
   83580:	2b07      	cmp	r3, #7
   83582:	f8c7 a000 	str.w	sl, [r7]
   83586:	f8c7 8004 	str.w	r8, [r7, #4]
   8358a:	f107 0708 	add.w	r7, r7, #8
   8358e:	932c      	str	r3, [sp, #176]	; 0xb0
   83590:	942d      	str	r4, [sp, #180]	; 0xb4
   83592:	ddf0      	ble.n	83576 <_vfprintf_r+0x52a>
   83594:	4648      	mov	r0, r9
   83596:	4659      	mov	r1, fp
   83598:	aa2b      	add	r2, sp, #172	; 0xac
   8359a:	af38      	add	r7, sp, #224	; 0xe0
   8359c:	f003 ff80 	bl	874a0 <__sprint_r>
   835a0:	2800      	cmp	r0, #0
   835a2:	f040 84d5 	bne.w	83f50 <_vfprintf_r+0xf04>
   835a6:	3d10      	subs	r5, #16
   835a8:	9c2d      	ldr	r4, [sp, #180]	; 0xb4
   835aa:	2d10      	cmp	r5, #16
   835ac:	9b2c      	ldr	r3, [sp, #176]	; 0xb0
   835ae:	dce5      	bgt.n	8357c <_vfprintf_r+0x530>
   835b0:	f8dd a028 	ldr.w	sl, [sp, #40]	; 0x28
   835b4:	3301      	adds	r3, #1
   835b6:	442c      	add	r4, r5
   835b8:	2b07      	cmp	r3, #7
   835ba:	932c      	str	r3, [sp, #176]	; 0xb0
   835bc:	942d      	str	r4, [sp, #180]	; 0xb4
   835be:	f8c7 a000 	str.w	sl, [r7]
   835c2:	607d      	str	r5, [r7, #4]
   835c4:	dd08      	ble.n	835d8 <_vfprintf_r+0x58c>
   835c6:	980c      	ldr	r0, [sp, #48]	; 0x30
   835c8:	aa2b      	add	r2, sp, #172	; 0xac
   835ca:	9910      	ldr	r1, [sp, #64]	; 0x40
   835cc:	f003 ff68 	bl	874a0 <__sprint_r>
   835d0:	2800      	cmp	r0, #0
   835d2:	f040 8357 	bne.w	83c84 <_vfprintf_r+0xc38>
   835d6:	9c2d      	ldr	r4, [sp, #180]	; 0xb4
   835d8:	9d15      	ldr	r5, [sp, #84]	; 0x54
   835da:	990e      	ldr	r1, [sp, #56]	; 0x38
   835dc:	9813      	ldr	r0, [sp, #76]	; 0x4c
   835de:	4281      	cmp	r1, r0
   835e0:	bfac      	ite	ge
   835e2:	186d      	addge	r5, r5, r1
   835e4:	182d      	addlt	r5, r5, r0
   835e6:	9515      	str	r5, [sp, #84]	; 0x54
   835e8:	2c00      	cmp	r4, #0
   835ea:	f040 8343 	bne.w	83c74 <_vfprintf_r+0xc28>
   835ee:	2300      	movs	r3, #0
   835f0:	af38      	add	r7, sp, #224	; 0xe0
   835f2:	932c      	str	r3, [sp, #176]	; 0xb0
   835f4:	e595      	b.n	83122 <_vfprintf_r+0xd6>
   835f6:	08e3      	lsrs	r3, r4, #3
   835f8:	08e9      	lsrs	r1, r5, #3
   835fa:	ea43 7345 	orr.w	r3, r3, r5, lsl #29
   835fe:	4690      	mov	r8, r2
   83600:	460d      	mov	r5, r1
   83602:	f004 0207 	and.w	r2, r4, #7
   83606:	461c      	mov	r4, r3
   83608:	f102 0330 	add.w	r3, r2, #48	; 0x30
   8360c:	ea54 0105 	orrs.w	r1, r4, r5
   83610:	f108 32ff 	add.w	r2, r8, #4294967295	; 0xffffffff
   83614:	f888 3000 	strb.w	r3, [r8]
   83618:	d1ed      	bne.n	835f6 <_vfprintf_r+0x5aa>
   8361a:	9c0a      	ldr	r4, [sp, #40]	; 0x28
   8361c:	4641      	mov	r1, r8
   8361e:	07e0      	lsls	r0, r4, #31
   83620:	f100 84f7 	bmi.w	84012 <_vfprintf_r+0xfc6>
   83624:	9d09      	ldr	r5, [sp, #36]	; 0x24
   83626:	ebc8 0505 	rsb	r5, r8, r5
   8362a:	9511      	str	r5, [sp, #68]	; 0x44
   8362c:	e699      	b.n	83362 <_vfprintf_r+0x316>
   8362e:	9d0a      	ldr	r5, [sp, #40]	; 0x28
   83630:	930b      	str	r3, [sp, #44]	; 0x2c
   83632:	f015 0320 	ands.w	r3, r5, #32
   83636:	f000 81b3 	beq.w	839a0 <_vfprintf_r+0x954>
   8363a:	9c14      	ldr	r4, [sp, #80]	; 0x50
   8363c:	2300      	movs	r3, #0
   8363e:	1de2      	adds	r2, r4, #7
   83640:	f022 0207 	bic.w	r2, r2, #7
   83644:	f102 0508 	add.w	r5, r2, #8
   83648:	9514      	str	r5, [sp, #80]	; 0x50
   8364a:	e9d2 4500 	ldrd	r4, r5, [r2]
   8364e:	e650      	b.n	832f2 <_vfprintf_r+0x2a6>
   83650:	f893 9000 	ldrb.w	r9, [r3]
   83654:	2a00      	cmp	r2, #0
   83656:	f47f ad98 	bne.w	8318a <_vfprintf_r+0x13e>
   8365a:	2220      	movs	r2, #32
   8365c:	e595      	b.n	8318a <_vfprintf_r+0x13e>
   8365e:	f893 9000 	ldrb.w	r9, [r3]
   83662:	1c58      	adds	r0, r3, #1
   83664:	f1b9 0f2a 	cmp.w	r9, #42	; 0x2a
   83668:	f000 877d 	beq.w	84566 <_vfprintf_r+0x151a>
   8366c:	f1a9 0130 	sub.w	r1, r9, #48	; 0x30
   83670:	2909      	cmp	r1, #9
   83672:	bf82      	ittt	hi
   83674:	2400      	movhi	r4, #0
   83676:	4603      	movhi	r3, r0
   83678:	940d      	strhi	r4, [sp, #52]	; 0x34
   8367a:	f63f ad87 	bhi.w	8318c <_vfprintf_r+0x140>
   8367e:	2300      	movs	r3, #0
   83680:	eb03 0383 	add.w	r3, r3, r3, lsl #2
   83684:	f810 9b01 	ldrb.w	r9, [r0], #1
   83688:	eb01 0343 	add.w	r3, r1, r3, lsl #1
   8368c:	f1a9 0130 	sub.w	r1, r9, #48	; 0x30
   83690:	2909      	cmp	r1, #9
   83692:	d9f5      	bls.n	83680 <_vfprintf_r+0x634>
   83694:	ea43 73e3 	orr.w	r3, r3, r3, asr #31
   83698:	930d      	str	r3, [sp, #52]	; 0x34
   8369a:	4603      	mov	r3, r0
   8369c:	e576      	b.n	8318c <_vfprintf_r+0x140>
   8369e:	9c0a      	ldr	r4, [sp, #40]	; 0x28
   836a0:	f044 0480 	orr.w	r4, r4, #128	; 0x80
   836a4:	940a      	str	r4, [sp, #40]	; 0x28
   836a6:	f893 9000 	ldrb.w	r9, [r3]
   836aa:	e56e      	b.n	8318a <_vfprintf_r+0x13e>
   836ac:	2500      	movs	r5, #0
   836ae:	f1a9 0130 	sub.w	r1, r9, #48	; 0x30
   836b2:	4628      	mov	r0, r5
   836b4:	9513      	str	r5, [sp, #76]	; 0x4c
   836b6:	eb00 0080 	add.w	r0, r0, r0, lsl #2
   836ba:	f813 9b01 	ldrb.w	r9, [r3], #1
   836be:	eb01 0040 	add.w	r0, r1, r0, lsl #1
   836c2:	f1a9 0130 	sub.w	r1, r9, #48	; 0x30
   836c6:	2909      	cmp	r1, #9
   836c8:	d9f5      	bls.n	836b6 <_vfprintf_r+0x66a>
   836ca:	9013      	str	r0, [sp, #76]	; 0x4c
   836cc:	e55e      	b.n	8318c <_vfprintf_r+0x140>
   836ce:	9d0a      	ldr	r5, [sp, #40]	; 0x28
   836d0:	930b      	str	r3, [sp, #44]	; 0x2c
   836d2:	f045 0510 	orr.w	r5, r5, #16
   836d6:	950a      	str	r5, [sp, #40]	; 0x28
   836d8:	9c0a      	ldr	r4, [sp, #40]	; 0x28
   836da:	f88d 208f 	strb.w	r2, [sp, #143]	; 0x8f
   836de:	06a1      	lsls	r1, r4, #26
   836e0:	f140 80fd 	bpl.w	838de <_vfprintf_r+0x892>
   836e4:	9d14      	ldr	r5, [sp, #80]	; 0x50
   836e6:	1deb      	adds	r3, r5, #7
   836e8:	f023 0307 	bic.w	r3, r3, #7
   836ec:	f103 0408 	add.w	r4, r3, #8
   836f0:	9414      	str	r4, [sp, #80]	; 0x50
   836f2:	e9d3 2300 	ldrd	r2, r3, [r3]
   836f6:	4614      	mov	r4, r2
   836f8:	461d      	mov	r5, r3
   836fa:	2a00      	cmp	r2, #0
   836fc:	f173 0000 	sbcs.w	r0, r3, #0
   83700:	f2c0 8493 	blt.w	8402a <_vfprintf_r+0xfde>
   83704:	f89d a08f 	ldrb.w	sl, [sp, #143]	; 0x8f
   83708:	2301      	movs	r3, #1
   8370a:	e5f6      	b.n	832fa <_vfprintf_r+0x2ae>
   8370c:	0008a0fc 	.word	0x0008a0fc
   83710:	9c0a      	ldr	r4, [sp, #40]	; 0x28
   83712:	930b      	str	r3, [sp, #44]	; 0x2c
   83714:	0725      	lsls	r5, r4, #28
   83716:	f88d 208f 	strb.w	r2, [sp, #143]	; 0x8f
   8371a:	f140 851b 	bpl.w	84154 <_vfprintf_r+0x1108>
   8371e:	9d14      	ldr	r5, [sp, #80]	; 0x50
   83720:	1deb      	adds	r3, r5, #7
   83722:	f023 0307 	bic.w	r3, r3, #7
   83726:	f103 0408 	add.w	r4, r3, #8
   8372a:	9414      	str	r4, [sp, #80]	; 0x50
   8372c:	681d      	ldr	r5, [r3, #0]
   8372e:	951b      	str	r5, [sp, #108]	; 0x6c
   83730:	685b      	ldr	r3, [r3, #4]
   83732:	931d      	str	r3, [sp, #116]	; 0x74
   83734:	981b      	ldr	r0, [sp, #108]	; 0x6c
   83736:	991d      	ldr	r1, [sp, #116]	; 0x74
   83738:	f003 fca8 	bl	8708c <__fpclassifyd>
   8373c:	2801      	cmp	r0, #1
   8373e:	981b      	ldr	r0, [sp, #108]	; 0x6c
   83740:	f040 8480 	bne.w	84044 <_vfprintf_r+0xff8>
   83744:	2200      	movs	r2, #0
   83746:	2300      	movs	r3, #0
   83748:	991d      	ldr	r1, [sp, #116]	; 0x74
   8374a:	f006 f875 	bl	89838 <__aeabi_dcmplt>
   8374e:	2800      	cmp	r0, #0
   83750:	f040 8634 	bne.w	843bc <_vfprintf_r+0x1370>
   83754:	f89d a08f 	ldrb.w	sl, [sp, #143]	; 0x8f
   83758:	2503      	movs	r5, #3
   8375a:	f24a 1810 	movw	r8, #41232	; 0xa110
   8375e:	f24a 130c 	movw	r3, #41228	; 0xa10c
   83762:	950e      	str	r5, [sp, #56]	; 0x38
   83764:	9d0a      	ldr	r5, [sp, #40]	; 0x28
   83766:	f2c0 0808 	movt	r8, #8
   8376a:	f2c0 0308 	movt	r3, #8
   8376e:	2400      	movs	r4, #0
   83770:	f025 0580 	bic.w	r5, r5, #128	; 0x80
   83774:	940d      	str	r4, [sp, #52]	; 0x34
   83776:	950a      	str	r5, [sp, #40]	; 0x28
   83778:	2403      	movs	r4, #3
   8377a:	2500      	movs	r5, #0
   8377c:	f1b9 0f47 	cmp.w	r9, #71	; 0x47
   83780:	bfd8      	it	le
   83782:	4698      	movle	r8, r3
   83784:	9411      	str	r4, [sp, #68]	; 0x44
   83786:	9518      	str	r5, [sp, #96]	; 0x60
   83788:	e5f3      	b.n	83372 <_vfprintf_r+0x326>
   8378a:	9c0a      	ldr	r4, [sp, #40]	; 0x28
   8378c:	f044 0408 	orr.w	r4, r4, #8
   83790:	940a      	str	r4, [sp, #40]	; 0x28
   83792:	f893 9000 	ldrb.w	r9, [r3]
   83796:	e4f8      	b.n	8318a <_vfprintf_r+0x13e>
   83798:	9c0a      	ldr	r4, [sp, #40]	; 0x28
   8379a:	f044 0420 	orr.w	r4, r4, #32
   8379e:	940a      	str	r4, [sp, #40]	; 0x28
   837a0:	f893 9000 	ldrb.w	r9, [r3]
   837a4:	e4f1      	b.n	8318a <_vfprintf_r+0x13e>
   837a6:	9c14      	ldr	r4, [sp, #80]	; 0x50
   837a8:	9814      	ldr	r0, [sp, #80]	; 0x50
   837aa:	930b      	str	r3, [sp, #44]	; 0x2c
   837ac:	f8d4 8000 	ldr.w	r8, [r4]
   837b0:	1d05      	adds	r5, r0, #4
   837b2:	2400      	movs	r4, #0
   837b4:	f88d 408f 	strb.w	r4, [sp, #143]	; 0x8f
   837b8:	f1b8 0f00 	cmp.w	r8, #0
   837bc:	f000 85c6 	beq.w	8434c <_vfprintf_r+0x1300>
   837c0:	980d      	ldr	r0, [sp, #52]	; 0x34
   837c2:	2800      	cmp	r0, #0
   837c4:	4640      	mov	r0, r8
   837c6:	f2c0 859a 	blt.w	842fe <_vfprintf_r+0x12b2>
   837ca:	4621      	mov	r1, r4
   837cc:	9a0d      	ldr	r2, [sp, #52]	; 0x34
   837ce:	f002 ff21 	bl	86614 <memchr>
   837d2:	2800      	cmp	r0, #0
   837d4:	f000 860f 	beq.w	843f6 <_vfprintf_r+0x13aa>
   837d8:	9514      	str	r5, [sp, #80]	; 0x50
   837da:	ebc8 0000 	rsb	r0, r8, r0
   837de:	9d0d      	ldr	r5, [sp, #52]	; 0x34
   837e0:	940d      	str	r4, [sp, #52]	; 0x34
   837e2:	42a8      	cmp	r0, r5
   837e4:	bfb8      	it	lt
   837e6:	4605      	movlt	r5, r0
   837e8:	9511      	str	r5, [sp, #68]	; 0x44
   837ea:	ea25 74e5 	bic.w	r4, r5, r5, asr #31
   837ee:	9d0d      	ldr	r5, [sp, #52]	; 0x34
   837f0:	940e      	str	r4, [sp, #56]	; 0x38
   837f2:	f89d a08f 	ldrb.w	sl, [sp, #143]	; 0x8f
   837f6:	9518      	str	r5, [sp, #96]	; 0x60
   837f8:	e5bb      	b.n	83372 <_vfprintf_r+0x326>
   837fa:	9d0a      	ldr	r5, [sp, #40]	; 0x28
   837fc:	f24a 1430 	movw	r4, #41264	; 0xa130
   83800:	f2c0 0408 	movt	r4, #8
   83804:	930b      	str	r3, [sp, #44]	; 0x2c
   83806:	06a8      	lsls	r0, r5, #26
   83808:	f88d 208f 	strb.w	r2, [sp, #143]	; 0x8f
   8380c:	941a      	str	r4, [sp, #104]	; 0x68
   8380e:	d53c      	bpl.n	8388a <_vfprintf_r+0x83e>
   83810:	9c14      	ldr	r4, [sp, #80]	; 0x50
   83812:	1de3      	adds	r3, r4, #7
   83814:	f023 0307 	bic.w	r3, r3, #7
   83818:	f103 0508 	add.w	r5, r3, #8
   8381c:	9514      	str	r5, [sp, #80]	; 0x50
   8381e:	e9d3 4500 	ldrd	r4, r5, [r3]
   83822:	980a      	ldr	r0, [sp, #40]	; 0x28
   83824:	07c3      	lsls	r3, r0, #31
   83826:	f140 824b 	bpl.w	83cc0 <_vfprintf_r+0xc74>
   8382a:	ea54 0105 	orrs.w	r1, r4, r5
   8382e:	f000 8247 	beq.w	83cc0 <_vfprintf_r+0xc74>
   83832:	2330      	movs	r3, #48	; 0x30
   83834:	f040 0002 	orr.w	r0, r0, #2
   83838:	f88d 3090 	strb.w	r3, [sp, #144]	; 0x90
   8383c:	2302      	movs	r3, #2
   8383e:	f88d 9091 	strb.w	r9, [sp, #145]	; 0x91
   83842:	900a      	str	r0, [sp, #40]	; 0x28
   83844:	e555      	b.n	832f2 <_vfprintf_r+0x2a6>
   83846:	f893 9000 	ldrb.w	r9, [r3]
   8384a:	222b      	movs	r2, #43	; 0x2b
   8384c:	e49d      	b.n	8318a <_vfprintf_r+0x13e>
   8384e:	9d0a      	ldr	r5, [sp, #40]	; 0x28
   83850:	f045 0501 	orr.w	r5, r5, #1
   83854:	950a      	str	r5, [sp, #40]	; 0x28
   83856:	f893 9000 	ldrb.w	r9, [r3]
   8385a:	e496      	b.n	8318a <_vfprintf_r+0x13e>
   8385c:	9c14      	ldr	r4, [sp, #80]	; 0x50
   8385e:	9d14      	ldr	r5, [sp, #80]	; 0x50
   83860:	6824      	ldr	r4, [r4, #0]
   83862:	1d29      	adds	r1, r5, #4
   83864:	2c00      	cmp	r4, #0
   83866:	9413      	str	r4, [sp, #76]	; 0x4c
   83868:	f6ff acf0 	blt.w	8324c <_vfprintf_r+0x200>
   8386c:	9114      	str	r1, [sp, #80]	; 0x50
   8386e:	f893 9000 	ldrb.w	r9, [r3]
   83872:	e48a      	b.n	8318a <_vfprintf_r+0x13e>
   83874:	9d0a      	ldr	r5, [sp, #40]	; 0x28
   83876:	f24a 141c 	movw	r4, #41244	; 0xa11c
   8387a:	f2c0 0408 	movt	r4, #8
   8387e:	930b      	str	r3, [sp, #44]	; 0x2c
   83880:	06a8      	lsls	r0, r5, #26
   83882:	f88d 208f 	strb.w	r2, [sp, #143]	; 0x8f
   83886:	941a      	str	r4, [sp, #104]	; 0x68
   83888:	d4c2      	bmi.n	83810 <_vfprintf_r+0x7c4>
   8388a:	9c0a      	ldr	r4, [sp, #40]	; 0x28
   8388c:	06e1      	lsls	r1, r4, #27
   8388e:	f100 82c8 	bmi.w	83e22 <_vfprintf_r+0xdd6>
   83892:	9c0a      	ldr	r4, [sp, #40]	; 0x28
   83894:	0662      	lsls	r2, r4, #25
   83896:	f140 82c4 	bpl.w	83e22 <_vfprintf_r+0xdd6>
   8389a:	9814      	ldr	r0, [sp, #80]	; 0x50
   8389c:	2500      	movs	r5, #0
   8389e:	3004      	adds	r0, #4
   838a0:	f830 4c04 	ldrh.w	r4, [r0, #-4]
   838a4:	9014      	str	r0, [sp, #80]	; 0x50
   838a6:	e7bc      	b.n	83822 <_vfprintf_r+0x7d6>
   838a8:	9a14      	ldr	r2, [sp, #80]	; 0x50
   838aa:	2501      	movs	r5, #1
   838ac:	9c14      	ldr	r4, [sp, #80]	; 0x50
   838ae:	f10d 08b8 	add.w	r8, sp, #184	; 0xb8
   838b2:	930b      	str	r3, [sp, #44]	; 0x2c
   838b4:	2300      	movs	r3, #0
   838b6:	6812      	ldr	r2, [r2, #0]
   838b8:	3404      	adds	r4, #4
   838ba:	469a      	mov	sl, r3
   838bc:	950e      	str	r5, [sp, #56]	; 0x38
   838be:	9414      	str	r4, [sp, #80]	; 0x50
   838c0:	f88d 308f 	strb.w	r3, [sp, #143]	; 0x8f
   838c4:	930d      	str	r3, [sp, #52]	; 0x34
   838c6:	9318      	str	r3, [sp, #96]	; 0x60
   838c8:	9511      	str	r5, [sp, #68]	; 0x44
   838ca:	f88d 20b8 	strb.w	r2, [sp, #184]	; 0xb8
   838ce:	e556      	b.n	8337e <_vfprintf_r+0x332>
   838d0:	9c0a      	ldr	r4, [sp, #40]	; 0x28
   838d2:	930b      	str	r3, [sp, #44]	; 0x2c
   838d4:	06a1      	lsls	r1, r4, #26
   838d6:	f88d 208f 	strb.w	r2, [sp, #143]	; 0x8f
   838da:	f53f af03 	bmi.w	836e4 <_vfprintf_r+0x698>
   838de:	9d0a      	ldr	r5, [sp, #40]	; 0x28
   838e0:	06ea      	lsls	r2, r5, #27
   838e2:	f100 828d 	bmi.w	83e00 <_vfprintf_r+0xdb4>
   838e6:	9c0a      	ldr	r4, [sp, #40]	; 0x28
   838e8:	0663      	lsls	r3, r4, #25
   838ea:	f140 8289 	bpl.w	83e00 <_vfprintf_r+0xdb4>
   838ee:	9814      	ldr	r0, [sp, #80]	; 0x50
   838f0:	3004      	adds	r0, #4
   838f2:	f930 4c04 	ldrsh.w	r4, [r0, #-4]
   838f6:	9014      	str	r0, [sp, #80]	; 0x50
   838f8:	4622      	mov	r2, r4
   838fa:	17e5      	asrs	r5, r4, #31
   838fc:	462b      	mov	r3, r5
   838fe:	e6fc      	b.n	836fa <_vfprintf_r+0x6ae>
   83900:	9d0a      	ldr	r5, [sp, #40]	; 0x28
   83902:	f045 0540 	orr.w	r5, r5, #64	; 0x40
   83906:	950a      	str	r5, [sp, #40]	; 0x28
   83908:	f893 9000 	ldrb.w	r9, [r3]
   8390c:	e43d      	b.n	8318a <_vfprintf_r+0x13e>
   8390e:	f893 9000 	ldrb.w	r9, [r3]
   83912:	4619      	mov	r1, r3
   83914:	f1b9 0f6c 	cmp.w	r9, #108	; 0x6c
   83918:	bf05      	ittet	eq
   8391a:	3301      	addeq	r3, #1
   8391c:	9c0a      	ldreq	r4, [sp, #40]	; 0x28
   8391e:	9d0a      	ldrne	r5, [sp, #40]	; 0x28
   83920:	f044 0420 	orreq.w	r4, r4, #32
   83924:	bf0b      	itete	eq
   83926:	f891 9001 	ldrbeq.w	r9, [r1, #1]
   8392a:	f045 0510 	orrne.w	r5, r5, #16
   8392e:	940a      	streq	r4, [sp, #40]	; 0x28
   83930:	950a      	strne	r5, [sp, #40]	; 0x28
   83932:	e42a      	b.n	8318a <_vfprintf_r+0x13e>
   83934:	9d0a      	ldr	r5, [sp, #40]	; 0x28
   83936:	930b      	str	r3, [sp, #44]	; 0x2c
   83938:	06a9      	lsls	r1, r5, #26
   8393a:	f88d 208f 	strb.w	r2, [sp, #143]	; 0x8f
   8393e:	f140 8416 	bpl.w	8416e <_vfprintf_r+0x1122>
   83942:	9c14      	ldr	r4, [sp, #80]	; 0x50
   83944:	6821      	ldr	r1, [r4, #0]
   83946:	9c15      	ldr	r4, [sp, #84]	; 0x54
   83948:	4622      	mov	r2, r4
   8394a:	17e5      	asrs	r5, r4, #31
   8394c:	462b      	mov	r3, r5
   8394e:	9d14      	ldr	r5, [sp, #80]	; 0x50
   83950:	e9c1 2300 	strd	r2, r3, [r1]
   83954:	3504      	adds	r5, #4
   83956:	9514      	str	r5, [sp, #80]	; 0x50
   83958:	f7ff bbe3 	b.w	83122 <_vfprintf_r+0xd6>
   8395c:	930b      	str	r3, [sp, #44]	; 0x2c
   8395e:	f24a 1030 	movw	r0, #41264	; 0xa130
   83962:	9b14      	ldr	r3, [sp, #80]	; 0x50
   83964:	f04f 0978 	mov.w	r9, #120	; 0x78
   83968:	9d0a      	ldr	r5, [sp, #40]	; 0x28
   8396a:	f2c0 0008 	movt	r0, #8
   8396e:	f88d 9091 	strb.w	r9, [sp, #145]	; 0x91
   83972:	f045 0502 	orr.w	r5, r5, #2
   83976:	681c      	ldr	r4, [r3, #0]
   83978:	950a      	str	r5, [sp, #40]	; 0x28
   8397a:	1d1d      	adds	r5, r3, #4
   8397c:	901a      	str	r0, [sp, #104]	; 0x68
   8397e:	2330      	movs	r3, #48	; 0x30
   83980:	9514      	str	r5, [sp, #80]	; 0x50
   83982:	2500      	movs	r5, #0
   83984:	f88d 3090 	strb.w	r3, [sp, #144]	; 0x90
   83988:	2302      	movs	r3, #2
   8398a:	e4b2      	b.n	832f2 <_vfprintf_r+0x2a6>
   8398c:	9c0a      	ldr	r4, [sp, #40]	; 0x28
   8398e:	930b      	str	r3, [sp, #44]	; 0x2c
   83990:	f044 0410 	orr.w	r4, r4, #16
   83994:	940a      	str	r4, [sp, #40]	; 0x28
   83996:	9d0a      	ldr	r5, [sp, #40]	; 0x28
   83998:	f015 0320 	ands.w	r3, r5, #32
   8399c:	f47f ae4d 	bne.w	8363a <_vfprintf_r+0x5ee>
   839a0:	9c0a      	ldr	r4, [sp, #40]	; 0x28
   839a2:	f014 0210 	ands.w	r2, r4, #16
   839a6:	f040 8234 	bne.w	83e12 <_vfprintf_r+0xdc6>
   839aa:	9c0a      	ldr	r4, [sp, #40]	; 0x28
   839ac:	f014 0340 	ands.w	r3, r4, #64	; 0x40
   839b0:	f000 822f 	beq.w	83e12 <_vfprintf_r+0xdc6>
   839b4:	9814      	ldr	r0, [sp, #80]	; 0x50
   839b6:	4613      	mov	r3, r2
   839b8:	2500      	movs	r5, #0
   839ba:	3004      	adds	r0, #4
   839bc:	f830 4c04 	ldrh.w	r4, [r0, #-4]
   839c0:	9014      	str	r0, [sp, #80]	; 0x50
   839c2:	e496      	b.n	832f2 <_vfprintf_r+0x2a6>
   839c4:	9c0a      	ldr	r4, [sp, #40]	; 0x28
   839c6:	930b      	str	r3, [sp, #44]	; 0x2c
   839c8:	f044 0410 	orr.w	r4, r4, #16
   839cc:	940a      	str	r4, [sp, #40]	; 0x28
   839ce:	9d0a      	ldr	r5, [sp, #40]	; 0x28
   839d0:	06ab      	lsls	r3, r5, #26
   839d2:	f53f ac84 	bmi.w	832de <_vfprintf_r+0x292>
   839d6:	9c0a      	ldr	r4, [sp, #40]	; 0x28
   839d8:	06e5      	lsls	r5, r4, #27
   839da:	f100 8208 	bmi.w	83dee <_vfprintf_r+0xda2>
   839de:	9c0a      	ldr	r4, [sp, #40]	; 0x28
   839e0:	0664      	lsls	r4, r4, #25
   839e2:	f140 8204 	bpl.w	83dee <_vfprintf_r+0xda2>
   839e6:	9814      	ldr	r0, [sp, #80]	; 0x50
   839e8:	2500      	movs	r5, #0
   839ea:	2301      	movs	r3, #1
   839ec:	3004      	adds	r0, #4
   839ee:	f830 4c04 	ldrh.w	r4, [r0, #-4]
   839f2:	9014      	str	r0, [sp, #80]	; 0x50
   839f4:	e47d      	b.n	832f2 <_vfprintf_r+0x2a6>
   839f6:	930b      	str	r3, [sp, #44]	; 0x2c
   839f8:	f88d 208f 	strb.w	r2, [sp, #143]	; 0x8f
   839fc:	f1b9 0f00 	cmp.w	r9, #0
   83a00:	d01a      	beq.n	83a38 <_vfprintf_r+0x9ec>
   83a02:	2300      	movs	r3, #0
   83a04:	2501      	movs	r5, #1
   83a06:	469a      	mov	sl, r3
   83a08:	950e      	str	r5, [sp, #56]	; 0x38
   83a0a:	f88d 90b8 	strb.w	r9, [sp, #184]	; 0xb8
   83a0e:	f10d 08b8 	add.w	r8, sp, #184	; 0xb8
   83a12:	f88d 308f 	strb.w	r3, [sp, #143]	; 0x8f
   83a16:	930d      	str	r3, [sp, #52]	; 0x34
   83a18:	9318      	str	r3, [sp, #96]	; 0x60
   83a1a:	9511      	str	r5, [sp, #68]	; 0x44
   83a1c:	e4af      	b.n	8337e <_vfprintf_r+0x332>
   83a1e:	980c      	ldr	r0, [sp, #48]	; 0x30
   83a20:	aa2b      	add	r2, sp, #172	; 0xac
   83a22:	9910      	ldr	r1, [sp, #64]	; 0x40
   83a24:	f003 fd3c 	bl	874a0 <__sprint_r>
   83a28:	2800      	cmp	r0, #0
   83a2a:	f040 812b 	bne.w	83c84 <_vfprintf_r+0xc38>
   83a2e:	f89d a08f 	ldrb.w	sl, [sp, #143]	; 0x8f
   83a32:	af38      	add	r7, sp, #224	; 0xe0
   83a34:	9c2d      	ldr	r4, [sp, #180]	; 0xb4
   83a36:	e503      	b.n	83440 <_vfprintf_r+0x3f4>
   83a38:	9b2d      	ldr	r3, [sp, #180]	; 0xb4
   83a3a:	f8dd 9040 	ldr.w	r9, [sp, #64]	; 0x40
   83a3e:	b123      	cbz	r3, 83a4a <_vfprintf_r+0x9fe>
   83a40:	980c      	ldr	r0, [sp, #48]	; 0x30
   83a42:	4649      	mov	r1, r9
   83a44:	aa2b      	add	r2, sp, #172	; 0xac
   83a46:	f003 fd2b 	bl	874a0 <__sprint_r>
   83a4a:	f8b9 300c 	ldrh.w	r3, [r9, #12]
   83a4e:	065b      	lsls	r3, r3, #25
   83a50:	f53f ac21 	bmi.w	83296 <_vfprintf_r+0x24a>
   83a54:	9815      	ldr	r0, [sp, #84]	; 0x54
   83a56:	b049      	add	sp, #292	; 0x124
   83a58:	e8bd 8ff0 	ldmia.w	sp!, {r4, r5, r6, r7, r8, r9, sl, fp, pc}
   83a5c:	f1b9 0f65 	cmp.w	r9, #101	; 0x65
   83a60:	f340 80b8 	ble.w	83bd4 <_vfprintf_r+0xb88>
   83a64:	981b      	ldr	r0, [sp, #108]	; 0x6c
   83a66:	2200      	movs	r2, #0
   83a68:	2300      	movs	r3, #0
   83a6a:	991d      	ldr	r1, [sp, #116]	; 0x74
   83a6c:	f005 feda 	bl	89824 <__aeabi_dcmpeq>
   83a70:	2800      	cmp	r0, #0
   83a72:	f000 8128 	beq.w	83cc6 <_vfprintf_r+0xc7a>
   83a76:	9b2c      	ldr	r3, [sp, #176]	; 0xb0
   83a78:	2201      	movs	r2, #1
   83a7a:	9d17      	ldr	r5, [sp, #92]	; 0x5c
   83a7c:	3401      	adds	r4, #1
   83a7e:	4413      	add	r3, r2
   83a80:	607a      	str	r2, [r7, #4]
   83a82:	2b07      	cmp	r3, #7
   83a84:	942d      	str	r4, [sp, #180]	; 0xb4
   83a86:	603d      	str	r5, [r7, #0]
   83a88:	bfd8      	it	le
   83a8a:	3708      	addle	r7, #8
   83a8c:	932c      	str	r3, [sp, #176]	; 0xb0
   83a8e:	f300 837a 	bgt.w	84186 <_vfprintf_r+0x113a>
   83a92:	9b25      	ldr	r3, [sp, #148]	; 0x94
   83a94:	9d12      	ldr	r5, [sp, #72]	; 0x48
   83a96:	42ab      	cmp	r3, r5
   83a98:	db03      	blt.n	83aa2 <_vfprintf_r+0xa56>
   83a9a:	9d0a      	ldr	r5, [sp, #40]	; 0x28
   83a9c:	07eb      	lsls	r3, r5, #31
   83a9e:	f57f ad50 	bpl.w	83542 <_vfprintf_r+0x4f6>
   83aa2:	9d1c      	ldr	r5, [sp, #112]	; 0x70
   83aa4:	9b2c      	ldr	r3, [sp, #176]	; 0xb0
   83aa6:	442c      	add	r4, r5
   83aa8:	9d19      	ldr	r5, [sp, #100]	; 0x64
   83aaa:	3301      	adds	r3, #1
   83aac:	942d      	str	r4, [sp, #180]	; 0xb4
   83aae:	2b07      	cmp	r3, #7
   83ab0:	932c      	str	r3, [sp, #176]	; 0xb0
   83ab2:	603d      	str	r5, [r7, #0]
   83ab4:	9d1c      	ldr	r5, [sp, #112]	; 0x70
   83ab6:	607d      	str	r5, [r7, #4]
   83ab8:	bfd8      	it	le
   83aba:	3708      	addle	r7, #8
   83abc:	f300 83f1 	bgt.w	842a2 <_vfprintf_r+0x1256>
   83ac0:	9d12      	ldr	r5, [sp, #72]	; 0x48
   83ac2:	f105 38ff 	add.w	r8, r5, #4294967295	; 0xffffffff
   83ac6:	f1b8 0f00 	cmp.w	r8, #0
   83aca:	f77f ad3a 	ble.w	83542 <_vfprintf_r+0x4f6>
   83ace:	f1b8 0f10 	cmp.w	r8, #16
   83ad2:	9b2c      	ldr	r3, [sp, #176]	; 0xb0
   83ad4:	f340 81ac 	ble.w	83e30 <_vfprintf_r+0xde4>
   83ad8:	4daa      	ldr	r5, [pc, #680]	; (83d84 <_vfprintf_r+0xd38>)
   83ada:	f04f 0910 	mov.w	r9, #16
   83ade:	f8dd a040 	ldr.w	sl, [sp, #64]	; 0x40
   83ae2:	950f      	str	r5, [sp, #60]	; 0x3c
   83ae4:	9d0c      	ldr	r5, [sp, #48]	; 0x30
   83ae6:	e005      	b.n	83af4 <_vfprintf_r+0xaa8>
   83ae8:	f1a8 0810 	sub.w	r8, r8, #16
   83aec:	f1b8 0f10 	cmp.w	r8, #16
   83af0:	f340 81a0 	ble.w	83e34 <_vfprintf_r+0xde8>
   83af4:	3301      	adds	r3, #1
   83af6:	3410      	adds	r4, #16
   83af8:	2b07      	cmp	r3, #7
   83afa:	e887 0240 	stmia.w	r7, {r6, r9}
   83afe:	932c      	str	r3, [sp, #176]	; 0xb0
   83b00:	f107 0708 	add.w	r7, r7, #8
   83b04:	942d      	str	r4, [sp, #180]	; 0xb4
   83b06:	ddef      	ble.n	83ae8 <_vfprintf_r+0xa9c>
   83b08:	4628      	mov	r0, r5
   83b0a:	4651      	mov	r1, sl
   83b0c:	aa2b      	add	r2, sp, #172	; 0xac
   83b0e:	af38      	add	r7, sp, #224	; 0xe0
   83b10:	f003 fcc6 	bl	874a0 <__sprint_r>
   83b14:	2800      	cmp	r0, #0
   83b16:	f040 838f 	bne.w	84238 <_vfprintf_r+0x11ec>
   83b1a:	9c2d      	ldr	r4, [sp, #180]	; 0xb4
   83b1c:	9b2c      	ldr	r3, [sp, #176]	; 0xb0
   83b1e:	e7e3      	b.n	83ae8 <_vfprintf_r+0xa9c>
   83b20:	2b00      	cmp	r3, #0
   83b22:	f040 80b2 	bne.w	83c8a <_vfprintf_r+0xc3e>
   83b26:	9c0a      	ldr	r4, [sp, #40]	; 0x28
   83b28:	07e1      	lsls	r1, r4, #31
   83b2a:	bf5c      	itt	pl
   83b2c:	9311      	strpl	r3, [sp, #68]	; 0x44
   83b2e:	f10d 08e0 	addpl.w	r8, sp, #224	; 0xe0
   83b32:	f57f ac16 	bpl.w	83362 <_vfprintf_r+0x316>
   83b36:	9d21      	ldr	r5, [sp, #132]	; 0x84
   83b38:	2330      	movs	r3, #48	; 0x30
   83b3a:	f10d 08df 	add.w	r8, sp, #223	; 0xdf
   83b3e:	f88d 30df 	strb.w	r3, [sp, #223]	; 0xdf
   83b42:	9511      	str	r5, [sp, #68]	; 0x44
   83b44:	e40d      	b.n	83362 <_vfprintf_r+0x316>
   83b46:	9813      	ldr	r0, [sp, #76]	; 0x4c
   83b48:	990e      	ldr	r1, [sp, #56]	; 0x38
   83b4a:	1a45      	subs	r5, r0, r1
   83b4c:	2d00      	cmp	r5, #0
   83b4e:	f77f ac9c 	ble.w	8348a <_vfprintf_r+0x43e>
   83b52:	2d10      	cmp	r5, #16
   83b54:	9b2c      	ldr	r3, [sp, #176]	; 0xb0
   83b56:	bfdc      	itt	le
   83b58:	4a8a      	ldrle	r2, [pc, #552]	; (83d84 <_vfprintf_r+0xd38>)
   83b5a:	920f      	strle	r2, [sp, #60]	; 0x3c
   83b5c:	dd22      	ble.n	83ba4 <_vfprintf_r+0xb58>
   83b5e:	4889      	ldr	r0, [pc, #548]	; (83d84 <_vfprintf_r+0xd38>)
   83b60:	4622      	mov	r2, r4
   83b62:	f04f 0b10 	mov.w	fp, #16
   83b66:	f8dd a030 	ldr.w	sl, [sp, #48]	; 0x30
   83b6a:	9c10      	ldr	r4, [sp, #64]	; 0x40
   83b6c:	900f      	str	r0, [sp, #60]	; 0x3c
   83b6e:	e002      	b.n	83b76 <_vfprintf_r+0xb2a>
   83b70:	3d10      	subs	r5, #16
   83b72:	2d10      	cmp	r5, #16
   83b74:	dd15      	ble.n	83ba2 <_vfprintf_r+0xb56>
   83b76:	3301      	adds	r3, #1
   83b78:	3210      	adds	r2, #16
   83b7a:	2b07      	cmp	r3, #7
   83b7c:	e887 0840 	stmia.w	r7, {r6, fp}
   83b80:	932c      	str	r3, [sp, #176]	; 0xb0
   83b82:	f107 0708 	add.w	r7, r7, #8
   83b86:	922d      	str	r2, [sp, #180]	; 0xb4
   83b88:	ddf2      	ble.n	83b70 <_vfprintf_r+0xb24>
   83b8a:	4650      	mov	r0, sl
   83b8c:	4621      	mov	r1, r4
   83b8e:	aa2b      	add	r2, sp, #172	; 0xac
   83b90:	af38      	add	r7, sp, #224	; 0xe0
   83b92:	f003 fc85 	bl	874a0 <__sprint_r>
   83b96:	b9d8      	cbnz	r0, 83bd0 <_vfprintf_r+0xb84>
   83b98:	3d10      	subs	r5, #16
   83b9a:	9a2d      	ldr	r2, [sp, #180]	; 0xb4
   83b9c:	2d10      	cmp	r5, #16
   83b9e:	9b2c      	ldr	r3, [sp, #176]	; 0xb0
   83ba0:	dce9      	bgt.n	83b76 <_vfprintf_r+0xb2a>
   83ba2:	4614      	mov	r4, r2
   83ba4:	3301      	adds	r3, #1
   83ba6:	990f      	ldr	r1, [sp, #60]	; 0x3c
   83ba8:	2b07      	cmp	r3, #7
   83baa:	442c      	add	r4, r5
   83bac:	932c      	str	r3, [sp, #176]	; 0xb0
   83bae:	e887 0022 	stmia.w	r7, {r1, r5}
   83bb2:	bfd8      	it	le
   83bb4:	3708      	addle	r7, #8
   83bb6:	942d      	str	r4, [sp, #180]	; 0xb4
   83bb8:	f77f ac67 	ble.w	8348a <_vfprintf_r+0x43e>
   83bbc:	980c      	ldr	r0, [sp, #48]	; 0x30
   83bbe:	aa2b      	add	r2, sp, #172	; 0xac
   83bc0:	9910      	ldr	r1, [sp, #64]	; 0x40
   83bc2:	f003 fc6d 	bl	874a0 <__sprint_r>
   83bc6:	2800      	cmp	r0, #0
   83bc8:	d15c      	bne.n	83c84 <_vfprintf_r+0xc38>
   83bca:	9c2d      	ldr	r4, [sp, #180]	; 0xb4
   83bcc:	af38      	add	r7, sp, #224	; 0xe0
   83bce:	e45c      	b.n	8348a <_vfprintf_r+0x43e>
   83bd0:	46a1      	mov	r9, r4
   83bd2:	e73a      	b.n	83a4a <_vfprintf_r+0x9fe>
   83bd4:	9d12      	ldr	r5, [sp, #72]	; 0x48
   83bd6:	9b2c      	ldr	r3, [sp, #176]	; 0xb0
   83bd8:	2d01      	cmp	r5, #1
   83bda:	f340 81bb 	ble.w	83f54 <_vfprintf_r+0xf08>
   83bde:	2101      	movs	r1, #1
   83be0:	1c62      	adds	r2, r4, #1
   83be2:	440b      	add	r3, r1
   83be4:	f8c7 8000 	str.w	r8, [r7]
   83be8:	2b07      	cmp	r3, #7
   83bea:	6079      	str	r1, [r7, #4]
   83bec:	922d      	str	r2, [sp, #180]	; 0xb4
   83bee:	bfd8      	it	le
   83bf0:	3708      	addle	r7, #8
   83bf2:	932c      	str	r3, [sp, #176]	; 0xb0
   83bf4:	f300 81cc 	bgt.w	83f90 <_vfprintf_r+0xf44>
   83bf8:	9d19      	ldr	r5, [sp, #100]	; 0x64
   83bfa:	1c5c      	adds	r4, r3, #1
   83bfc:	f8dd 9070 	ldr.w	r9, [sp, #112]	; 0x70
   83c00:	2c07      	cmp	r4, #7
   83c02:	942c      	str	r4, [sp, #176]	; 0xb0
   83c04:	603d      	str	r5, [r7, #0]
   83c06:	4491      	add	r9, r2
   83c08:	9d1c      	ldr	r5, [sp, #112]	; 0x70
   83c0a:	f8cd 90b4 	str.w	r9, [sp, #180]	; 0xb4
   83c0e:	607d      	str	r5, [r7, #4]
   83c10:	bfd8      	it	le
   83c12:	3708      	addle	r7, #8
   83c14:	f300 81c8 	bgt.w	83fa8 <_vfprintf_r+0xf5c>
   83c18:	981b      	ldr	r0, [sp, #108]	; 0x6c
   83c1a:	2200      	movs	r2, #0
   83c1c:	2300      	movs	r3, #0
   83c1e:	991d      	ldr	r1, [sp, #116]	; 0x74
   83c20:	f005 fe00 	bl	89824 <__aeabi_dcmpeq>
   83c24:	2800      	cmp	r0, #0
   83c26:	f040 80af 	bne.w	83d88 <_vfprintf_r+0xd3c>
   83c2a:	3401      	adds	r4, #1
   83c2c:	9d12      	ldr	r5, [sp, #72]	; 0x48
   83c2e:	2c07      	cmp	r4, #7
   83c30:	f108 0201 	add.w	r2, r8, #1
   83c34:	f105 33ff 	add.w	r3, r5, #4294967295	; 0xffffffff
   83c38:	942c      	str	r4, [sp, #176]	; 0xb0
   83c3a:	4499      	add	r9, r3
   83c3c:	603a      	str	r2, [r7, #0]
   83c3e:	f8cd 90b4 	str.w	r9, [sp, #180]	; 0xb4
   83c42:	607b      	str	r3, [r7, #4]
   83c44:	f300 8197 	bgt.w	83f76 <_vfprintf_r+0xf2a>
   83c48:	3708      	adds	r7, #8
   83c4a:	1c63      	adds	r3, r4, #1
   83c4c:	9d1e      	ldr	r5, [sp, #120]	; 0x78
   83c4e:	9c1e      	ldr	r4, [sp, #120]	; 0x78
   83c50:	2b07      	cmp	r3, #7
   83c52:	aa27      	add	r2, sp, #156	; 0x9c
   83c54:	932c      	str	r3, [sp, #176]	; 0xb0
   83c56:	444c      	add	r4, r9
   83c58:	e887 0024 	stmia.w	r7, {r2, r5}
   83c5c:	942d      	str	r4, [sp, #180]	; 0xb4
   83c5e:	f77f ac6f 	ble.w	83540 <_vfprintf_r+0x4f4>
   83c62:	980c      	ldr	r0, [sp, #48]	; 0x30
   83c64:	aa2b      	add	r2, sp, #172	; 0xac
   83c66:	9910      	ldr	r1, [sp, #64]	; 0x40
   83c68:	f003 fc1a 	bl	874a0 <__sprint_r>
   83c6c:	b950      	cbnz	r0, 83c84 <_vfprintf_r+0xc38>
   83c6e:	9c2d      	ldr	r4, [sp, #180]	; 0xb4
   83c70:	af38      	add	r7, sp, #224	; 0xe0
   83c72:	e466      	b.n	83542 <_vfprintf_r+0x4f6>
   83c74:	980c      	ldr	r0, [sp, #48]	; 0x30
   83c76:	aa2b      	add	r2, sp, #172	; 0xac
   83c78:	9910      	ldr	r1, [sp, #64]	; 0x40
   83c7a:	f003 fc11 	bl	874a0 <__sprint_r>
   83c7e:	2800      	cmp	r0, #0
   83c80:	f43f acb5 	beq.w	835ee <_vfprintf_r+0x5a2>
   83c84:	f8dd 9040 	ldr.w	r9, [sp, #64]	; 0x40
   83c88:	e6df      	b.n	83a4a <_vfprintf_r+0x9fe>
   83c8a:	9211      	str	r2, [sp, #68]	; 0x44
   83c8c:	f10d 08e0 	add.w	r8, sp, #224	; 0xe0
   83c90:	f7ff bb67 	b.w	83362 <_vfprintf_r+0x316>
   83c94:	980c      	ldr	r0, [sp, #48]	; 0x30
   83c96:	aa2b      	add	r2, sp, #172	; 0xac
   83c98:	9910      	ldr	r1, [sp, #64]	; 0x40
   83c9a:	f003 fc01 	bl	874a0 <__sprint_r>
   83c9e:	2800      	cmp	r0, #0
   83ca0:	d1f0      	bne.n	83c84 <_vfprintf_r+0xc38>
   83ca2:	9c2d      	ldr	r4, [sp, #180]	; 0xb4
   83ca4:	af38      	add	r7, sp, #224	; 0xe0
   83ca6:	f7ff bbdd 	b.w	83464 <_vfprintf_r+0x418>
   83caa:	980c      	ldr	r0, [sp, #48]	; 0x30
   83cac:	aa2b      	add	r2, sp, #172	; 0xac
   83cae:	9910      	ldr	r1, [sp, #64]	; 0x40
   83cb0:	f003 fbf6 	bl	874a0 <__sprint_r>
   83cb4:	2800      	cmp	r0, #0
   83cb6:	d1e5      	bne.n	83c84 <_vfprintf_r+0xc38>
   83cb8:	9c2d      	ldr	r4, [sp, #180]	; 0xb4
   83cba:	af38      	add	r7, sp, #224	; 0xe0
   83cbc:	f7ff bbe2 	b.w	83484 <_vfprintf_r+0x438>
   83cc0:	2302      	movs	r3, #2
   83cc2:	f7ff bb16 	b.w	832f2 <_vfprintf_r+0x2a6>
   83cc6:	9b25      	ldr	r3, [sp, #148]	; 0x94
   83cc8:	2b00      	cmp	r3, #0
   83cca:	f340 8267 	ble.w	8419c <_vfprintf_r+0x1150>
   83cce:	9d12      	ldr	r5, [sp, #72]	; 0x48
   83cd0:	9818      	ldr	r0, [sp, #96]	; 0x60
   83cd2:	f8dd b048 	ldr.w	fp, [sp, #72]	; 0x48
   83cd6:	4285      	cmp	r5, r0
   83cd8:	bfa8      	it	ge
   83cda:	4605      	movge	r5, r0
   83cdc:	2d00      	cmp	r5, #0
   83cde:	44c3      	add	fp, r8
   83ce0:	dd0c      	ble.n	83cfc <_vfprintf_r+0xcb0>
   83ce2:	9b2c      	ldr	r3, [sp, #176]	; 0xb0
   83ce4:	442c      	add	r4, r5
   83ce6:	f8c7 8000 	str.w	r8, [r7]
   83cea:	3301      	adds	r3, #1
   83cec:	607d      	str	r5, [r7, #4]
   83cee:	2b07      	cmp	r3, #7
   83cf0:	942d      	str	r4, [sp, #180]	; 0xb4
   83cf2:	932c      	str	r3, [sp, #176]	; 0xb0
   83cf4:	bfd8      	it	le
   83cf6:	3708      	addle	r7, #8
   83cf8:	f300 830f 	bgt.w	8431a <_vfprintf_r+0x12ce>
   83cfc:	9918      	ldr	r1, [sp, #96]	; 0x60
   83cfe:	ea25 75e5 	bic.w	r5, r5, r5, asr #31
   83d02:	ebc5 0901 	rsb	r9, r5, r1
   83d06:	f1b9 0f00 	cmp.w	r9, #0
   83d0a:	f340 80b9 	ble.w	83e80 <_vfprintf_r+0xe34>
   83d0e:	f1b9 0f10 	cmp.w	r9, #16
   83d12:	9b2c      	ldr	r3, [sp, #176]	; 0xb0
   83d14:	bfdc      	itt	le
   83d16:	4d1b      	ldrle	r5, [pc, #108]	; (83d84 <_vfprintf_r+0xd38>)
   83d18:	950f      	strle	r5, [sp, #60]	; 0x3c
   83d1a:	f340 809c 	ble.w	83e56 <_vfprintf_r+0xe0a>
   83d1e:	4d19      	ldr	r5, [pc, #100]	; (83d84 <_vfprintf_r+0xd38>)
   83d20:	4622      	mov	r2, r4
   83d22:	f04f 0a10 	mov.w	sl, #16
   83d26:	9c10      	ldr	r4, [sp, #64]	; 0x40
   83d28:	950f      	str	r5, [sp, #60]	; 0x3c
   83d2a:	9d0c      	ldr	r5, [sp, #48]	; 0x30
   83d2c:	e005      	b.n	83d3a <_vfprintf_r+0xcee>
   83d2e:	f1a9 0910 	sub.w	r9, r9, #16
   83d32:	f1b9 0f10 	cmp.w	r9, #16
   83d36:	f340 808d 	ble.w	83e54 <_vfprintf_r+0xe08>
   83d3a:	3301      	adds	r3, #1
   83d3c:	3210      	adds	r2, #16
   83d3e:	2b07      	cmp	r3, #7
   83d40:	e887 0440 	stmia.w	r7, {r6, sl}
   83d44:	932c      	str	r3, [sp, #176]	; 0xb0
   83d46:	f107 0708 	add.w	r7, r7, #8
   83d4a:	922d      	str	r2, [sp, #180]	; 0xb4
   83d4c:	ddef      	ble.n	83d2e <_vfprintf_r+0xce2>
   83d4e:	4628      	mov	r0, r5
   83d50:	4621      	mov	r1, r4
   83d52:	aa2b      	add	r2, sp, #172	; 0xac
   83d54:	af38      	add	r7, sp, #224	; 0xe0
   83d56:	f003 fba3 	bl	874a0 <__sprint_r>
   83d5a:	2800      	cmp	r0, #0
   83d5c:	f47f af38 	bne.w	83bd0 <_vfprintf_r+0xb84>
   83d60:	9a2d      	ldr	r2, [sp, #180]	; 0xb4
   83d62:	9b2c      	ldr	r3, [sp, #176]	; 0xb0
   83d64:	e7e3      	b.n	83d2e <_vfprintf_r+0xce2>
   83d66:	2d00      	cmp	r5, #0
   83d68:	bf08      	it	eq
   83d6a:	2c0a      	cmpeq	r4, #10
   83d6c:	f080 8136 	bcs.w	83fdc <_vfprintf_r+0xf90>
   83d70:	9d21      	ldr	r5, [sp, #132]	; 0x84
   83d72:	3430      	adds	r4, #48	; 0x30
   83d74:	f10d 08df 	add.w	r8, sp, #223	; 0xdf
   83d78:	f88d 40df 	strb.w	r4, [sp, #223]	; 0xdf
   83d7c:	9511      	str	r5, [sp, #68]	; 0x44
   83d7e:	f7ff baf0 	b.w	83362 <_vfprintf_r+0x316>
   83d82:	bf00      	nop
   83d84:	0008a0fc 	.word	0x0008a0fc
   83d88:	9d12      	ldr	r5, [sp, #72]	; 0x48
   83d8a:	f105 38ff 	add.w	r8, r5, #4294967295	; 0xffffffff
   83d8e:	f1b8 0f00 	cmp.w	r8, #0
   83d92:	f77f af5a 	ble.w	83c4a <_vfprintf_r+0xbfe>
   83d96:	f1b8 0f10 	cmp.w	r8, #16
   83d9a:	bfdc      	itt	le
   83d9c:	4ba8      	ldrle	r3, [pc, #672]	; (84040 <_vfprintf_r+0xff4>)
   83d9e:	930f      	strle	r3, [sp, #60]	; 0x3c
   83da0:	f340 8110 	ble.w	83fc4 <_vfprintf_r+0xf78>
   83da4:	4da6      	ldr	r5, [pc, #664]	; (84040 <_vfprintf_r+0xff4>)
   83da6:	464b      	mov	r3, r9
   83da8:	f04f 0a10 	mov.w	sl, #16
   83dac:	f8dd 9040 	ldr.w	r9, [sp, #64]	; 0x40
   83db0:	950f      	str	r5, [sp, #60]	; 0x3c
   83db2:	9d0c      	ldr	r5, [sp, #48]	; 0x30
   83db4:	e005      	b.n	83dc2 <_vfprintf_r+0xd76>
   83db6:	f1a8 0810 	sub.w	r8, r8, #16
   83dba:	f1b8 0f10 	cmp.w	r8, #16
   83dbe:	f340 8100 	ble.w	83fc2 <_vfprintf_r+0xf76>
   83dc2:	3401      	adds	r4, #1
   83dc4:	3310      	adds	r3, #16
   83dc6:	2c07      	cmp	r4, #7
   83dc8:	e887 0440 	stmia.w	r7, {r6, sl}
   83dcc:	942c      	str	r4, [sp, #176]	; 0xb0
   83dce:	f107 0708 	add.w	r7, r7, #8
   83dd2:	932d      	str	r3, [sp, #180]	; 0xb4
   83dd4:	ddef      	ble.n	83db6 <_vfprintf_r+0xd6a>
   83dd6:	4628      	mov	r0, r5
   83dd8:	4649      	mov	r1, r9
   83dda:	aa2b      	add	r2, sp, #172	; 0xac
   83ddc:	af38      	add	r7, sp, #224	; 0xe0
   83dde:	f003 fb5f 	bl	874a0 <__sprint_r>
   83de2:	2800      	cmp	r0, #0
   83de4:	f47f ae31 	bne.w	83a4a <_vfprintf_r+0x9fe>
   83de8:	9b2d      	ldr	r3, [sp, #180]	; 0xb4
   83dea:	9c2c      	ldr	r4, [sp, #176]	; 0xb0
   83dec:	e7e3      	b.n	83db6 <_vfprintf_r+0xd6a>
   83dee:	9d14      	ldr	r5, [sp, #80]	; 0x50
   83df0:	2301      	movs	r3, #1
   83df2:	3504      	adds	r5, #4
   83df4:	f855 4c04 	ldr.w	r4, [r5, #-4]
   83df8:	9514      	str	r5, [sp, #80]	; 0x50
   83dfa:	2500      	movs	r5, #0
   83dfc:	f7ff ba79 	b.w	832f2 <_vfprintf_r+0x2a6>
   83e00:	9d14      	ldr	r5, [sp, #80]	; 0x50
   83e02:	3504      	adds	r5, #4
   83e04:	f855 4c04 	ldr.w	r4, [r5, #-4]
   83e08:	9514      	str	r5, [sp, #80]	; 0x50
   83e0a:	4622      	mov	r2, r4
   83e0c:	17e5      	asrs	r5, r4, #31
   83e0e:	462b      	mov	r3, r5
   83e10:	e473      	b.n	836fa <_vfprintf_r+0x6ae>
   83e12:	9d14      	ldr	r5, [sp, #80]	; 0x50
   83e14:	3504      	adds	r5, #4
   83e16:	f855 4c04 	ldr.w	r4, [r5, #-4]
   83e1a:	9514      	str	r5, [sp, #80]	; 0x50
   83e1c:	2500      	movs	r5, #0
   83e1e:	f7ff ba68 	b.w	832f2 <_vfprintf_r+0x2a6>
   83e22:	9d14      	ldr	r5, [sp, #80]	; 0x50
   83e24:	3504      	adds	r5, #4
   83e26:	f855 4c04 	ldr.w	r4, [r5, #-4]
   83e2a:	9514      	str	r5, [sp, #80]	; 0x50
   83e2c:	2500      	movs	r5, #0
   83e2e:	e4f8      	b.n	83822 <_vfprintf_r+0x7d6>
   83e30:	4d83      	ldr	r5, [pc, #524]	; (84040 <_vfprintf_r+0xff4>)
   83e32:	950f      	str	r5, [sp, #60]	; 0x3c
   83e34:	3301      	adds	r3, #1
   83e36:	9d0f      	ldr	r5, [sp, #60]	; 0x3c
   83e38:	2b07      	cmp	r3, #7
   83e3a:	4444      	add	r4, r8
   83e3c:	932c      	str	r3, [sp, #176]	; 0xb0
   83e3e:	942d      	str	r4, [sp, #180]	; 0xb4
   83e40:	e887 0120 	stmia.w	r7, {r5, r8}
   83e44:	f77f ab7c 	ble.w	83540 <_vfprintf_r+0x4f4>
   83e48:	e70b      	b.n	83c62 <_vfprintf_r+0xc16>
   83e4a:	9d0c      	ldr	r5, [sp, #48]	; 0x30
   83e4c:	f8d5 9008 	ldr.w	r9, [r5, #8]
   83e50:	f7ff b928 	b.w	830a4 <_vfprintf_r+0x58>
   83e54:	4614      	mov	r4, r2
   83e56:	3301      	adds	r3, #1
   83e58:	9d0f      	ldr	r5, [sp, #60]	; 0x3c
   83e5a:	2b07      	cmp	r3, #7
   83e5c:	444c      	add	r4, r9
   83e5e:	932c      	str	r3, [sp, #176]	; 0xb0
   83e60:	e887 0220 	stmia.w	r7, {r5, r9}
   83e64:	bfd8      	it	le
   83e66:	3708      	addle	r7, #8
   83e68:	942d      	str	r4, [sp, #180]	; 0xb4
   83e6a:	dd09      	ble.n	83e80 <_vfprintf_r+0xe34>
   83e6c:	980c      	ldr	r0, [sp, #48]	; 0x30
   83e6e:	aa2b      	add	r2, sp, #172	; 0xac
   83e70:	9910      	ldr	r1, [sp, #64]	; 0x40
   83e72:	f003 fb15 	bl	874a0 <__sprint_r>
   83e76:	2800      	cmp	r0, #0
   83e78:	f47f af04 	bne.w	83c84 <_vfprintf_r+0xc38>
   83e7c:	9c2d      	ldr	r4, [sp, #180]	; 0xb4
   83e7e:	af38      	add	r7, sp, #224	; 0xe0
   83e80:	9d18      	ldr	r5, [sp, #96]	; 0x60
   83e82:	9b25      	ldr	r3, [sp, #148]	; 0x94
   83e84:	44a8      	add	r8, r5
   83e86:	9d12      	ldr	r5, [sp, #72]	; 0x48
   83e88:	42ab      	cmp	r3, r5
   83e8a:	db47      	blt.n	83f1c <_vfprintf_r+0xed0>
   83e8c:	9d0a      	ldr	r5, [sp, #40]	; 0x28
   83e8e:	07e8      	lsls	r0, r5, #31
   83e90:	d444      	bmi.n	83f1c <_vfprintf_r+0xed0>
   83e92:	9812      	ldr	r0, [sp, #72]	; 0x48
   83e94:	ebc8 050b 	rsb	r5, r8, fp
   83e98:	1ac3      	subs	r3, r0, r3
   83e9a:	42ab      	cmp	r3, r5
   83e9c:	bfb8      	it	lt
   83e9e:	461d      	movlt	r5, r3
   83ea0:	2d00      	cmp	r5, #0
   83ea2:	dd0c      	ble.n	83ebe <_vfprintf_r+0xe72>
   83ea4:	9a2c      	ldr	r2, [sp, #176]	; 0xb0
   83ea6:	442c      	add	r4, r5
   83ea8:	f8c7 8000 	str.w	r8, [r7]
   83eac:	3201      	adds	r2, #1
   83eae:	607d      	str	r5, [r7, #4]
   83eb0:	2a07      	cmp	r2, #7
   83eb2:	942d      	str	r4, [sp, #180]	; 0xb4
   83eb4:	922c      	str	r2, [sp, #176]	; 0xb0
   83eb6:	bfd8      	it	le
   83eb8:	3708      	addle	r7, #8
   83eba:	f300 8239 	bgt.w	84330 <_vfprintf_r+0x12e4>
   83ebe:	ea25 75e5 	bic.w	r5, r5, r5, asr #31
   83ec2:	ebc5 0803 	rsb	r8, r5, r3
   83ec6:	f1b8 0f00 	cmp.w	r8, #0
   83eca:	f77f ab3a 	ble.w	83542 <_vfprintf_r+0x4f6>
   83ece:	f1b8 0f10 	cmp.w	r8, #16
   83ed2:	9b2c      	ldr	r3, [sp, #176]	; 0xb0
   83ed4:	ddac      	ble.n	83e30 <_vfprintf_r+0xde4>
   83ed6:	4d5a      	ldr	r5, [pc, #360]	; (84040 <_vfprintf_r+0xff4>)
   83ed8:	f04f 0910 	mov.w	r9, #16
   83edc:	f8dd a040 	ldr.w	sl, [sp, #64]	; 0x40
   83ee0:	950f      	str	r5, [sp, #60]	; 0x3c
   83ee2:	9d0c      	ldr	r5, [sp, #48]	; 0x30
   83ee4:	e004      	b.n	83ef0 <_vfprintf_r+0xea4>
   83ee6:	f1a8 0810 	sub.w	r8, r8, #16
   83eea:	f1b8 0f10 	cmp.w	r8, #16
   83eee:	dda1      	ble.n	83e34 <_vfprintf_r+0xde8>
   83ef0:	3301      	adds	r3, #1
   83ef2:	3410      	adds	r4, #16
   83ef4:	2b07      	cmp	r3, #7
   83ef6:	e887 0240 	stmia.w	r7, {r6, r9}
   83efa:	932c      	str	r3, [sp, #176]	; 0xb0
   83efc:	f107 0708 	add.w	r7, r7, #8
   83f00:	942d      	str	r4, [sp, #180]	; 0xb4
   83f02:	ddf0      	ble.n	83ee6 <_vfprintf_r+0xe9a>
   83f04:	4628      	mov	r0, r5
   83f06:	4651      	mov	r1, sl
   83f08:	aa2b      	add	r2, sp, #172	; 0xac
   83f0a:	af38      	add	r7, sp, #224	; 0xe0
   83f0c:	f003 fac8 	bl	874a0 <__sprint_r>
   83f10:	2800      	cmp	r0, #0
   83f12:	f040 8191 	bne.w	84238 <_vfprintf_r+0x11ec>
   83f16:	9c2d      	ldr	r4, [sp, #180]	; 0xb4
   83f18:	9b2c      	ldr	r3, [sp, #176]	; 0xb0
   83f1a:	e7e4      	b.n	83ee6 <_vfprintf_r+0xe9a>
   83f1c:	9d1c      	ldr	r5, [sp, #112]	; 0x70
   83f1e:	9a2c      	ldr	r2, [sp, #176]	; 0xb0
   83f20:	442c      	add	r4, r5
   83f22:	9d19      	ldr	r5, [sp, #100]	; 0x64
   83f24:	3201      	adds	r2, #1
   83f26:	942d      	str	r4, [sp, #180]	; 0xb4
   83f28:	2a07      	cmp	r2, #7
   83f2a:	922c      	str	r2, [sp, #176]	; 0xb0
   83f2c:	603d      	str	r5, [r7, #0]
   83f2e:	9d1c      	ldr	r5, [sp, #112]	; 0x70
   83f30:	607d      	str	r5, [r7, #4]
   83f32:	bfd8      	it	le
   83f34:	3708      	addle	r7, #8
   83f36:	ddac      	ble.n	83e92 <_vfprintf_r+0xe46>
   83f38:	980c      	ldr	r0, [sp, #48]	; 0x30
   83f3a:	aa2b      	add	r2, sp, #172	; 0xac
   83f3c:	9910      	ldr	r1, [sp, #64]	; 0x40
   83f3e:	f003 faaf 	bl	874a0 <__sprint_r>
   83f42:	2800      	cmp	r0, #0
   83f44:	f47f ae9e 	bne.w	83c84 <_vfprintf_r+0xc38>
   83f48:	9b25      	ldr	r3, [sp, #148]	; 0x94
   83f4a:	af38      	add	r7, sp, #224	; 0xe0
   83f4c:	9c2d      	ldr	r4, [sp, #180]	; 0xb4
   83f4e:	e7a0      	b.n	83e92 <_vfprintf_r+0xe46>
   83f50:	46d9      	mov	r9, fp
   83f52:	e57a      	b.n	83a4a <_vfprintf_r+0x9fe>
   83f54:	9d0a      	ldr	r5, [sp, #40]	; 0x28
   83f56:	07e9      	lsls	r1, r5, #31
   83f58:	f53f ae41 	bmi.w	83bde <_vfprintf_r+0xb92>
   83f5c:	2201      	movs	r2, #1
   83f5e:	f104 0901 	add.w	r9, r4, #1
   83f62:	189c      	adds	r4, r3, r2
   83f64:	f8c7 8000 	str.w	r8, [r7]
   83f68:	2c07      	cmp	r4, #7
   83f6a:	f8cd 90b4 	str.w	r9, [sp, #180]	; 0xb4
   83f6e:	942c      	str	r4, [sp, #176]	; 0xb0
   83f70:	607a      	str	r2, [r7, #4]
   83f72:	f77f ae69 	ble.w	83c48 <_vfprintf_r+0xbfc>
   83f76:	980c      	ldr	r0, [sp, #48]	; 0x30
   83f78:	aa2b      	add	r2, sp, #172	; 0xac
   83f7a:	9910      	ldr	r1, [sp, #64]	; 0x40
   83f7c:	f003 fa90 	bl	874a0 <__sprint_r>
   83f80:	2800      	cmp	r0, #0
   83f82:	f47f ae7f 	bne.w	83c84 <_vfprintf_r+0xc38>
   83f86:	f8dd 90b4 	ldr.w	r9, [sp, #180]	; 0xb4
   83f8a:	af38      	add	r7, sp, #224	; 0xe0
   83f8c:	9c2c      	ldr	r4, [sp, #176]	; 0xb0
   83f8e:	e65c      	b.n	83c4a <_vfprintf_r+0xbfe>
   83f90:	980c      	ldr	r0, [sp, #48]	; 0x30
   83f92:	aa2b      	add	r2, sp, #172	; 0xac
   83f94:	9910      	ldr	r1, [sp, #64]	; 0x40
   83f96:	f003 fa83 	bl	874a0 <__sprint_r>
   83f9a:	2800      	cmp	r0, #0
   83f9c:	f47f ae72 	bne.w	83c84 <_vfprintf_r+0xc38>
   83fa0:	9a2d      	ldr	r2, [sp, #180]	; 0xb4
   83fa2:	af38      	add	r7, sp, #224	; 0xe0
   83fa4:	9b2c      	ldr	r3, [sp, #176]	; 0xb0
   83fa6:	e627      	b.n	83bf8 <_vfprintf_r+0xbac>
   83fa8:	980c      	ldr	r0, [sp, #48]	; 0x30
   83faa:	aa2b      	add	r2, sp, #172	; 0xac
   83fac:	9910      	ldr	r1, [sp, #64]	; 0x40
   83fae:	f003 fa77 	bl	874a0 <__sprint_r>
   83fb2:	2800      	cmp	r0, #0
   83fb4:	f47f ae66 	bne.w	83c84 <_vfprintf_r+0xc38>
   83fb8:	f8dd 90b4 	ldr.w	r9, [sp, #180]	; 0xb4
   83fbc:	af38      	add	r7, sp, #224	; 0xe0
   83fbe:	9c2c      	ldr	r4, [sp, #176]	; 0xb0
   83fc0:	e62a      	b.n	83c18 <_vfprintf_r+0xbcc>
   83fc2:	4699      	mov	r9, r3
   83fc4:	3401      	adds	r4, #1
   83fc6:	9b0f      	ldr	r3, [sp, #60]	; 0x3c
   83fc8:	2c07      	cmp	r4, #7
   83fca:	44c1      	add	r9, r8
   83fcc:	942c      	str	r4, [sp, #176]	; 0xb0
   83fce:	f8cd 90b4 	str.w	r9, [sp, #180]	; 0xb4
   83fd2:	e887 0108 	stmia.w	r7, {r3, r8}
   83fd6:	f77f ae37 	ble.w	83c48 <_vfprintf_r+0xbfc>
   83fda:	e7cc      	b.n	83f76 <_vfprintf_r+0xf2a>
   83fdc:	f10d 0bdf 	add.w	fp, sp, #223	; 0xdf
   83fe0:	4620      	mov	r0, r4
   83fe2:	4629      	mov	r1, r5
   83fe4:	220a      	movs	r2, #10
   83fe6:	2300      	movs	r3, #0
   83fe8:	f005 fc76 	bl	898d8 <__aeabi_uldivmod>
   83fec:	46d8      	mov	r8, fp
   83fee:	4620      	mov	r0, r4
   83ff0:	4629      	mov	r1, r5
   83ff2:	2300      	movs	r3, #0
   83ff4:	f10b 3bff 	add.w	fp, fp, #4294967295	; 0xffffffff
   83ff8:	3230      	adds	r2, #48	; 0x30
   83ffa:	f888 2000 	strb.w	r2, [r8]
   83ffe:	220a      	movs	r2, #10
   84000:	f005 fc6a 	bl	898d8 <__aeabi_uldivmod>
   84004:	4604      	mov	r4, r0
   84006:	460d      	mov	r5, r1
   84008:	ea54 0005 	orrs.w	r0, r4, r5
   8400c:	d1e8      	bne.n	83fe0 <_vfprintf_r+0xf94>
   8400e:	f7ff b9a4 	b.w	8335a <_vfprintf_r+0x30e>
   84012:	2b30      	cmp	r3, #48	; 0x30
   84014:	f43f a9a1 	beq.w	8335a <_vfprintf_r+0x30e>
   84018:	9c09      	ldr	r4, [sp, #36]	; 0x24
   8401a:	2330      	movs	r3, #48	; 0x30
   8401c:	4690      	mov	r8, r2
   8401e:	f801 3c01 	strb.w	r3, [r1, #-1]
   84022:	1aa4      	subs	r4, r4, r2
   84024:	9411      	str	r4, [sp, #68]	; 0x44
   84026:	f7ff b99c 	b.w	83362 <_vfprintf_r+0x316>
   8402a:	f04f 0a2d 	mov.w	sl, #45	; 0x2d
   8402e:	4264      	negs	r4, r4
   84030:	eb65 0545 	sbc.w	r5, r5, r5, lsl #1
   84034:	f88d a08f 	strb.w	sl, [sp, #143]	; 0x8f
   84038:	2301      	movs	r3, #1
   8403a:	f7ff b95e 	b.w	832fa <_vfprintf_r+0x2ae>
   8403e:	bf00      	nop
   84040:	0008a0fc 	.word	0x0008a0fc
   84044:	991d      	ldr	r1, [sp, #116]	; 0x74
   84046:	f003 f821 	bl	8708c <__fpclassifyd>
   8404a:	2800      	cmp	r0, #0
   8404c:	f000 8104 	beq.w	84258 <_vfprintf_r+0x120c>
   84050:	9c0d      	ldr	r4, [sp, #52]	; 0x34
   84052:	f029 0520 	bic.w	r5, r9, #32
   84056:	3401      	adds	r4, #1
   84058:	bf04      	itt	eq
   8405a:	2406      	moveq	r4, #6
   8405c:	940d      	streq	r4, [sp, #52]	; 0x34
   8405e:	d006      	beq.n	8406e <_vfprintf_r+0x1022>
   84060:	2d47      	cmp	r5, #71	; 0x47
   84062:	d104      	bne.n	8406e <_vfprintf_r+0x1022>
   84064:	9c0d      	ldr	r4, [sp, #52]	; 0x34
   84066:	2c00      	cmp	r4, #0
   84068:	bf08      	it	eq
   8406a:	2401      	moveq	r4, #1
   8406c:	940d      	str	r4, [sp, #52]	; 0x34
   8406e:	9b1d      	ldr	r3, [sp, #116]	; 0x74
   84070:	9c0a      	ldr	r4, [sp, #40]	; 0x28
   84072:	2b00      	cmp	r3, #0
   84074:	f444 7480 	orr.w	r4, r4, #256	; 0x100
   84078:	940f      	str	r4, [sp, #60]	; 0x3c
   8407a:	bfbd      	ittte	lt
   8407c:	461c      	movlt	r4, r3
   8407e:	f04f 0b2d 	movlt.w	fp, #45	; 0x2d
   84082:	f104 4a00 	addlt.w	sl, r4, #2147483648	; 0x80000000
   84086:	f8dd a074 	ldrge.w	sl, [sp, #116]	; 0x74
   8408a:	bfa8      	it	ge
   8408c:	f04f 0b00 	movge.w	fp, #0
   84090:	f1b5 0446 	subs.w	r4, r5, #70	; 0x46
   84094:	4261      	negs	r1, r4
   84096:	4161      	adcs	r1, r4
   84098:	2900      	cmp	r1, #0
   8409a:	f040 816b 	bne.w	84374 <_vfprintf_r+0x1328>
   8409e:	2d45      	cmp	r5, #69	; 0x45
   840a0:	f040 81fc 	bne.w	8449c <_vfprintf_r+0x1450>
   840a4:	980d      	ldr	r0, [sp, #52]	; 0x34
   840a6:	2102      	movs	r1, #2
   840a8:	9a1b      	ldr	r2, [sp, #108]	; 0x6c
   840aa:	4653      	mov	r3, sl
   840ac:	1c44      	adds	r4, r0, #1
   840ae:	9100      	str	r1, [sp, #0]
   840b0:	9401      	str	r4, [sp, #4]
   840b2:	a925      	add	r1, sp, #148	; 0x94
   840b4:	980c      	ldr	r0, [sp, #48]	; 0x30
   840b6:	9102      	str	r1, [sp, #8]
   840b8:	a926      	add	r1, sp, #152	; 0x98
   840ba:	9103      	str	r1, [sp, #12]
   840bc:	a929      	add	r1, sp, #164	; 0xa4
   840be:	9104      	str	r1, [sp, #16]
   840c0:	f000 fbe0 	bl	84884 <_dtoa_r>
   840c4:	4680      	mov	r8, r0
   840c6:	4404      	add	r4, r0
   840c8:	2300      	movs	r3, #0
   840ca:	981b      	ldr	r0, [sp, #108]	; 0x6c
   840cc:	2200      	movs	r2, #0
   840ce:	4651      	mov	r1, sl
   840d0:	f005 fba8 	bl	89824 <__aeabi_dcmpeq>
   840d4:	4623      	mov	r3, r4
   840d6:	b948      	cbnz	r0, 840ec <_vfprintf_r+0x10a0>
   840d8:	9b29      	ldr	r3, [sp, #164]	; 0xa4
   840da:	429c      	cmp	r4, r3
   840dc:	d906      	bls.n	840ec <_vfprintf_r+0x10a0>
   840de:	2130      	movs	r1, #48	; 0x30
   840e0:	1c5a      	adds	r2, r3, #1
   840e2:	9229      	str	r2, [sp, #164]	; 0xa4
   840e4:	7019      	strb	r1, [r3, #0]
   840e6:	9b29      	ldr	r3, [sp, #164]	; 0xa4
   840e8:	429c      	cmp	r4, r3
   840ea:	d8f9      	bhi.n	840e0 <_vfprintf_r+0x1094>
   840ec:	2d47      	cmp	r5, #71	; 0x47
   840ee:	ebc8 0303 	rsb	r3, r8, r3
   840f2:	9312      	str	r3, [sp, #72]	; 0x48
   840f4:	f000 8177 	beq.w	843e6 <_vfprintf_r+0x139a>
   840f8:	f1b9 0f65 	cmp.w	r9, #101	; 0x65
   840fc:	f340 824d 	ble.w	8459a <_vfprintf_r+0x154e>
   84100:	f1b9 0f66 	cmp.w	r9, #102	; 0x66
   84104:	f000 81cc 	beq.w	844a0 <_vfprintf_r+0x1454>
   84108:	9d25      	ldr	r5, [sp, #148]	; 0x94
   8410a:	9518      	str	r5, [sp, #96]	; 0x60
   8410c:	9c18      	ldr	r4, [sp, #96]	; 0x60
   8410e:	9d12      	ldr	r5, [sp, #72]	; 0x48
   84110:	42ac      	cmp	r4, r5
   84112:	f2c0 81b5 	blt.w	84480 <_vfprintf_r+0x1434>
   84116:	9c0a      	ldr	r4, [sp, #40]	; 0x28
   84118:	07e0      	lsls	r0, r4, #31
   8411a:	bf53      	iteet	pl
   8411c:	f04f 0967 	movpl.w	r9, #103	; 0x67
   84120:	f04f 0967 	movmi.w	r9, #103	; 0x67
   84124:	9b18      	ldrmi	r3, [sp, #96]	; 0x60
   84126:	9d18      	ldrpl	r5, [sp, #96]	; 0x60
   84128:	bf49      	itett	mi
   8412a:	3301      	addmi	r3, #1
   8412c:	ea25 73e5 	bicpl.w	r3, r5, r5, asr #31
   84130:	9311      	strmi	r3, [sp, #68]	; 0x44
   84132:	ea23 73e3 	bicmi.w	r3, r3, r3, asr #31
   84136:	bf58      	it	pl
   84138:	9511      	strpl	r5, [sp, #68]	; 0x44
   8413a:	f1bb 0f00 	cmp.w	fp, #0
   8413e:	f040 8143 	bne.w	843c8 <_vfprintf_r+0x137c>
   84142:	9c0f      	ldr	r4, [sp, #60]	; 0x3c
   84144:	930e      	str	r3, [sp, #56]	; 0x38
   84146:	f8cd b034 	str.w	fp, [sp, #52]	; 0x34
   8414a:	940a      	str	r4, [sp, #40]	; 0x28
   8414c:	f89d a08f 	ldrb.w	sl, [sp, #143]	; 0x8f
   84150:	f7ff b90f 	b.w	83372 <_vfprintf_r+0x326>
   84154:	9c14      	ldr	r4, [sp, #80]	; 0x50
   84156:	1de3      	adds	r3, r4, #7
   84158:	f023 0307 	bic.w	r3, r3, #7
   8415c:	f103 0508 	add.w	r5, r3, #8
   84160:	9514      	str	r5, [sp, #80]	; 0x50
   84162:	681c      	ldr	r4, [r3, #0]
   84164:	941b      	str	r4, [sp, #108]	; 0x6c
   84166:	685b      	ldr	r3, [r3, #4]
   84168:	931d      	str	r3, [sp, #116]	; 0x74
   8416a:	f7ff bae3 	b.w	83734 <_vfprintf_r+0x6e8>
   8416e:	9c0a      	ldr	r4, [sp, #40]	; 0x28
   84170:	06e2      	lsls	r2, r4, #27
   84172:	d563      	bpl.n	8423c <_vfprintf_r+0x11f0>
   84174:	9d14      	ldr	r5, [sp, #80]	; 0x50
   84176:	9c15      	ldr	r4, [sp, #84]	; 0x54
   84178:	3504      	adds	r5, #4
   8417a:	f855 3c04 	ldr.w	r3, [r5, #-4]
   8417e:	9514      	str	r5, [sp, #80]	; 0x50
   84180:	601c      	str	r4, [r3, #0]
   84182:	f7fe bfce 	b.w	83122 <_vfprintf_r+0xd6>
   84186:	980c      	ldr	r0, [sp, #48]	; 0x30
   84188:	aa2b      	add	r2, sp, #172	; 0xac
   8418a:	9910      	ldr	r1, [sp, #64]	; 0x40
   8418c:	f003 f988 	bl	874a0 <__sprint_r>
   84190:	2800      	cmp	r0, #0
   84192:	f47f ad77 	bne.w	83c84 <_vfprintf_r+0xc38>
   84196:	9c2d      	ldr	r4, [sp, #180]	; 0xb4
   84198:	af38      	add	r7, sp, #224	; 0xe0
   8419a:	e47a      	b.n	83a92 <_vfprintf_r+0xa46>
   8419c:	9a2c      	ldr	r2, [sp, #176]	; 0xb0
   8419e:	2101      	movs	r1, #1
   841a0:	9d17      	ldr	r5, [sp, #92]	; 0x5c
   841a2:	3401      	adds	r4, #1
   841a4:	440a      	add	r2, r1
   841a6:	942d      	str	r4, [sp, #180]	; 0xb4
   841a8:	2a07      	cmp	r2, #7
   841aa:	922c      	str	r2, [sp, #176]	; 0xb0
   841ac:	603d      	str	r5, [r7, #0]
   841ae:	6079      	str	r1, [r7, #4]
   841b0:	dc6b      	bgt.n	8428a <_vfprintf_r+0x123e>
   841b2:	3708      	adds	r7, #8
   841b4:	4619      	mov	r1, r3
   841b6:	b929      	cbnz	r1, 841c4 <_vfprintf_r+0x1178>
   841b8:	9d12      	ldr	r5, [sp, #72]	; 0x48
   841ba:	b91d      	cbnz	r5, 841c4 <_vfprintf_r+0x1178>
   841bc:	9d0a      	ldr	r5, [sp, #40]	; 0x28
   841be:	07ed      	lsls	r5, r5, #31
   841c0:	f57f a9bf 	bpl.w	83542 <_vfprintf_r+0x4f6>
   841c4:	9b2c      	ldr	r3, [sp, #176]	; 0xb0
   841c6:	9a1c      	ldr	r2, [sp, #112]	; 0x70
   841c8:	3301      	adds	r3, #1
   841ca:	9d1c      	ldr	r5, [sp, #112]	; 0x70
   841cc:	4422      	add	r2, r4
   841ce:	9c19      	ldr	r4, [sp, #100]	; 0x64
   841d0:	2b07      	cmp	r3, #7
   841d2:	922d      	str	r2, [sp, #180]	; 0xb4
   841d4:	607d      	str	r5, [r7, #4]
   841d6:	603c      	str	r4, [r7, #0]
   841d8:	bfd8      	it	le
   841da:	3708      	addle	r7, #8
   841dc:	932c      	str	r3, [sp, #176]	; 0xb0
   841de:	f300 813f 	bgt.w	84460 <_vfprintf_r+0x1414>
   841e2:	f1c1 0900 	rsb	r9, r1, #0
   841e6:	f1b9 0f00 	cmp.w	r9, #0
   841ea:	dd7b      	ble.n	842e4 <_vfprintf_r+0x1298>
   841ec:	f1b9 0f10 	cmp.w	r9, #16
   841f0:	bfdc      	itt	le
   841f2:	4ca2      	ldrle	r4, [pc, #648]	; (8447c <_vfprintf_r+0x1430>)
   841f4:	940f      	strle	r4, [sp, #60]	; 0x3c
   841f6:	dd5f      	ble.n	842b8 <_vfprintf_r+0x126c>
   841f8:	4da0      	ldr	r5, [pc, #640]	; (8447c <_vfprintf_r+0x1430>)
   841fa:	2410      	movs	r4, #16
   841fc:	f8dd a040 	ldr.w	sl, [sp, #64]	; 0x40
   84200:	950f      	str	r5, [sp, #60]	; 0x3c
   84202:	9d0c      	ldr	r5, [sp, #48]	; 0x30
   84204:	e004      	b.n	84210 <_vfprintf_r+0x11c4>
   84206:	f1a9 0910 	sub.w	r9, r9, #16
   8420a:	f1b9 0f10 	cmp.w	r9, #16
   8420e:	dd53      	ble.n	842b8 <_vfprintf_r+0x126c>
   84210:	3301      	adds	r3, #1
   84212:	3210      	adds	r2, #16
   84214:	2b07      	cmp	r3, #7
   84216:	603e      	str	r6, [r7, #0]
   84218:	607c      	str	r4, [r7, #4]
   8421a:	f107 0708 	add.w	r7, r7, #8
   8421e:	932c      	str	r3, [sp, #176]	; 0xb0
   84220:	922d      	str	r2, [sp, #180]	; 0xb4
   84222:	ddf0      	ble.n	84206 <_vfprintf_r+0x11ba>
   84224:	4628      	mov	r0, r5
   84226:	4651      	mov	r1, sl
   84228:	aa2b      	add	r2, sp, #172	; 0xac
   8422a:	af38      	add	r7, sp, #224	; 0xe0
   8422c:	f003 f938 	bl	874a0 <__sprint_r>
   84230:	b910      	cbnz	r0, 84238 <_vfprintf_r+0x11ec>
   84232:	9a2d      	ldr	r2, [sp, #180]	; 0xb4
   84234:	9b2c      	ldr	r3, [sp, #176]	; 0xb0
   84236:	e7e6      	b.n	84206 <_vfprintf_r+0x11ba>
   84238:	46d1      	mov	r9, sl
   8423a:	e406      	b.n	83a4a <_vfprintf_r+0x9fe>
   8423c:	9c14      	ldr	r4, [sp, #80]	; 0x50
   8423e:	9d0a      	ldr	r5, [sp, #40]	; 0x28
   84240:	3404      	adds	r4, #4
   84242:	f854 3c04 	ldr.w	r3, [r4, #-4]
   84246:	f015 0f40 	tst.w	r5, #64	; 0x40
   8424a:	9d15      	ldr	r5, [sp, #84]	; 0x54
   8424c:	9414      	str	r4, [sp, #80]	; 0x50
   8424e:	bf14      	ite	ne
   84250:	801d      	strhne	r5, [r3, #0]
   84252:	601d      	streq	r5, [r3, #0]
   84254:	f7fe bf65 	b.w	83122 <_vfprintf_r+0xd6>
   84258:	9d0a      	ldr	r5, [sp, #40]	; 0x28
   8425a:	f24a 1818 	movw	r8, #41240	; 0xa118
   8425e:	f24a 1314 	movw	r3, #41236	; 0xa114
   84262:	f2c0 0808 	movt	r8, #8
   84266:	f2c0 0308 	movt	r3, #8
   8426a:	2403      	movs	r4, #3
   8426c:	f025 0580 	bic.w	r5, r5, #128	; 0x80
   84270:	900d      	str	r0, [sp, #52]	; 0x34
   84272:	940e      	str	r4, [sp, #56]	; 0x38
   84274:	f1b9 0f47 	cmp.w	r9, #71	; 0x47
   84278:	bfd8      	it	le
   8427a:	4698      	movle	r8, r3
   8427c:	950a      	str	r5, [sp, #40]	; 0x28
   8427e:	9018      	str	r0, [sp, #96]	; 0x60
   84280:	9411      	str	r4, [sp, #68]	; 0x44
   84282:	f89d a08f 	ldrb.w	sl, [sp, #143]	; 0x8f
   84286:	f7ff b874 	b.w	83372 <_vfprintf_r+0x326>
   8428a:	980c      	ldr	r0, [sp, #48]	; 0x30
   8428c:	aa2b      	add	r2, sp, #172	; 0xac
   8428e:	9910      	ldr	r1, [sp, #64]	; 0x40
   84290:	f003 f906 	bl	874a0 <__sprint_r>
   84294:	2800      	cmp	r0, #0
   84296:	f47f acf5 	bne.w	83c84 <_vfprintf_r+0xc38>
   8429a:	9925      	ldr	r1, [sp, #148]	; 0x94
   8429c:	af38      	add	r7, sp, #224	; 0xe0
   8429e:	9c2d      	ldr	r4, [sp, #180]	; 0xb4
   842a0:	e789      	b.n	841b6 <_vfprintf_r+0x116a>
   842a2:	980c      	ldr	r0, [sp, #48]	; 0x30
   842a4:	aa2b      	add	r2, sp, #172	; 0xac
   842a6:	9910      	ldr	r1, [sp, #64]	; 0x40
   842a8:	f003 f8fa 	bl	874a0 <__sprint_r>
   842ac:	2800      	cmp	r0, #0
   842ae:	f47f ace9 	bne.w	83c84 <_vfprintf_r+0xc38>
   842b2:	9c2d      	ldr	r4, [sp, #180]	; 0xb4
   842b4:	af38      	add	r7, sp, #224	; 0xe0
   842b6:	e403      	b.n	83ac0 <_vfprintf_r+0xa74>
   842b8:	3301      	adds	r3, #1
   842ba:	9c0f      	ldr	r4, [sp, #60]	; 0x3c
   842bc:	2b07      	cmp	r3, #7
   842be:	444a      	add	r2, r9
   842c0:	932c      	str	r3, [sp, #176]	; 0xb0
   842c2:	e887 0210 	stmia.w	r7, {r4, r9}
   842c6:	bfd8      	it	le
   842c8:	3708      	addle	r7, #8
   842ca:	922d      	str	r2, [sp, #180]	; 0xb4
   842cc:	dd0a      	ble.n	842e4 <_vfprintf_r+0x1298>
   842ce:	980c      	ldr	r0, [sp, #48]	; 0x30
   842d0:	aa2b      	add	r2, sp, #172	; 0xac
   842d2:	9910      	ldr	r1, [sp, #64]	; 0x40
   842d4:	f003 f8e4 	bl	874a0 <__sprint_r>
   842d8:	2800      	cmp	r0, #0
   842da:	f47f acd3 	bne.w	83c84 <_vfprintf_r+0xc38>
   842de:	9a2d      	ldr	r2, [sp, #180]	; 0xb4
   842e0:	af38      	add	r7, sp, #224	; 0xe0
   842e2:	9b2c      	ldr	r3, [sp, #176]	; 0xb0
   842e4:	3301      	adds	r3, #1
   842e6:	9d12      	ldr	r5, [sp, #72]	; 0x48
   842e8:	9c12      	ldr	r4, [sp, #72]	; 0x48
   842ea:	2b07      	cmp	r3, #7
   842ec:	932c      	str	r3, [sp, #176]	; 0xb0
   842ee:	4414      	add	r4, r2
   842f0:	f8c7 8000 	str.w	r8, [r7]
   842f4:	942d      	str	r4, [sp, #180]	; 0xb4
   842f6:	607d      	str	r5, [r7, #4]
   842f8:	f77f a922 	ble.w	83540 <_vfprintf_r+0x4f4>
   842fc:	e4b1      	b.n	83c62 <_vfprintf_r+0xc16>
   842fe:	940d      	str	r4, [sp, #52]	; 0x34
   84300:	f003 f862 	bl	873c8 <strlen>
   84304:	9514      	str	r5, [sp, #80]	; 0x50
   84306:	9d0d      	ldr	r5, [sp, #52]	; 0x34
   84308:	f89d a08f 	ldrb.w	sl, [sp, #143]	; 0x8f
   8430c:	9518      	str	r5, [sp, #96]	; 0x60
   8430e:	ea20 74e0 	bic.w	r4, r0, r0, asr #31
   84312:	9011      	str	r0, [sp, #68]	; 0x44
   84314:	940e      	str	r4, [sp, #56]	; 0x38
   84316:	f7ff b82c 	b.w	83372 <_vfprintf_r+0x326>
   8431a:	980c      	ldr	r0, [sp, #48]	; 0x30
   8431c:	aa2b      	add	r2, sp, #172	; 0xac
   8431e:	9910      	ldr	r1, [sp, #64]	; 0x40
   84320:	f003 f8be 	bl	874a0 <__sprint_r>
   84324:	2800      	cmp	r0, #0
   84326:	f47f acad 	bne.w	83c84 <_vfprintf_r+0xc38>
   8432a:	9c2d      	ldr	r4, [sp, #180]	; 0xb4
   8432c:	af38      	add	r7, sp, #224	; 0xe0
   8432e:	e4e5      	b.n	83cfc <_vfprintf_r+0xcb0>
   84330:	980c      	ldr	r0, [sp, #48]	; 0x30
   84332:	aa2b      	add	r2, sp, #172	; 0xac
   84334:	9910      	ldr	r1, [sp, #64]	; 0x40
   84336:	f003 f8b3 	bl	874a0 <__sprint_r>
   8433a:	2800      	cmp	r0, #0
   8433c:	f47f aca2 	bne.w	83c84 <_vfprintf_r+0xc38>
   84340:	9b25      	ldr	r3, [sp, #148]	; 0x94
   84342:	af38      	add	r7, sp, #224	; 0xe0
   84344:	9912      	ldr	r1, [sp, #72]	; 0x48
   84346:	9c2d      	ldr	r4, [sp, #180]	; 0xb4
   84348:	1acb      	subs	r3, r1, r3
   8434a:	e5b8      	b.n	83ebe <_vfprintf_r+0xe72>
   8434c:	9c0d      	ldr	r4, [sp, #52]	; 0x34
   8434e:	46c2      	mov	sl, r8
   84350:	f24a 1844 	movw	r8, #41284	; 0xa144
   84354:	f8cd a034 	str.w	sl, [sp, #52]	; 0x34
   84358:	2c06      	cmp	r4, #6
   8435a:	bf28      	it	cs
   8435c:	2406      	movcs	r4, #6
   8435e:	9514      	str	r5, [sp, #80]	; 0x50
   84360:	9411      	str	r4, [sp, #68]	; 0x44
   84362:	f2c0 0808 	movt	r8, #8
   84366:	ea24 74e4 	bic.w	r4, r4, r4, asr #31
   8436a:	f8cd a060 	str.w	sl, [sp, #96]	; 0x60
   8436e:	940e      	str	r4, [sp, #56]	; 0x38
   84370:	f7fe bfff 	b.w	83372 <_vfprintf_r+0x326>
   84374:	2003      	movs	r0, #3
   84376:	9c0d      	ldr	r4, [sp, #52]	; 0x34
   84378:	4653      	mov	r3, sl
   8437a:	9000      	str	r0, [sp, #0]
   8437c:	a825      	add	r0, sp, #148	; 0x94
   8437e:	9a1b      	ldr	r2, [sp, #108]	; 0x6c
   84380:	9002      	str	r0, [sp, #8]
   84382:	a826      	add	r0, sp, #152	; 0x98
   84384:	9401      	str	r4, [sp, #4]
   84386:	9003      	str	r0, [sp, #12]
   84388:	a829      	add	r0, sp, #164	; 0xa4
   8438a:	9004      	str	r0, [sp, #16]
   8438c:	980c      	ldr	r0, [sp, #48]	; 0x30
   8438e:	9107      	str	r1, [sp, #28]
   84390:	f000 fa78 	bl	84884 <_dtoa_r>
   84394:	2d47      	cmp	r5, #71	; 0x47
   84396:	9907      	ldr	r1, [sp, #28]
   84398:	4680      	mov	r8, r0
   8439a:	d102      	bne.n	843a2 <_vfprintf_r+0x1356>
   8439c:	9c0a      	ldr	r4, [sp, #40]	; 0x28
   8439e:	07e0      	lsls	r0, r4, #31
   843a0:	d51d      	bpl.n	843de <_vfprintf_r+0x1392>
   843a2:	9c0d      	ldr	r4, [sp, #52]	; 0x34
   843a4:	4444      	add	r4, r8
   843a6:	2900      	cmp	r1, #0
   843a8:	f43f ae8e 	beq.w	840c8 <_vfprintf_r+0x107c>
   843ac:	f898 3000 	ldrb.w	r3, [r8]
   843b0:	2b30      	cmp	r3, #48	; 0x30
   843b2:	f000 80b2 	beq.w	8451a <_vfprintf_r+0x14ce>
   843b6:	9b25      	ldr	r3, [sp, #148]	; 0x94
   843b8:	441c      	add	r4, r3
   843ba:	e685      	b.n	840c8 <_vfprintf_r+0x107c>
   843bc:	f04f 0a2d 	mov.w	sl, #45	; 0x2d
   843c0:	f88d a08f 	strb.w	sl, [sp, #143]	; 0x8f
   843c4:	f7ff b9c8 	b.w	83758 <_vfprintf_r+0x70c>
   843c8:	9d0f      	ldr	r5, [sp, #60]	; 0x3c
   843ca:	f04f 0a2d 	mov.w	sl, #45	; 0x2d
   843ce:	2400      	movs	r4, #0
   843d0:	930e      	str	r3, [sp, #56]	; 0x38
   843d2:	f88d a08f 	strb.w	sl, [sp, #143]	; 0x8f
   843d6:	950a      	str	r5, [sp, #40]	; 0x28
   843d8:	940d      	str	r4, [sp, #52]	; 0x34
   843da:	f7fe bfcd 	b.w	83378 <_vfprintf_r+0x32c>
   843de:	9b29      	ldr	r3, [sp, #164]	; 0xa4
   843e0:	ebc8 0303 	rsb	r3, r8, r3
   843e4:	9312      	str	r3, [sp, #72]	; 0x48
   843e6:	9b25      	ldr	r3, [sp, #148]	; 0x94
   843e8:	1cda      	adds	r2, r3, #3
   843ea:	db11      	blt.n	84410 <_vfprintf_r+0x13c4>
   843ec:	9c0d      	ldr	r4, [sp, #52]	; 0x34
   843ee:	429c      	cmp	r4, r3
   843f0:	db0e      	blt.n	84410 <_vfprintf_r+0x13c4>
   843f2:	9318      	str	r3, [sp, #96]	; 0x60
   843f4:	e68a      	b.n	8410c <_vfprintf_r+0x10c0>
   843f6:	9c0d      	ldr	r4, [sp, #52]	; 0x34
   843f8:	9514      	str	r5, [sp, #80]	; 0x50
   843fa:	ea24 74e4 	bic.w	r4, r4, r4, asr #31
   843fe:	940e      	str	r4, [sp, #56]	; 0x38
   84400:	9c0d      	ldr	r4, [sp, #52]	; 0x34
   84402:	9018      	str	r0, [sp, #96]	; 0x60
   84404:	900d      	str	r0, [sp, #52]	; 0x34
   84406:	9411      	str	r4, [sp, #68]	; 0x44
   84408:	f89d a08f 	ldrb.w	sl, [sp, #143]	; 0x8f
   8440c:	f7fe bfb1 	b.w	83372 <_vfprintf_r+0x326>
   84410:	f1a9 0902 	sub.w	r9, r9, #2
   84414:	3b01      	subs	r3, #1
   84416:	9325      	str	r3, [sp, #148]	; 0x94
   84418:	2b00      	cmp	r3, #0
   8441a:	f88d 909c 	strb.w	r9, [sp, #156]	; 0x9c
   8441e:	bfba      	itte	lt
   84420:	425b      	neglt	r3, r3
   84422:	222d      	movlt	r2, #45	; 0x2d
   84424:	222b      	movge	r2, #43	; 0x2b
   84426:	2b09      	cmp	r3, #9
   84428:	f88d 209d 	strb.w	r2, [sp, #157]	; 0x9d
   8442c:	dc47      	bgt.n	844be <_vfprintf_r+0x1472>
   8442e:	3330      	adds	r3, #48	; 0x30
   84430:	f88d 309f 	strb.w	r3, [sp, #159]	; 0x9f
   84434:	2330      	movs	r3, #48	; 0x30
   84436:	f88d 309e 	strb.w	r3, [sp, #158]	; 0x9e
   8443a:	ab28      	add	r3, sp, #160	; 0xa0
   8443c:	9d12      	ldr	r5, [sp, #72]	; 0x48
   8443e:	aa27      	add	r2, sp, #156	; 0x9c
   84440:	9c12      	ldr	r4, [sp, #72]	; 0x48
   84442:	1a9a      	subs	r2, r3, r2
   84444:	2d01      	cmp	r5, #1
   84446:	921e      	str	r2, [sp, #120]	; 0x78
   84448:	4414      	add	r4, r2
   8444a:	9411      	str	r4, [sp, #68]	; 0x44
   8444c:	f340 809b 	ble.w	84586 <_vfprintf_r+0x153a>
   84450:	9b11      	ldr	r3, [sp, #68]	; 0x44
   84452:	2400      	movs	r4, #0
   84454:	9418      	str	r4, [sp, #96]	; 0x60
   84456:	3301      	adds	r3, #1
   84458:	9311      	str	r3, [sp, #68]	; 0x44
   8445a:	ea23 73e3 	bic.w	r3, r3, r3, asr #31
   8445e:	e66c      	b.n	8413a <_vfprintf_r+0x10ee>
   84460:	980c      	ldr	r0, [sp, #48]	; 0x30
   84462:	aa2b      	add	r2, sp, #172	; 0xac
   84464:	9910      	ldr	r1, [sp, #64]	; 0x40
   84466:	f003 f81b 	bl	874a0 <__sprint_r>
   8446a:	2800      	cmp	r0, #0
   8446c:	f47f ac0a 	bne.w	83c84 <_vfprintf_r+0xc38>
   84470:	9925      	ldr	r1, [sp, #148]	; 0x94
   84472:	af38      	add	r7, sp, #224	; 0xe0
   84474:	9a2d      	ldr	r2, [sp, #180]	; 0xb4
   84476:	9b2c      	ldr	r3, [sp, #176]	; 0xb0
   84478:	e6b3      	b.n	841e2 <_vfprintf_r+0x1196>
   8447a:	bf00      	nop
   8447c:	0008a0fc 	.word	0x0008a0fc
   84480:	9c18      	ldr	r4, [sp, #96]	; 0x60
   84482:	f04f 0967 	mov.w	r9, #103	; 0x67
   84486:	9d12      	ldr	r5, [sp, #72]	; 0x48
   84488:	2c00      	cmp	r4, #0
   8448a:	bfd4      	ite	le
   8448c:	f1c4 0302 	rsble	r3, r4, #2
   84490:	2301      	movgt	r3, #1
   84492:	441d      	add	r5, r3
   84494:	9511      	str	r5, [sp, #68]	; 0x44
   84496:	ea25 73e5 	bic.w	r3, r5, r5, asr #31
   8449a:	e64e      	b.n	8413a <_vfprintf_r+0x10ee>
   8449c:	2002      	movs	r0, #2
   8449e:	e76a      	b.n	84376 <_vfprintf_r+0x132a>
   844a0:	9c25      	ldr	r4, [sp, #148]	; 0x94
   844a2:	2c00      	cmp	r4, #0
   844a4:	9418      	str	r4, [sp, #96]	; 0x60
   844a6:	dd4f      	ble.n	84548 <_vfprintf_r+0x14fc>
   844a8:	9d0d      	ldr	r5, [sp, #52]	; 0x34
   844aa:	2d00      	cmp	r5, #0
   844ac:	d144      	bne.n	84538 <_vfprintf_r+0x14ec>
   844ae:	9c0a      	ldr	r4, [sp, #40]	; 0x28
   844b0:	07e5      	lsls	r5, r4, #31
   844b2:	d441      	bmi.n	84538 <_vfprintf_r+0x14ec>
   844b4:	9d18      	ldr	r5, [sp, #96]	; 0x60
   844b6:	ea25 73e5 	bic.w	r3, r5, r5, asr #31
   844ba:	9511      	str	r5, [sp, #68]	; 0x44
   844bc:	e63d      	b.n	8413a <_vfprintf_r+0x10ee>
   844be:	f246 6167 	movw	r1, #26215	; 0x6667
   844c2:	f10d 05aa 	add.w	r5, sp, #170	; 0xaa
   844c6:	f2c6 6166 	movt	r1, #26214	; 0x6666
   844ca:	fb81 2003 	smull	r2, r0, r1, r3
   844ce:	17da      	asrs	r2, r3, #31
   844d0:	462c      	mov	r4, r5
   844d2:	3d01      	subs	r5, #1
   844d4:	ebc2 02a0 	rsb	r2, r2, r0, asr #2
   844d8:	eb02 0082 	add.w	r0, r2, r2, lsl #2
   844dc:	eba3 0040 	sub.w	r0, r3, r0, lsl #1
   844e0:	4613      	mov	r3, r2
   844e2:	2b09      	cmp	r3, #9
   844e4:	f100 0230 	add.w	r2, r0, #48	; 0x30
   844e8:	7022      	strb	r2, [r4, #0]
   844ea:	dcee      	bgt.n	844ca <_vfprintf_r+0x147e>
   844ec:	f10d 00ab 	add.w	r0, sp, #171	; 0xab
   844f0:	3330      	adds	r3, #48	; 0x30
   844f2:	42a8      	cmp	r0, r5
   844f4:	b2da      	uxtb	r2, r3
   844f6:	f804 2c01 	strb.w	r2, [r4, #-1]
   844fa:	d950      	bls.n	8459e <_vfprintf_r+0x1552>
   844fc:	f10d 019d 	add.w	r1, sp, #157	; 0x9d
   84500:	4623      	mov	r3, r4
   84502:	e001      	b.n	84508 <_vfprintf_r+0x14bc>
   84504:	f813 2b01 	ldrb.w	r2, [r3], #1
   84508:	4283      	cmp	r3, r0
   8450a:	f801 2f01 	strb.w	r2, [r1, #1]!
   8450e:	d1f9      	bne.n	84504 <_vfprintf_r+0x14b8>
   84510:	ad48      	add	r5, sp, #288	; 0x120
   84512:	ebc4 0345 	rsb	r3, r4, r5, lsl #1
   84516:	3bf6      	subs	r3, #246	; 0xf6
   84518:	e790      	b.n	8443c <_vfprintf_r+0x13f0>
   8451a:	981b      	ldr	r0, [sp, #108]	; 0x6c
   8451c:	2200      	movs	r2, #0
   8451e:	2300      	movs	r3, #0
   84520:	4651      	mov	r1, sl
   84522:	f005 f97f 	bl	89824 <__aeabi_dcmpeq>
   84526:	2800      	cmp	r0, #0
   84528:	f47f af45 	bne.w	843b6 <_vfprintf_r+0x136a>
   8452c:	980d      	ldr	r0, [sp, #52]	; 0x34
   8452e:	f1c0 0301 	rsb	r3, r0, #1
   84532:	9325      	str	r3, [sp, #148]	; 0x94
   84534:	441c      	add	r4, r3
   84536:	e5c7      	b.n	840c8 <_vfprintf_r+0x107c>
   84538:	9c0d      	ldr	r4, [sp, #52]	; 0x34
   8453a:	9d18      	ldr	r5, [sp, #96]	; 0x60
   8453c:	1c63      	adds	r3, r4, #1
   8453e:	441d      	add	r5, r3
   84540:	9511      	str	r5, [sp, #68]	; 0x44
   84542:	ea25 73e5 	bic.w	r3, r5, r5, asr #31
   84546:	e5f8      	b.n	8413a <_vfprintf_r+0x10ee>
   84548:	9c0d      	ldr	r4, [sp, #52]	; 0x34
   8454a:	b934      	cbnz	r4, 8455a <_vfprintf_r+0x150e>
   8454c:	9d0a      	ldr	r5, [sp, #40]	; 0x28
   8454e:	07ec      	lsls	r4, r5, #31
   84550:	bf5c      	itt	pl
   84552:	2301      	movpl	r3, #1
   84554:	9311      	strpl	r3, [sp, #68]	; 0x44
   84556:	f57f adf0 	bpl.w	8413a <_vfprintf_r+0x10ee>
   8455a:	9b0d      	ldr	r3, [sp, #52]	; 0x34
   8455c:	3302      	adds	r3, #2
   8455e:	9311      	str	r3, [sp, #68]	; 0x44
   84560:	ea23 73e3 	bic.w	r3, r3, r3, asr #31
   84564:	e5e9      	b.n	8413a <_vfprintf_r+0x10ee>
   84566:	9d14      	ldr	r5, [sp, #80]	; 0x50
   84568:	9c14      	ldr	r4, [sp, #80]	; 0x50
   8456a:	f893 9001 	ldrb.w	r9, [r3, #1]
   8456e:	4603      	mov	r3, r0
   84570:	682d      	ldr	r5, [r5, #0]
   84572:	1d21      	adds	r1, r4, #4
   84574:	9114      	str	r1, [sp, #80]	; 0x50
   84576:	2d00      	cmp	r5, #0
   84578:	950d      	str	r5, [sp, #52]	; 0x34
   8457a:	bfbc      	itt	lt
   8457c:	f04f 35ff 	movlt.w	r5, #4294967295	; 0xffffffff
   84580:	950d      	strlt	r5, [sp, #52]	; 0x34
   84582:	f7fe be02 	b.w	8318a <_vfprintf_r+0x13e>
   84586:	9c0a      	ldr	r4, [sp, #40]	; 0x28
   84588:	f014 0301 	ands.w	r3, r4, #1
   8458c:	f47f af60 	bne.w	84450 <_vfprintf_r+0x1404>
   84590:	9d11      	ldr	r5, [sp, #68]	; 0x44
   84592:	9318      	str	r3, [sp, #96]	; 0x60
   84594:	ea25 73e5 	bic.w	r3, r5, r5, asr #31
   84598:	e5cf      	b.n	8413a <_vfprintf_r+0x10ee>
   8459a:	9b25      	ldr	r3, [sp, #148]	; 0x94
   8459c:	e73a      	b.n	84414 <_vfprintf_r+0x13c8>
   8459e:	f10d 039e 	add.w	r3, sp, #158	; 0x9e
   845a2:	e74b      	b.n	8443c <_vfprintf_r+0x13f0>

000845a4 <vfprintf>:
   845a4:	b430      	push	{r4, r5}
   845a6:	f240 0404 	movw	r4, #4
   845aa:	f2c2 0407 	movt	r4, #8199	; 0x2007
   845ae:	460d      	mov	r5, r1
   845b0:	4613      	mov	r3, r2
   845b2:	4601      	mov	r1, r0
   845b4:	462a      	mov	r2, r5
   845b6:	6820      	ldr	r0, [r4, #0]
   845b8:	bc30      	pop	{r4, r5}
   845ba:	f7fe bd47 	b.w	8304c <_vfprintf_r>
   845be:	bf00      	nop

000845c0 <__sbprintf>:
   845c0:	e92d 4ff0 	stmdb	sp!, {r4, r5, r6, r7, r8, r9, sl, fp, lr}
   845c4:	4688      	mov	r8, r1
   845c6:	f2ad 4d6c 	subw	sp, sp, #1132	; 0x46c
   845ca:	f44f 6580 	mov.w	r5, #1024	; 0x400
   845ce:	f8d8 7064 	ldr.w	r7, [r8, #100]	; 0x64
   845d2:	4669      	mov	r1, sp
   845d4:	f8b8 a00e 	ldrh.w	sl, [r8, #14]
   845d8:	ac1a      	add	r4, sp, #104	; 0x68
   845da:	f8b8 b00c 	ldrh.w	fp, [r8, #12]
   845de:	2600      	movs	r6, #0
   845e0:	9719      	str	r7, [sp, #100]	; 0x64
   845e2:	4681      	mov	r9, r0
   845e4:	f8d8 7020 	ldr.w	r7, [r8, #32]
   845e8:	f02b 0b02 	bic.w	fp, fp, #2
   845ec:	9400      	str	r4, [sp, #0]
   845ee:	9404      	str	r4, [sp, #16]
   845f0:	9708      	str	r7, [sp, #32]
   845f2:	f8d8 7028 	ldr.w	r7, [r8, #40]	; 0x28
   845f6:	f8ad b00c 	strh.w	fp, [sp, #12]
   845fa:	f8ad a00e 	strh.w	sl, [sp, #14]
   845fe:	970a      	str	r7, [sp, #40]	; 0x28
   84600:	9606      	str	r6, [sp, #24]
   84602:	9502      	str	r5, [sp, #8]
   84604:	9505      	str	r5, [sp, #20]
   84606:	f7fe fd21 	bl	8304c <_vfprintf_r>
   8460a:	1e04      	subs	r4, r0, #0
   8460c:	db07      	blt.n	8461e <__sbprintf+0x5e>
   8460e:	4648      	mov	r0, r9
   84610:	4669      	mov	r1, sp
   84612:	f001 f9a5 	bl	85960 <_fflush_r>
   84616:	42b0      	cmp	r0, r6
   84618:	bf18      	it	ne
   8461a:	f04f 34ff 	movne.w	r4, #4294967295	; 0xffffffff
   8461e:	f8bd 300c 	ldrh.w	r3, [sp, #12]
   84622:	4620      	mov	r0, r4
   84624:	065b      	lsls	r3, r3, #25
   84626:	bf42      	ittt	mi
   84628:	f8b8 300c 	ldrhmi.w	r3, [r8, #12]
   8462c:	f043 0340 	orrmi.w	r3, r3, #64	; 0x40
   84630:	f8a8 300c 	strhmi.w	r3, [r8, #12]
   84634:	f20d 4d6c 	addw	sp, sp, #1132	; 0x46c
   84638:	e8bd 8ff0 	ldmia.w	sp!, {r4, r5, r6, r7, r8, r9, sl, fp, pc}

0008463c <__swsetup_r>:
   8463c:	f240 0304 	movw	r3, #4
   84640:	f2c2 0307 	movt	r3, #8199	; 0x2007
   84644:	b570      	push	{r4, r5, r6, lr}
   84646:	4606      	mov	r6, r0
   84648:	681d      	ldr	r5, [r3, #0]
   8464a:	460c      	mov	r4, r1
   8464c:	b115      	cbz	r5, 84654 <__swsetup_r+0x18>
   8464e:	69ab      	ldr	r3, [r5, #24]
   84650:	2b00      	cmp	r3, #0
   84652:	d04d      	beq.n	846f0 <__swsetup_r+0xb4>
   84654:	f24a 13a0 	movw	r3, #41376	; 0xa1a0
   84658:	f2c0 0308 	movt	r3, #8
   8465c:	429c      	cmp	r4, r3
   8465e:	bf08      	it	eq
   84660:	686c      	ldreq	r4, [r5, #4]
   84662:	d00e      	beq.n	84682 <__swsetup_r+0x46>
   84664:	f24a 1380 	movw	r3, #41344	; 0xa180
   84668:	f2c0 0308 	movt	r3, #8
   8466c:	429c      	cmp	r4, r3
   8466e:	bf08      	it	eq
   84670:	68ac      	ldreq	r4, [r5, #8]
   84672:	d006      	beq.n	84682 <__swsetup_r+0x46>
   84674:	f24a 1360 	movw	r3, #41312	; 0xa160
   84678:	f2c0 0308 	movt	r3, #8
   8467c:	429c      	cmp	r4, r3
   8467e:	bf08      	it	eq
   84680:	68ec      	ldreq	r4, [r5, #12]
   84682:	89a2      	ldrh	r2, [r4, #12]
   84684:	b293      	uxth	r3, r2
   84686:	0718      	lsls	r0, r3, #28
   84688:	d50c      	bpl.n	846a4 <__swsetup_r+0x68>
   8468a:	6921      	ldr	r1, [r4, #16]
   8468c:	b1a9      	cbz	r1, 846ba <__swsetup_r+0x7e>
   8468e:	f013 0201 	ands.w	r2, r3, #1
   84692:	d01e      	beq.n	846d2 <__swsetup_r+0x96>
   84694:	6963      	ldr	r3, [r4, #20]
   84696:	2200      	movs	r2, #0
   84698:	60a2      	str	r2, [r4, #8]
   8469a:	425b      	negs	r3, r3
   8469c:	61a3      	str	r3, [r4, #24]
   8469e:	b1f1      	cbz	r1, 846de <__swsetup_r+0xa2>
   846a0:	2000      	movs	r0, #0
   846a2:	bd70      	pop	{r4, r5, r6, pc}
   846a4:	06d9      	lsls	r1, r3, #27
   846a6:	d53c      	bpl.n	84722 <__swsetup_r+0xe6>
   846a8:	075d      	lsls	r5, r3, #29
   846aa:	d425      	bmi.n	846f8 <__swsetup_r+0xbc>
   846ac:	6921      	ldr	r1, [r4, #16]
   846ae:	f042 0308 	orr.w	r3, r2, #8
   846b2:	81a3      	strh	r3, [r4, #12]
   846b4:	b29b      	uxth	r3, r3
   846b6:	2900      	cmp	r1, #0
   846b8:	d1e9      	bne.n	8468e <__swsetup_r+0x52>
   846ba:	f403 7220 	and.w	r2, r3, #640	; 0x280
   846be:	f5b2 7f00 	cmp.w	r2, #512	; 0x200
   846c2:	d0e4      	beq.n	8468e <__swsetup_r+0x52>
   846c4:	4621      	mov	r1, r4
   846c6:	4630      	mov	r0, r6
   846c8:	f001 fc68 	bl	85f9c <__smakebuf_r>
   846cc:	89a3      	ldrh	r3, [r4, #12]
   846ce:	6921      	ldr	r1, [r4, #16]
   846d0:	e7dd      	b.n	8468e <__swsetup_r+0x52>
   846d2:	0798      	lsls	r0, r3, #30
   846d4:	bf58      	it	pl
   846d6:	6962      	ldrpl	r2, [r4, #20]
   846d8:	60a2      	str	r2, [r4, #8]
   846da:	2900      	cmp	r1, #0
   846dc:	d1e0      	bne.n	846a0 <__swsetup_r+0x64>
   846de:	89a3      	ldrh	r3, [r4, #12]
   846e0:	061a      	lsls	r2, r3, #24
   846e2:	d5dd      	bpl.n	846a0 <__swsetup_r+0x64>
   846e4:	f043 0340 	orr.w	r3, r3, #64	; 0x40
   846e8:	f04f 30ff 	mov.w	r0, #4294967295	; 0xffffffff
   846ec:	81a3      	strh	r3, [r4, #12]
   846ee:	bd70      	pop	{r4, r5, r6, pc}
   846f0:	4628      	mov	r0, r5
   846f2:	f001 f9a7 	bl	85a44 <__sinit>
   846f6:	e7ad      	b.n	84654 <__swsetup_r+0x18>
   846f8:	6b61      	ldr	r1, [r4, #52]	; 0x34
   846fa:	b149      	cbz	r1, 84710 <__swsetup_r+0xd4>
   846fc:	f104 0344 	add.w	r3, r4, #68	; 0x44
   84700:	4299      	cmp	r1, r3
   84702:	d003      	beq.n	8470c <__swsetup_r+0xd0>
   84704:	4630      	mov	r0, r6
   84706:	f001 fae5 	bl	85cd4 <_free_r>
   8470a:	89a2      	ldrh	r2, [r4, #12]
   8470c:	2300      	movs	r3, #0
   8470e:	6363      	str	r3, [r4, #52]	; 0x34
   84710:	f022 0224 	bic.w	r2, r2, #36	; 0x24
   84714:	6921      	ldr	r1, [r4, #16]
   84716:	2300      	movs	r3, #0
   84718:	6063      	str	r3, [r4, #4]
   8471a:	0412      	lsls	r2, r2, #16
   8471c:	6021      	str	r1, [r4, #0]
   8471e:	0c12      	lsrs	r2, r2, #16
   84720:	e7c5      	b.n	846ae <__swsetup_r+0x72>
   84722:	f042 0240 	orr.w	r2, r2, #64	; 0x40
   84726:	2309      	movs	r3, #9
   84728:	f04f 30ff 	mov.w	r0, #4294967295	; 0xffffffff
   8472c:	6033      	str	r3, [r6, #0]
   8472e:	81a2      	strh	r2, [r4, #12]
   84730:	bd70      	pop	{r4, r5, r6, pc}
   84732:	bf00      	nop
   84734:	0000      	movs	r0, r0
	...

00084738 <quorem>:
   84738:	e92d 4ff0 	stmdb	sp!, {r4, r5, r6, r7, r8, r9, sl, fp, lr}
   8473c:	468c      	mov	ip, r1
   8473e:	6903      	ldr	r3, [r0, #16]
   84740:	4683      	mov	fp, r0
   84742:	690d      	ldr	r5, [r1, #16]
   84744:	b085      	sub	sp, #20
   84746:	429d      	cmp	r5, r3
   84748:	bfc8      	it	gt
   8474a:	2000      	movgt	r0, #0
   8474c:	f300 8096 	bgt.w	8487c <quorem+0x144>
   84750:	3d01      	subs	r5, #1
   84752:	f101 0414 	add.w	r4, r1, #20
   84756:	f10b 0a14 	add.w	sl, fp, #20
   8475a:	f854 1025 	ldr.w	r1, [r4, r5, lsl #2]
   8475e:	00aa      	lsls	r2, r5, #2
   84760:	f85a 0025 	ldr.w	r0, [sl, r5, lsl #2]
   84764:	4691      	mov	r9, r2
   84766:	3101      	adds	r1, #1
   84768:	9202      	str	r2, [sp, #8]
   8476a:	f8cd c004 	str.w	ip, [sp, #4]
   8476e:	4452      	add	r2, sl
   84770:	9203      	str	r2, [sp, #12]
   84772:	f004 fc23 	bl	88fbc <__aeabi_uidiv>
   84776:	44a1      	add	r9, r4
   84778:	f8dd c004 	ldr.w	ip, [sp, #4]
   8477c:	4680      	mov	r8, r0
   8477e:	2800      	cmp	r0, #0
   84780:	d041      	beq.n	84806 <quorem+0xce>
   84782:	2100      	movs	r1, #0
   84784:	4622      	mov	r2, r4
   84786:	4608      	mov	r0, r1
   84788:	4653      	mov	r3, sl
   8478a:	460f      	mov	r7, r1
   8478c:	f852 1b04 	ldr.w	r1, [r2], #4
   84790:	681e      	ldr	r6, [r3, #0]
   84792:	4591      	cmp	r9, r2
   84794:	fa1f fe81 	uxth.w	lr, r1
   84798:	ea4f 4111 	mov.w	r1, r1, lsr #16
   8479c:	fb0e 7708 	mla	r7, lr, r8, r7
   847a0:	fa1f fe86 	uxth.w	lr, r6
   847a4:	fb01 f108 	mul.w	r1, r1, r8
   847a8:	eb01 4117 	add.w	r1, r1, r7, lsr #16
   847ac:	b2bf      	uxth	r7, r7
   847ae:	ebc7 0000 	rsb	r0, r7, r0
   847b2:	4486      	add	lr, r0
   847b4:	b288      	uxth	r0, r1
   847b6:	ebc0 4016 	rsb	r0, r0, r6, lsr #16
   847ba:	ea4f 4711 	mov.w	r7, r1, lsr #16
   847be:	eb00 402e 	add.w	r0, r0, lr, asr #16
   847c2:	fa1f fe8e 	uxth.w	lr, lr
   847c6:	ea4e 4100 	orr.w	r1, lr, r0, lsl #16
   847ca:	ea4f 4020 	mov.w	r0, r0, asr #16
   847ce:	f843 1b04 	str.w	r1, [r3], #4
   847d2:	d2db      	bcs.n	8478c <quorem+0x54>
   847d4:	9a02      	ldr	r2, [sp, #8]
   847d6:	f85a 3002 	ldr.w	r3, [sl, r2]
   847da:	b9a3      	cbnz	r3, 84806 <quorem+0xce>
   847dc:	9a03      	ldr	r2, [sp, #12]
   847de:	1f13      	subs	r3, r2, #4
   847e0:	459a      	cmp	sl, r3
   847e2:	d20e      	bcs.n	84802 <quorem+0xca>
   847e4:	f852 3c04 	ldr.w	r3, [r2, #-4]
   847e8:	b95b      	cbnz	r3, 84802 <quorem+0xca>
   847ea:	f1a2 0308 	sub.w	r3, r2, #8
   847ee:	e001      	b.n	847f4 <quorem+0xbc>
   847f0:	6812      	ldr	r2, [r2, #0]
   847f2:	b932      	cbnz	r2, 84802 <quorem+0xca>
   847f4:	459a      	cmp	sl, r3
   847f6:	461a      	mov	r2, r3
   847f8:	f105 35ff 	add.w	r5, r5, #4294967295	; 0xffffffff
   847fc:	f1a3 0304 	sub.w	r3, r3, #4
   84800:	d3f6      	bcc.n	847f0 <quorem+0xb8>
   84802:	f8cb 5010 	str.w	r5, [fp, #16]
   84806:	4661      	mov	r1, ip
   84808:	4658      	mov	r0, fp
   8480a:	f002 fa33 	bl	86c74 <__mcmp>
   8480e:	2800      	cmp	r0, #0
   84810:	db33      	blt.n	8487a <quorem+0x142>
   84812:	f108 0801 	add.w	r8, r8, #1
   84816:	4653      	mov	r3, sl
   84818:	2200      	movs	r2, #0
   8481a:	f854 6b04 	ldr.w	r6, [r4], #4
   8481e:	6818      	ldr	r0, [r3, #0]
   84820:	45a1      	cmp	r9, r4
   84822:	b2b1      	uxth	r1, r6
   84824:	ea4f 4616 	mov.w	r6, r6, lsr #16
   84828:	ebc1 0202 	rsb	r2, r1, r2
   8482c:	b287      	uxth	r7, r0
   8482e:	eb02 0107 	add.w	r1, r2, r7
   84832:	ebc6 4210 	rsb	r2, r6, r0, lsr #16
   84836:	eb02 4221 	add.w	r2, r2, r1, asr #16
   8483a:	b289      	uxth	r1, r1
   8483c:	ea41 4102 	orr.w	r1, r1, r2, lsl #16
   84840:	ea4f 4222 	mov.w	r2, r2, asr #16
   84844:	f843 1b04 	str.w	r1, [r3], #4
   84848:	d2e7      	bcs.n	8481a <quorem+0xe2>
   8484a:	f85a 2025 	ldr.w	r2, [sl, r5, lsl #2]
   8484e:	eb0a 0385 	add.w	r3, sl, r5, lsl #2
   84852:	b992      	cbnz	r2, 8487a <quorem+0x142>
   84854:	1f1a      	subs	r2, r3, #4
   84856:	4592      	cmp	sl, r2
   84858:	d20d      	bcs.n	84876 <quorem+0x13e>
   8485a:	f853 2c04 	ldr.w	r2, [r3, #-4]
   8485e:	b952      	cbnz	r2, 84876 <quorem+0x13e>
   84860:	3b08      	subs	r3, #8
   84862:	e001      	b.n	84868 <quorem+0x130>
   84864:	6812      	ldr	r2, [r2, #0]
   84866:	b932      	cbnz	r2, 84876 <quorem+0x13e>
   84868:	459a      	cmp	sl, r3
   8486a:	461a      	mov	r2, r3
   8486c:	f105 35ff 	add.w	r5, r5, #4294967295	; 0xffffffff
   84870:	f1a3 0304 	sub.w	r3, r3, #4
   84874:	d3f6      	bcc.n	84864 <quorem+0x12c>
   84876:	f8cb 5010 	str.w	r5, [fp, #16]
   8487a:	4640      	mov	r0, r8
   8487c:	b005      	add	sp, #20
   8487e:	e8bd 8ff0 	ldmia.w	sp!, {r4, r5, r6, r7, r8, r9, sl, fp, pc}
   84882:	bf00      	nop

00084884 <_dtoa_r>:
   84884:	e92d 4ff0 	stmdb	sp!, {r4, r5, r6, r7, r8, r9, sl, fp, lr}
   84888:	b09b      	sub	sp, #108	; 0x6c
   8488a:	6a46      	ldr	r6, [r0, #36]	; 0x24
   8488c:	4604      	mov	r4, r0
   8488e:	4692      	mov	sl, r2
   84890:	469b      	mov	fp, r3
   84892:	9d27      	ldr	r5, [sp, #156]	; 0x9c
   84894:	2e00      	cmp	r6, #0
   84896:	f000 82bb 	beq.w	84e10 <_dtoa_r+0x58c>
   8489a:	6833      	ldr	r3, [r6, #0]
   8489c:	b153      	cbz	r3, 848b4 <_dtoa_r+0x30>
   8489e:	6872      	ldr	r2, [r6, #4]
   848a0:	2601      	movs	r6, #1
   848a2:	4619      	mov	r1, r3
   848a4:	4096      	lsls	r6, r2
   848a6:	609e      	str	r6, [r3, #8]
   848a8:	605a      	str	r2, [r3, #4]
   848aa:	f001 ff89 	bl	867c0 <_Bfree>
   848ae:	6a63      	ldr	r3, [r4, #36]	; 0x24
   848b0:	2200      	movs	r2, #0
   848b2:	601a      	str	r2, [r3, #0]
   848b4:	f1bb 0f00 	cmp.w	fp, #0
   848b8:	bfb4      	ite	lt
   848ba:	2301      	movlt	r3, #1
   848bc:	2300      	movge	r3, #0
   848be:	602b      	str	r3, [r5, #0]
   848c0:	f04f 0300 	mov.w	r3, #0
   848c4:	bfb4      	ite	lt
   848c6:	f02b 4900 	biclt.w	r9, fp, #2147483648	; 0x80000000
   848ca:	46d9      	movge	r9, fp
   848cc:	461a      	mov	r2, r3
   848ce:	f6c7 73f0 	movt	r3, #32752	; 0x7ff0
   848d2:	f6c7 72f0 	movt	r2, #32752	; 0x7ff0
   848d6:	ea09 0303 	and.w	r3, r9, r3
   848da:	bfb8      	it	lt
   848dc:	46cb      	movlt	fp, r9
   848de:	4293      	cmp	r3, r2
   848e0:	d014      	beq.n	8490c <_dtoa_r+0x88>
   848e2:	2200      	movs	r2, #0
   848e4:	2300      	movs	r3, #0
   848e6:	4650      	mov	r0, sl
   848e8:	4659      	mov	r1, fp
   848ea:	f004 ff9b 	bl	89824 <__aeabi_dcmpeq>
   848ee:	4680      	mov	r8, r0
   848f0:	b328      	cbz	r0, 8493e <_dtoa_r+0xba>
   848f2:	9e26      	ldr	r6, [sp, #152]	; 0x98
   848f4:	2301      	movs	r3, #1
   848f6:	6033      	str	r3, [r6, #0]
   848f8:	9e28      	ldr	r6, [sp, #160]	; 0xa0
   848fa:	2e00      	cmp	r6, #0
   848fc:	f000 80dc 	beq.w	84ab8 <_dtoa_r+0x234>
   84900:	4baf      	ldr	r3, [pc, #700]	; (84bc0 <_dtoa_r+0x33c>)
   84902:	1e58      	subs	r0, r3, #1
   84904:	6033      	str	r3, [r6, #0]
   84906:	b01b      	add	sp, #108	; 0x6c
   84908:	e8bd 8ff0 	ldmia.w	sp!, {r4, r5, r6, r7, r8, r9, sl, fp, pc}
   8490c:	9e26      	ldr	r6, [sp, #152]	; 0x98
   8490e:	f24a 105c 	movw	r0, #41308	; 0xa15c
   84912:	f242 730f 	movw	r3, #9999	; 0x270f
   84916:	f2c0 0008 	movt	r0, #8
   8491a:	6033      	str	r3, [r6, #0]
   8491c:	f1ba 0f00 	cmp.w	sl, #0
   84920:	f000 80aa 	beq.w	84a78 <_dtoa_r+0x1f4>
   84924:	9e28      	ldr	r6, [sp, #160]	; 0xa0
   84926:	2e00      	cmp	r6, #0
   84928:	d0ed      	beq.n	84906 <_dtoa_r+0x82>
   8492a:	78c3      	ldrb	r3, [r0, #3]
   8492c:	2b00      	cmp	r3, #0
   8492e:	f040 80b2 	bne.w	84a96 <_dtoa_r+0x212>
   84932:	1cc3      	adds	r3, r0, #3
   84934:	9e28      	ldr	r6, [sp, #160]	; 0xa0
   84936:	6033      	str	r3, [r6, #0]
   84938:	b01b      	add	sp, #108	; 0x6c
   8493a:	e8bd 8ff0 	ldmia.w	sp!, {r4, r5, r6, r7, r8, r9, sl, fp, pc}
   8493e:	aa19      	add	r2, sp, #100	; 0x64
   84940:	ab18      	add	r3, sp, #96	; 0x60
   84942:	9200      	str	r2, [sp, #0]
   84944:	4620      	mov	r0, r4
   84946:	9301      	str	r3, [sp, #4]
   84948:	4652      	mov	r2, sl
   8494a:	465b      	mov	r3, fp
   8494c:	f002 faa2 	bl	86e94 <__d2b>
   84950:	ea5f 5519 	movs.w	r5, r9, lsr #20
   84954:	900b      	str	r0, [sp, #44]	; 0x2c
   84956:	f040 80a1 	bne.w	84a9c <_dtoa_r+0x218>
   8495a:	9f18      	ldr	r7, [sp, #96]	; 0x60
   8495c:	f46f 6382 	mvn.w	r3, #1040	; 0x410
   84960:	9d19      	ldr	r5, [sp, #100]	; 0x64
   84962:	443d      	add	r5, r7
   84964:	429d      	cmp	r5, r3
   84966:	f2c0 8278 	blt.w	84e5a <_dtoa_r+0x5d6>
   8496a:	f64f 430e 	movw	r3, #64526	; 0xfc0e
   8496e:	f205 4212 	addw	r2, r5, #1042	; 0x412
   84972:	f6cf 73ff 	movt	r3, #65535	; 0xffff
   84976:	fa2a f202 	lsr.w	r2, sl, r2
   8497a:	1b5b      	subs	r3, r3, r5
   8497c:	fa09 f003 	lsl.w	r0, r9, r3
   84980:	4310      	orrs	r0, r2
   84982:	f004 fc71 	bl	89268 <__aeabi_ui2d>
   84986:	3d01      	subs	r5, #1
   84988:	46b8      	mov	r8, r7
   8498a:	2601      	movs	r6, #1
   8498c:	9615      	str	r6, [sp, #84]	; 0x54
   8498e:	f1a1 71f8 	sub.w	r1, r1, #32505856	; 0x1f00000
   84992:	2300      	movs	r3, #0
   84994:	2200      	movs	r2, #0
   84996:	f6c3 73f8 	movt	r3, #16376	; 0x3ff8
   8499a:	f004 fb27 	bl	88fec <__aeabi_dsub>
   8499e:	a382      	add	r3, pc, #520	; (adr r3, 84ba8 <_dtoa_r+0x324>)
   849a0:	e9d3 2300 	ldrd	r2, r3, [r3]
   849a4:	f004 fcd6 	bl	89354 <__aeabi_dmul>
   849a8:	a381      	add	r3, pc, #516	; (adr r3, 84bb0 <_dtoa_r+0x32c>)
   849aa:	e9d3 2300 	ldrd	r2, r3, [r3]
   849ae:	f004 fb1f 	bl	88ff0 <__adddf3>
   849b2:	4606      	mov	r6, r0
   849b4:	4628      	mov	r0, r5
   849b6:	460f      	mov	r7, r1
   849b8:	f004 fc66 	bl	89288 <__aeabi_i2d>
   849bc:	a37e      	add	r3, pc, #504	; (adr r3, 84bb8 <_dtoa_r+0x334>)
   849be:	e9d3 2300 	ldrd	r2, r3, [r3]
   849c2:	f004 fcc7 	bl	89354 <__aeabi_dmul>
   849c6:	4602      	mov	r2, r0
   849c8:	460b      	mov	r3, r1
   849ca:	4630      	mov	r0, r6
   849cc:	4639      	mov	r1, r7
   849ce:	f004 fb0f 	bl	88ff0 <__adddf3>
   849d2:	4606      	mov	r6, r0
   849d4:	460f      	mov	r7, r1
   849d6:	f004 ff57 	bl	89888 <__aeabi_d2iz>
   849da:	4639      	mov	r1, r7
   849dc:	2200      	movs	r2, #0
   849de:	2300      	movs	r3, #0
   849e0:	9004      	str	r0, [sp, #16]
   849e2:	4630      	mov	r0, r6
   849e4:	f004 ff28 	bl	89838 <__aeabi_dcmplt>
   849e8:	2800      	cmp	r0, #0
   849ea:	f040 8226 	bne.w	84e3a <_dtoa_r+0x5b6>
   849ee:	9e04      	ldr	r6, [sp, #16]
   849f0:	2e16      	cmp	r6, #22
   849f2:	bf84      	itt	hi
   849f4:	2601      	movhi	r6, #1
   849f6:	960f      	strhi	r6, [sp, #60]	; 0x3c
   849f8:	d812      	bhi.n	84a20 <_dtoa_r+0x19c>
   849fa:	f24a 11e0 	movw	r1, #41440	; 0xa1e0
   849fe:	4652      	mov	r2, sl
   84a00:	f2c0 0108 	movt	r1, #8
   84a04:	465b      	mov	r3, fp
   84a06:	eb01 01c6 	add.w	r1, r1, r6, lsl #3
   84a0a:	e9d1 0100 	ldrd	r0, r1, [r1]
   84a0e:	f004 ff31 	bl	89874 <__aeabi_dcmpgt>
   84a12:	2800      	cmp	r0, #0
   84a14:	f000 821f 	beq.w	84e56 <_dtoa_r+0x5d2>
   84a18:	3e01      	subs	r6, #1
   84a1a:	9604      	str	r6, [sp, #16]
   84a1c:	2600      	movs	r6, #0
   84a1e:	960f      	str	r6, [sp, #60]	; 0x3c
   84a20:	ebc5 0508 	rsb	r5, r5, r8
   84a24:	3d01      	subs	r5, #1
   84a26:	9506      	str	r5, [sp, #24]
   84a28:	bf49      	itett	mi
   84a2a:	426e      	negmi	r6, r5
   84a2c:	2600      	movpl	r6, #0
   84a2e:	960a      	strmi	r6, [sp, #40]	; 0x28
   84a30:	2600      	movmi	r6, #0
   84a32:	bf54      	ite	pl
   84a34:	960a      	strpl	r6, [sp, #40]	; 0x28
   84a36:	9606      	strmi	r6, [sp, #24]
   84a38:	9e04      	ldr	r6, [sp, #16]
   84a3a:	2e00      	cmp	r6, #0
   84a3c:	f2c0 81f1 	blt.w	84e22 <_dtoa_r+0x59e>
   84a40:	f8dd e018 	ldr.w	lr, [sp, #24]
   84a44:	960e      	str	r6, [sp, #56]	; 0x38
   84a46:	44b6      	add	lr, r6
   84a48:	2600      	movs	r6, #0
   84a4a:	f8cd e018 	str.w	lr, [sp, #24]
   84a4e:	960c      	str	r6, [sp, #48]	; 0x30
   84a50:	9e24      	ldr	r6, [sp, #144]	; 0x90
   84a52:	2e09      	cmp	r6, #9
   84a54:	d835      	bhi.n	84ac2 <_dtoa_r+0x23e>
   84a56:	2e05      	cmp	r6, #5
   84a58:	bfc4      	itt	gt
   84a5a:	3e04      	subgt	r6, #4
   84a5c:	9624      	strgt	r6, [sp, #144]	; 0x90
   84a5e:	9e24      	ldr	r6, [sp, #144]	; 0x90
   84a60:	bfcc      	ite	gt
   84a62:	2500      	movgt	r5, #0
   84a64:	2501      	movle	r5, #1
   84a66:	1eb3      	subs	r3, r6, #2
   84a68:	2b03      	cmp	r3, #3
   84a6a:	d82c      	bhi.n	84ac6 <_dtoa_r+0x242>
   84a6c:	e8df f013 	tbh	[pc, r3, lsl #1]
   84a70:	02290361 	.word	0x02290361
   84a74:	058d0370 	.word	0x058d0370
   84a78:	f24a 1250 	movw	r2, #41296	; 0xa150
   84a7c:	f24a 135c 	movw	r3, #41308	; 0xa15c
   84a80:	f3c9 0013 	ubfx	r0, r9, #0, #20
   84a84:	f2c0 0208 	movt	r2, #8
   84a88:	f2c0 0308 	movt	r3, #8
   84a8c:	2800      	cmp	r0, #0
   84a8e:	bf0c      	ite	eq
   84a90:	4610      	moveq	r0, r2
   84a92:	4618      	movne	r0, r3
   84a94:	e746      	b.n	84924 <_dtoa_r+0xa0>
   84a96:	f100 0308 	add.w	r3, r0, #8
   84a9a:	e74b      	b.n	84934 <_dtoa_r+0xb0>
   84a9c:	f3cb 0313 	ubfx	r3, fp, #0, #20
   84aa0:	f8cd 8054 	str.w	r8, [sp, #84]	; 0x54
   84aa4:	f043 537f 	orr.w	r3, r3, #1069547520	; 0x3fc00000
   84aa8:	4650      	mov	r0, sl
   84aaa:	f2a5 35ff 	subw	r5, r5, #1023	; 0x3ff
   84aae:	f8dd 8060 	ldr.w	r8, [sp, #96]	; 0x60
   84ab2:	f443 1140 	orr.w	r1, r3, #3145728	; 0x300000
   84ab6:	e76c      	b.n	84992 <_dtoa_r+0x10e>
   84ab8:	f24a 104c 	movw	r0, #41292	; 0xa14c
   84abc:	f2c0 0008 	movt	r0, #8
   84ac0:	e721      	b.n	84906 <_dtoa_r+0x82>
   84ac2:	2600      	movs	r6, #0
   84ac4:	9624      	str	r6, [sp, #144]	; 0x90
   84ac6:	6a65      	ldr	r5, [r4, #36]	; 0x24
   84ac8:	2300      	movs	r3, #0
   84aca:	4619      	mov	r1, r3
   84acc:	4620      	mov	r0, r4
   84ace:	f04f 36ff 	mov.w	r6, #4294967295	; 0xffffffff
   84ad2:	9325      	str	r3, [sp, #148]	; 0x94
   84ad4:	606b      	str	r3, [r5, #4]
   84ad6:	9609      	str	r6, [sp, #36]	; 0x24
   84ad8:	9614      	str	r6, [sp, #80]	; 0x50
   84ada:	f001 fe3b 	bl	86754 <_Balloc>
   84ade:	6a63      	ldr	r3, [r4, #36]	; 0x24
   84ae0:	2601      	movs	r6, #1
   84ae2:	960d      	str	r6, [sp, #52]	; 0x34
   84ae4:	6028      	str	r0, [r5, #0]
   84ae6:	681b      	ldr	r3, [r3, #0]
   84ae8:	9308      	str	r3, [sp, #32]
   84aea:	9b19      	ldr	r3, [sp, #100]	; 0x64
   84aec:	2b00      	cmp	r3, #0
   84aee:	f2c0 80c7 	blt.w	84c80 <_dtoa_r+0x3fc>
   84af2:	9e04      	ldr	r6, [sp, #16]
   84af4:	2e0e      	cmp	r6, #14
   84af6:	f300 80c3 	bgt.w	84c80 <_dtoa_r+0x3fc>
   84afa:	f8dd e094 	ldr.w	lr, [sp, #148]	; 0x94
   84afe:	f24a 13e0 	movw	r3, #41440	; 0xa1e0
   84b02:	9e09      	ldr	r6, [sp, #36]	; 0x24
   84b04:	f2c0 0308 	movt	r3, #8
   84b08:	ea4f 72de 	mov.w	r2, lr, lsr #31
   84b0c:	2e00      	cmp	r6, #0
   84b0e:	bfcc      	ite	gt
   84b10:	2200      	movgt	r2, #0
   84b12:	f002 0201 	andle.w	r2, r2, #1
   84b16:	9e04      	ldr	r6, [sp, #16]
   84b18:	eb03 03c6 	add.w	r3, r3, r6, lsl #3
   84b1c:	e9d3 0100 	ldrd	r0, r1, [r3]
   84b20:	e9cd 0106 	strd	r0, r1, [sp, #24]
   84b24:	2a00      	cmp	r2, #0
   84b26:	f040 846e 	bne.w	85406 <_dtoa_r+0xb82>
   84b2a:	4602      	mov	r2, r0
   84b2c:	460b      	mov	r3, r1
   84b2e:	4650      	mov	r0, sl
   84b30:	4659      	mov	r1, fp
   84b32:	f004 fd39 	bl	895a8 <__aeabi_ddiv>
   84b36:	9e08      	ldr	r6, [sp, #32]
   84b38:	f004 fea6 	bl	89888 <__aeabi_d2iz>
   84b3c:	1c75      	adds	r5, r6, #1
   84b3e:	4680      	mov	r8, r0
   84b40:	f004 fba2 	bl	89288 <__aeabi_i2d>
   84b44:	e9dd 2306 	ldrd	r2, r3, [sp, #24]
   84b48:	f004 fc04 	bl	89354 <__aeabi_dmul>
   84b4c:	4602      	mov	r2, r0
   84b4e:	460b      	mov	r3, r1
   84b50:	4650      	mov	r0, sl
   84b52:	4659      	mov	r1, fp
   84b54:	f004 fa4a 	bl	88fec <__aeabi_dsub>
   84b58:	9a09      	ldr	r2, [sp, #36]	; 0x24
   84b5a:	f8dd e020 	ldr.w	lr, [sp, #32]
   84b5e:	f108 0330 	add.w	r3, r8, #48	; 0x30
   84b62:	2a01      	cmp	r2, #1
   84b64:	f88e 3000 	strb.w	r3, [lr]
   84b68:	4606      	mov	r6, r0
   84b6a:	460f      	mov	r7, r1
   84b6c:	d05b      	beq.n	84c26 <_dtoa_r+0x3a2>
   84b6e:	2300      	movs	r3, #0
   84b70:	2200      	movs	r2, #0
   84b72:	f2c4 0324 	movt	r3, #16420	; 0x4024
   84b76:	f004 fbed 	bl	89354 <__aeabi_dmul>
   84b7a:	2200      	movs	r2, #0
   84b7c:	2300      	movs	r3, #0
   84b7e:	4606      	mov	r6, r0
   84b80:	460f      	mov	r7, r1
   84b82:	f004 fe4f 	bl	89824 <__aeabi_dcmpeq>
   84b86:	2800      	cmp	r0, #0
   84b88:	f040 8519 	bne.w	855be <_dtoa_r+0xd3a>
   84b8c:	f8dd a020 	ldr.w	sl, [sp, #32]
   84b90:	9809      	ldr	r0, [sp, #36]	; 0x24
   84b92:	9908      	ldr	r1, [sp, #32]
   84b94:	4482      	add	sl, r0
   84b96:	f8cd a00c 	str.w	sl, [sp, #12]
   84b9a:	f101 0902 	add.w	r9, r1, #2
   84b9e:	e9dd ab06 	ldrd	sl, fp, [sp, #24]
   84ba2:	e01a      	b.n	84bda <_dtoa_r+0x356>
   84ba4:	f3af 8000 	nop.w
   84ba8:	636f4361 	.word	0x636f4361
   84bac:	3fd287a7 	.word	0x3fd287a7
   84bb0:	8b60c8b3 	.word	0x8b60c8b3
   84bb4:	3fc68a28 	.word	0x3fc68a28
   84bb8:	509f79fb 	.word	0x509f79fb
   84bbc:	3fd34413 	.word	0x3fd34413
   84bc0:	0008a14d 	.word	0x0008a14d
   84bc4:	f004 fbc6 	bl	89354 <__aeabi_dmul>
   84bc8:	2200      	movs	r2, #0
   84bca:	2300      	movs	r3, #0
   84bcc:	4606      	mov	r6, r0
   84bce:	460f      	mov	r7, r1
   84bd0:	f004 fe28 	bl	89824 <__aeabi_dcmpeq>
   84bd4:	2800      	cmp	r0, #0
   84bd6:	f040 84f2 	bne.w	855be <_dtoa_r+0xd3a>
   84bda:	4652      	mov	r2, sl
   84bdc:	465b      	mov	r3, fp
   84bde:	4630      	mov	r0, r6
   84be0:	4639      	mov	r1, r7
   84be2:	f004 fce1 	bl	895a8 <__aeabi_ddiv>
   84be6:	464d      	mov	r5, r9
   84be8:	f004 fe4e 	bl	89888 <__aeabi_d2iz>
   84bec:	4680      	mov	r8, r0
   84bee:	f004 fb4b 	bl	89288 <__aeabi_i2d>
   84bf2:	4652      	mov	r2, sl
   84bf4:	465b      	mov	r3, fp
   84bf6:	f004 fbad 	bl	89354 <__aeabi_dmul>
   84bfa:	4602      	mov	r2, r0
   84bfc:	460b      	mov	r3, r1
   84bfe:	4630      	mov	r0, r6
   84c00:	4639      	mov	r1, r7
   84c02:	f004 f9f3 	bl	88fec <__aeabi_dsub>
   84c06:	f108 0e30 	add.w	lr, r8, #48	; 0x30
   84c0a:	f809 ec01 	strb.w	lr, [r9, #-1]
   84c0e:	2300      	movs	r3, #0
   84c10:	f8dd e00c 	ldr.w	lr, [sp, #12]
   84c14:	2200      	movs	r2, #0
   84c16:	f2c4 0324 	movt	r3, #16420	; 0x4024
   84c1a:	45f1      	cmp	r9, lr
   84c1c:	f109 0901 	add.w	r9, r9, #1
   84c20:	4606      	mov	r6, r0
   84c22:	460f      	mov	r7, r1
   84c24:	d1ce      	bne.n	84bc4 <_dtoa_r+0x340>
   84c26:	4632      	mov	r2, r6
   84c28:	463b      	mov	r3, r7
   84c2a:	4630      	mov	r0, r6
   84c2c:	4639      	mov	r1, r7
   84c2e:	f004 f9df 	bl	88ff0 <__adddf3>
   84c32:	4606      	mov	r6, r0
   84c34:	460f      	mov	r7, r1
   84c36:	4632      	mov	r2, r6
   84c38:	e9dd 0106 	ldrd	r0, r1, [sp, #24]
   84c3c:	463b      	mov	r3, r7
   84c3e:	f004 fdfb 	bl	89838 <__aeabi_dcmplt>
   84c42:	2800      	cmp	r0, #0
   84c44:	f000 8570 	beq.w	85728 <_dtoa_r+0xea4>
   84c48:	f8dd 9020 	ldr.w	r9, [sp, #32]
   84c4c:	9e04      	ldr	r6, [sp, #16]
   84c4e:	462a      	mov	r2, r5
   84c50:	f815 8c01 	ldrb.w	r8, [r5, #-1]
   84c54:	9508      	str	r5, [sp, #32]
   84c56:	9616      	str	r6, [sp, #88]	; 0x58
   84c58:	e005      	b.n	84c66 <_dtoa_r+0x3e2>
   84c5a:	454b      	cmp	r3, r9
   84c5c:	f000 84b8 	beq.w	855d0 <_dtoa_r+0xd4c>
   84c60:	f813 8c01 	ldrb.w	r8, [r3, #-1]
   84c64:	461a      	mov	r2, r3
   84c66:	f1b8 0f39 	cmp.w	r8, #57	; 0x39
   84c6a:	f102 33ff 	add.w	r3, r2, #4294967295	; 0xffffffff
   84c6e:	d0f4      	beq.n	84c5a <_dtoa_r+0x3d6>
   84c70:	9e16      	ldr	r6, [sp, #88]	; 0x58
   84c72:	9208      	str	r2, [sp, #32]
   84c74:	f108 0201 	add.w	r2, r8, #1
   84c78:	9604      	str	r6, [sp, #16]
   84c7a:	b2d2      	uxtb	r2, r2
   84c7c:	701a      	strb	r2, [r3, #0]
   84c7e:	e0b1      	b.n	84de4 <_dtoa_r+0x560>
   84c80:	9e0d      	ldr	r6, [sp, #52]	; 0x34
   84c82:	2e00      	cmp	r6, #0
   84c84:	f040 80f1 	bne.w	84e6a <_dtoa_r+0x5e6>
   84c88:	9e0c      	ldr	r6, [sp, #48]	; 0x30
   84c8a:	9d0a      	ldr	r5, [sp, #40]	; 0x28
   84c8c:	f8dd 8034 	ldr.w	r8, [sp, #52]	; 0x34
   84c90:	9806      	ldr	r0, [sp, #24]
   84c92:	2800      	cmp	r0, #0
   84c94:	bfc8      	it	gt
   84c96:	2d00      	cmpgt	r5, #0
   84c98:	dd09      	ble.n	84cae <_dtoa_r+0x42a>
   84c9a:	4603      	mov	r3, r0
   84c9c:	990a      	ldr	r1, [sp, #40]	; 0x28
   84c9e:	42ab      	cmp	r3, r5
   84ca0:	bfa8      	it	ge
   84ca2:	462b      	movge	r3, r5
   84ca4:	1aed      	subs	r5, r5, r3
   84ca6:	1ac9      	subs	r1, r1, r3
   84ca8:	1ac0      	subs	r0, r0, r3
   84caa:	910a      	str	r1, [sp, #40]	; 0x28
   84cac:	9006      	str	r0, [sp, #24]
   84cae:	9a0c      	ldr	r2, [sp, #48]	; 0x30
   84cb0:	2a00      	cmp	r2, #0
   84cb2:	dd1c      	ble.n	84cee <_dtoa_r+0x46a>
   84cb4:	9b0d      	ldr	r3, [sp, #52]	; 0x34
   84cb6:	2b00      	cmp	r3, #0
   84cb8:	f000 8479 	beq.w	855ae <_dtoa_r+0xd2a>
   84cbc:	2e00      	cmp	r6, #0
   84cbe:	dd10      	ble.n	84ce2 <_dtoa_r+0x45e>
   84cc0:	4641      	mov	r1, r8
   84cc2:	4632      	mov	r2, r6
   84cc4:	4620      	mov	r0, r4
   84cc6:	f001 ff1d 	bl	86b04 <__pow5mult>
   84cca:	9a0b      	ldr	r2, [sp, #44]	; 0x2c
   84ccc:	4680      	mov	r8, r0
   84cce:	4620      	mov	r0, r4
   84cd0:	4641      	mov	r1, r8
   84cd2:	f001 fe77 	bl	869c4 <__multiply>
   84cd6:	990b      	ldr	r1, [sp, #44]	; 0x2c
   84cd8:	4607      	mov	r7, r0
   84cda:	4620      	mov	r0, r4
   84cdc:	f001 fd70 	bl	867c0 <_Bfree>
   84ce0:	970b      	str	r7, [sp, #44]	; 0x2c
   84ce2:	f8dd e030 	ldr.w	lr, [sp, #48]	; 0x30
   84ce6:	ebbe 0206 	subs.w	r2, lr, r6
   84cea:	f040 84a7 	bne.w	8563c <_dtoa_r+0xdb8>
   84cee:	4620      	mov	r0, r4
   84cf0:	2101      	movs	r1, #1
   84cf2:	f001 fe5d 	bl	869b0 <__i2b>
   84cf6:	4606      	mov	r6, r0
   84cf8:	980e      	ldr	r0, [sp, #56]	; 0x38
   84cfa:	2800      	cmp	r0, #0
   84cfc:	dd05      	ble.n	84d0a <_dtoa_r+0x486>
   84cfe:	4631      	mov	r1, r6
   84d00:	4620      	mov	r0, r4
   84d02:	9a0e      	ldr	r2, [sp, #56]	; 0x38
   84d04:	f001 fefe 	bl	86b04 <__pow5mult>
   84d08:	4606      	mov	r6, r0
   84d0a:	9924      	ldr	r1, [sp, #144]	; 0x90
   84d0c:	2901      	cmp	r1, #1
   84d0e:	f340 8390 	ble.w	85432 <_dtoa_r+0xbae>
   84d12:	2700      	movs	r7, #0
   84d14:	980e      	ldr	r0, [sp, #56]	; 0x38
   84d16:	2800      	cmp	r0, #0
   84d18:	f040 836c 	bne.w	853f4 <_dtoa_r+0xb70>
   84d1c:	2001      	movs	r0, #1
   84d1e:	9b06      	ldr	r3, [sp, #24]
   84d20:	4403      	add	r3, r0
   84d22:	f013 031f 	ands.w	r3, r3, #31
   84d26:	f000 8293 	beq.w	85250 <_dtoa_r+0x9cc>
   84d2a:	f1c3 0220 	rsb	r2, r3, #32
   84d2e:	2a04      	cmp	r2, #4
   84d30:	f340 8568 	ble.w	85804 <_dtoa_r+0xf80>
   84d34:	f1c3 031c 	rsb	r3, r3, #28
   84d38:	990a      	ldr	r1, [sp, #40]	; 0x28
   84d3a:	9a06      	ldr	r2, [sp, #24]
   84d3c:	441d      	add	r5, r3
   84d3e:	4419      	add	r1, r3
   84d40:	910a      	str	r1, [sp, #40]	; 0x28
   84d42:	441a      	add	r2, r3
   84d44:	9206      	str	r2, [sp, #24]
   84d46:	990a      	ldr	r1, [sp, #40]	; 0x28
   84d48:	2900      	cmp	r1, #0
   84d4a:	dd05      	ble.n	84d58 <_dtoa_r+0x4d4>
   84d4c:	990b      	ldr	r1, [sp, #44]	; 0x2c
   84d4e:	4620      	mov	r0, r4
   84d50:	9a0a      	ldr	r2, [sp, #40]	; 0x28
   84d52:	f001 ff33 	bl	86bbc <__lshift>
   84d56:	900b      	str	r0, [sp, #44]	; 0x2c
   84d58:	9a06      	ldr	r2, [sp, #24]
   84d5a:	2a00      	cmp	r2, #0
   84d5c:	dd04      	ble.n	84d68 <_dtoa_r+0x4e4>
   84d5e:	4631      	mov	r1, r6
   84d60:	4620      	mov	r0, r4
   84d62:	f001 ff2b 	bl	86bbc <__lshift>
   84d66:	4606      	mov	r6, r0
   84d68:	9b0f      	ldr	r3, [sp, #60]	; 0x3c
   84d6a:	2b00      	cmp	r3, #0
   84d6c:	f040 8321 	bne.w	853b2 <_dtoa_r+0xb2e>
   84d70:	9824      	ldr	r0, [sp, #144]	; 0x90
   84d72:	9909      	ldr	r1, [sp, #36]	; 0x24
   84d74:	2802      	cmp	r0, #2
   84d76:	bfd4      	ite	le
   84d78:	2300      	movle	r3, #0
   84d7a:	2301      	movgt	r3, #1
   84d7c:	2900      	cmp	r1, #0
   84d7e:	bfc8      	it	gt
   84d80:	2300      	movgt	r3, #0
   84d82:	2b00      	cmp	r3, #0
   84d84:	f000 821a 	beq.w	851bc <_dtoa_r+0x938>
   84d88:	9809      	ldr	r0, [sp, #36]	; 0x24
   84d8a:	2800      	cmp	r0, #0
   84d8c:	f040 820f 	bne.w	851ae <_dtoa_r+0x92a>
   84d90:	4631      	mov	r1, r6
   84d92:	4603      	mov	r3, r0
   84d94:	2205      	movs	r2, #5
   84d96:	4620      	mov	r0, r4
   84d98:	f001 fd2e 	bl	867f8 <__multadd>
   84d9c:	4606      	mov	r6, r0
   84d9e:	980b      	ldr	r0, [sp, #44]	; 0x2c
   84da0:	4631      	mov	r1, r6
   84da2:	f001 ff67 	bl	86c74 <__mcmp>
   84da6:	2800      	cmp	r0, #0
   84da8:	f340 8201 	ble.w	851ae <_dtoa_r+0x92a>
   84dac:	f8dd 9020 	ldr.w	r9, [sp, #32]
   84db0:	2500      	movs	r5, #0
   84db2:	9a04      	ldr	r2, [sp, #16]
   84db4:	2331      	movs	r3, #49	; 0x31
   84db6:	3201      	adds	r2, #1
   84db8:	f889 3000 	strb.w	r3, [r9]
   84dbc:	9204      	str	r2, [sp, #16]
   84dbe:	f109 0301 	add.w	r3, r9, #1
   84dc2:	9308      	str	r3, [sp, #32]
   84dc4:	4631      	mov	r1, r6
   84dc6:	4620      	mov	r0, r4
   84dc8:	f001 fcfa 	bl	867c0 <_Bfree>
   84dcc:	f1b8 0f00 	cmp.w	r8, #0
   84dd0:	d008      	beq.n	84de4 <_dtoa_r+0x560>
   84dd2:	4545      	cmp	r5, r8
   84dd4:	bf18      	it	ne
   84dd6:	2d00      	cmpne	r5, #0
   84dd8:	f040 824a 	bne.w	85270 <_dtoa_r+0x9ec>
   84ddc:	4641      	mov	r1, r8
   84dde:	4620      	mov	r0, r4
   84de0:	f001 fcee 	bl	867c0 <_Bfree>
   84de4:	4620      	mov	r0, r4
   84de6:	990b      	ldr	r1, [sp, #44]	; 0x2c
   84de8:	f001 fcea 	bl	867c0 <_Bfree>
   84dec:	9e04      	ldr	r6, [sp, #16]
   84dee:	2200      	movs	r2, #0
   84df0:	4648      	mov	r0, r9
   84df2:	1c73      	adds	r3, r6, #1
   84df4:	9e08      	ldr	r6, [sp, #32]
   84df6:	7032      	strb	r2, [r6, #0]
   84df8:	9e26      	ldr	r6, [sp, #152]	; 0x98
   84dfa:	6033      	str	r3, [r6, #0]
   84dfc:	9e28      	ldr	r6, [sp, #160]	; 0xa0
   84dfe:	2e00      	cmp	r6, #0
   84e00:	f43f ad81 	beq.w	84906 <_dtoa_r+0x82>
   84e04:	9808      	ldr	r0, [sp, #32]
   84e06:	6030      	str	r0, [r6, #0]
   84e08:	4648      	mov	r0, r9
   84e0a:	b01b      	add	sp, #108	; 0x6c
   84e0c:	e8bd 8ff0 	ldmia.w	sp!, {r4, r5, r6, r7, r8, r9, sl, fp, pc}
   84e10:	2010      	movs	r0, #16
   84e12:	f001 f937 	bl	86084 <malloc>
   84e16:	6260      	str	r0, [r4, #36]	; 0x24
   84e18:	6046      	str	r6, [r0, #4]
   84e1a:	6086      	str	r6, [r0, #8]
   84e1c:	6006      	str	r6, [r0, #0]
   84e1e:	60c6      	str	r6, [r0, #12]
   84e20:	e548      	b.n	848b4 <_dtoa_r+0x30>
   84e22:	9e0a      	ldr	r6, [sp, #40]	; 0x28
   84e24:	f8dd e010 	ldr.w	lr, [sp, #16]
   84e28:	ebce 0606 	rsb	r6, lr, r6
   84e2c:	960a      	str	r6, [sp, #40]	; 0x28
   84e2e:	f1ce 0600 	rsb	r6, lr, #0
   84e32:	960c      	str	r6, [sp, #48]	; 0x30
   84e34:	2600      	movs	r6, #0
   84e36:	960e      	str	r6, [sp, #56]	; 0x38
   84e38:	e60a      	b.n	84a50 <_dtoa_r+0x1cc>
   84e3a:	9804      	ldr	r0, [sp, #16]
   84e3c:	f004 fa24 	bl	89288 <__aeabi_i2d>
   84e40:	4632      	mov	r2, r6
   84e42:	463b      	mov	r3, r7
   84e44:	f004 fcee 	bl	89824 <__aeabi_dcmpeq>
   84e48:	2800      	cmp	r0, #0
   84e4a:	f47f add0 	bne.w	849ee <_dtoa_r+0x16a>
   84e4e:	9e04      	ldr	r6, [sp, #16]
   84e50:	3e01      	subs	r6, #1
   84e52:	9604      	str	r6, [sp, #16]
   84e54:	e5cb      	b.n	849ee <_dtoa_r+0x16a>
   84e56:	900f      	str	r0, [sp, #60]	; 0x3c
   84e58:	e5e2      	b.n	84a20 <_dtoa_r+0x19c>
   84e5a:	f64f 30ee 	movw	r0, #64494	; 0xfbee
   84e5e:	f6cf 70ff 	movt	r0, #65535	; 0xffff
   84e62:	1b40      	subs	r0, r0, r5
   84e64:	fa0a f000 	lsl.w	r0, sl, r0
   84e68:	e58b      	b.n	84982 <_dtoa_r+0xfe>
   84e6a:	9e24      	ldr	r6, [sp, #144]	; 0x90
   84e6c:	2e01      	cmp	r6, #1
   84e6e:	f340 8415 	ble.w	8569c <_dtoa_r+0xe18>
   84e72:	9809      	ldr	r0, [sp, #36]	; 0x24
   84e74:	990c      	ldr	r1, [sp, #48]	; 0x30
   84e76:	1e46      	subs	r6, r0, #1
   84e78:	9809      	ldr	r0, [sp, #36]	; 0x24
   84e7a:	42b1      	cmp	r1, r6
   84e7c:	bfaf      	iteee	ge
   84e7e:	ebc6 0601 	rsbge	r6, r6, r1
   84e82:	9a0c      	ldrlt	r2, [sp, #48]	; 0x30
   84e84:	960c      	strlt	r6, [sp, #48]	; 0x30
   84e86:	ebc2 0306 	rsblt	r3, r2, r6
   84e8a:	bfbf      	itttt	lt
   84e8c:	9e0e      	ldrlt	r6, [sp, #56]	; 0x38
   84e8e:	18f6      	addlt	r6, r6, r3
   84e90:	960e      	strlt	r6, [sp, #56]	; 0x38
   84e92:	2600      	movlt	r6, #0
   84e94:	2800      	cmp	r0, #0
   84e96:	bfb9      	ittee	lt
   84e98:	2300      	movlt	r3, #0
   84e9a:	990a      	ldrlt	r1, [sp, #40]	; 0x28
   84e9c:	9d0a      	ldrge	r5, [sp, #40]	; 0x28
   84e9e:	9b09      	ldrge	r3, [sp, #36]	; 0x24
   84ea0:	bfb8      	it	lt
   84ea2:	ebc0 0501 	rsblt	r5, r0, r1
   84ea6:	9a0a      	ldr	r2, [sp, #40]	; 0x28
   84ea8:	4620      	mov	r0, r4
   84eaa:	f8dd e018 	ldr.w	lr, [sp, #24]
   84eae:	2101      	movs	r1, #1
   84eb0:	441a      	add	r2, r3
   84eb2:	920a      	str	r2, [sp, #40]	; 0x28
   84eb4:	449e      	add	lr, r3
   84eb6:	f8cd e018 	str.w	lr, [sp, #24]
   84eba:	f001 fd79 	bl	869b0 <__i2b>
   84ebe:	4680      	mov	r8, r0
   84ec0:	e6e6      	b.n	84c90 <_dtoa_r+0x40c>
   84ec2:	2600      	movs	r6, #0
   84ec4:	960d      	str	r6, [sp, #52]	; 0x34
   84ec6:	9e04      	ldr	r6, [sp, #16]
   84ec8:	f8dd e094 	ldr.w	lr, [sp, #148]	; 0x94
   84ecc:	44b6      	add	lr, r6
   84ece:	f8cd e050 	str.w	lr, [sp, #80]	; 0x50
   84ed2:	f10e 0601 	add.w	r6, lr, #1
   84ed6:	9609      	str	r6, [sp, #36]	; 0x24
   84ed8:	2e00      	cmp	r6, #0
   84eda:	f340 8359 	ble.w	85590 <_dtoa_r+0xd0c>
   84ede:	9e09      	ldr	r6, [sp, #36]	; 0x24
   84ee0:	2e0e      	cmp	r6, #14
   84ee2:	bf8c      	ite	hi
   84ee4:	2500      	movhi	r5, #0
   84ee6:	f005 0501 	andls.w	r5, r5, #1
   84eea:	4637      	mov	r7, r6
   84eec:	6a66      	ldr	r6, [r4, #36]	; 0x24
   84eee:	2f17      	cmp	r7, #23
   84ef0:	f04f 0100 	mov.w	r1, #0
   84ef4:	6071      	str	r1, [r6, #4]
   84ef6:	d909      	bls.n	84f0c <_dtoa_r+0x688>
   84ef8:	2201      	movs	r2, #1
   84efa:	2304      	movs	r3, #4
   84efc:	005b      	lsls	r3, r3, #1
   84efe:	4611      	mov	r1, r2
   84f00:	f103 0014 	add.w	r0, r3, #20
   84f04:	3201      	adds	r2, #1
   84f06:	42b8      	cmp	r0, r7
   84f08:	d9f8      	bls.n	84efc <_dtoa_r+0x678>
   84f0a:	6071      	str	r1, [r6, #4]
   84f0c:	4620      	mov	r0, r4
   84f0e:	f001 fc21 	bl	86754 <_Balloc>
   84f12:	6a63      	ldr	r3, [r4, #36]	; 0x24
   84f14:	6030      	str	r0, [r6, #0]
   84f16:	681b      	ldr	r3, [r3, #0]
   84f18:	9308      	str	r3, [sp, #32]
   84f1a:	2d00      	cmp	r5, #0
   84f1c:	f43f ade5 	beq.w	84aea <_dtoa_r+0x266>
   84f20:	9e04      	ldr	r6, [sp, #16]
   84f22:	e9cd ab12 	strd	sl, fp, [sp, #72]	; 0x48
   84f26:	2e00      	cmp	r6, #0
   84f28:	f340 81ab 	ble.w	85282 <_dtoa_r+0x9fe>
   84f2c:	f006 020f 	and.w	r2, r6, #15
   84f30:	f24a 13e0 	movw	r3, #41440	; 0xa1e0
   84f34:	1135      	asrs	r5, r6, #4
   84f36:	f2c0 0308 	movt	r3, #8
   84f3a:	eb03 03c2 	add.w	r3, r3, r2, lsl #3
   84f3e:	06e9      	lsls	r1, r5, #27
   84f40:	e9d3 6700 	ldrd	r6, r7, [r3]
   84f44:	f140 818f 	bpl.w	85266 <_dtoa_r+0x9e2>
   84f48:	f24a 23d0 	movw	r3, #41680	; 0xa2d0
   84f4c:	4650      	mov	r0, sl
   84f4e:	f2c0 0308 	movt	r3, #8
   84f52:	4659      	mov	r1, fp
   84f54:	f005 050f 	and.w	r5, r5, #15
   84f58:	f04f 0803 	mov.w	r8, #3
   84f5c:	e9d3 2308 	ldrd	r2, r3, [r3, #32]
   84f60:	f004 fb22 	bl	895a8 <__aeabi_ddiv>
   84f64:	4682      	mov	sl, r0
   84f66:	468b      	mov	fp, r1
   84f68:	b19d      	cbz	r5, 84f92 <_dtoa_r+0x70e>
   84f6a:	f24a 29d0 	movw	r9, #41680	; 0xa2d0
   84f6e:	f2c0 0908 	movt	r9, #8
   84f72:	07ea      	lsls	r2, r5, #31
   84f74:	4630      	mov	r0, r6
   84f76:	4639      	mov	r1, r7
   84f78:	d507      	bpl.n	84f8a <_dtoa_r+0x706>
   84f7a:	e9d9 2300 	ldrd	r2, r3, [r9]
   84f7e:	f108 0801 	add.w	r8, r8, #1
   84f82:	f004 f9e7 	bl	89354 <__aeabi_dmul>
   84f86:	4606      	mov	r6, r0
   84f88:	460f      	mov	r7, r1
   84f8a:	106d      	asrs	r5, r5, #1
   84f8c:	f109 0908 	add.w	r9, r9, #8
   84f90:	d1ef      	bne.n	84f72 <_dtoa_r+0x6ee>
   84f92:	4632      	mov	r2, r6
   84f94:	463b      	mov	r3, r7
   84f96:	4650      	mov	r0, sl
   84f98:	4659      	mov	r1, fp
   84f9a:	f004 fb05 	bl	895a8 <__aeabi_ddiv>
   84f9e:	4606      	mov	r6, r0
   84fa0:	460f      	mov	r7, r1
   84fa2:	980f      	ldr	r0, [sp, #60]	; 0x3c
   84fa4:	b150      	cbz	r0, 84fbc <_dtoa_r+0x738>
   84fa6:	2300      	movs	r3, #0
   84fa8:	4630      	mov	r0, r6
   84faa:	4639      	mov	r1, r7
   84fac:	2200      	movs	r2, #0
   84fae:	f6c3 73f0 	movt	r3, #16368	; 0x3ff0
   84fb2:	f004 fc41 	bl	89838 <__aeabi_dcmplt>
   84fb6:	2800      	cmp	r0, #0
   84fb8:	f040 8315 	bne.w	855e6 <_dtoa_r+0xd62>
   84fbc:	4640      	mov	r0, r8
   84fbe:	f004 f963 	bl	89288 <__aeabi_i2d>
   84fc2:	4632      	mov	r2, r6
   84fc4:	463b      	mov	r3, r7
   84fc6:	f004 f9c5 	bl	89354 <__aeabi_dmul>
   84fca:	2300      	movs	r3, #0
   84fcc:	2200      	movs	r2, #0
   84fce:	f2c4 031c 	movt	r3, #16412	; 0x401c
   84fd2:	f004 f80d 	bl	88ff0 <__adddf3>
   84fd6:	4680      	mov	r8, r0
   84fd8:	9809      	ldr	r0, [sp, #36]	; 0x24
   84fda:	f1a1 7950 	sub.w	r9, r1, #54525952	; 0x3400000
   84fde:	2800      	cmp	r0, #0
   84fe0:	f000 80c9 	beq.w	85176 <_dtoa_r+0x8f2>
   84fe4:	9904      	ldr	r1, [sp, #16]
   84fe6:	f8dd c024 	ldr.w	ip, [sp, #36]	; 0x24
   84fea:	9116      	str	r1, [sp, #88]	; 0x58
   84fec:	9a0d      	ldr	r2, [sp, #52]	; 0x34
   84fee:	2a00      	cmp	r2, #0
   84ff0:	f000 8179 	beq.w	852e6 <_dtoa_r+0xa62>
   84ff4:	f24a 13e0 	movw	r3, #41440	; 0xa1e0
   84ff8:	9a08      	ldr	r2, [sp, #32]
   84ffa:	f2c0 0308 	movt	r3, #8
   84ffe:	2100      	movs	r1, #0
   85000:	eb03 03cc 	add.w	r3, r3, ip, lsl #3
   85004:	2000      	movs	r0, #0
   85006:	f6c3 71e0 	movt	r1, #16352	; 0x3fe0
   8500a:	1c55      	adds	r5, r2, #1
   8500c:	e953 2302 	ldrd	r2, r3, [r3, #-8]
   85010:	f8cd c008 	str.w	ip, [sp, #8]
   85014:	f004 fac8 	bl	895a8 <__aeabi_ddiv>
   85018:	4642      	mov	r2, r8
   8501a:	464b      	mov	r3, r9
   8501c:	f003 ffe6 	bl	88fec <__aeabi_dsub>
   85020:	4682      	mov	sl, r0
   85022:	468b      	mov	fp, r1
   85024:	4630      	mov	r0, r6
   85026:	4639      	mov	r1, r7
   85028:	f004 fc2e 	bl	89888 <__aeabi_d2iz>
   8502c:	4680      	mov	r8, r0
   8502e:	f004 f92b 	bl	89288 <__aeabi_i2d>
   85032:	f108 0830 	add.w	r8, r8, #48	; 0x30
   85036:	fa5f f888 	uxtb.w	r8, r8
   8503a:	4602      	mov	r2, r0
   8503c:	460b      	mov	r3, r1
   8503e:	4630      	mov	r0, r6
   85040:	4639      	mov	r1, r7
   85042:	f003 ffd3 	bl	88fec <__aeabi_dsub>
   85046:	f8dd e020 	ldr.w	lr, [sp, #32]
   8504a:	f88e 8000 	strb.w	r8, [lr]
   8504e:	4606      	mov	r6, r0
   85050:	460f      	mov	r7, r1
   85052:	4650      	mov	r0, sl
   85054:	4659      	mov	r1, fp
   85056:	4632      	mov	r2, r6
   85058:	463b      	mov	r3, r7
   8505a:	f004 fc0b 	bl	89874 <__aeabi_dcmpgt>
   8505e:	2800      	cmp	r0, #0
   85060:	f040 83c2 	bne.w	857e8 <_dtoa_r+0xf64>
   85064:	2100      	movs	r1, #0
   85066:	4632      	mov	r2, r6
   85068:	463b      	mov	r3, r7
   8506a:	2000      	movs	r0, #0
   8506c:	f6c3 71f0 	movt	r1, #16368	; 0x3ff0
   85070:	f003 ffbc 	bl	88fec <__aeabi_dsub>
   85074:	4602      	mov	r2, r0
   85076:	460b      	mov	r3, r1
   85078:	4650      	mov	r0, sl
   8507a:	4659      	mov	r1, fp
   8507c:	f004 fbfa 	bl	89874 <__aeabi_dcmpgt>
   85080:	f8dd c008 	ldr.w	ip, [sp, #8]
   85084:	2800      	cmp	r0, #0
   85086:	f040 8314 	bne.w	856b2 <_dtoa_r+0xe2e>
   8508a:	f1bc 0f01 	cmp.w	ip, #1
   8508e:	f340 80f5 	ble.w	8527c <_dtoa_r+0x9f8>
   85092:	f8dd 9020 	ldr.w	r9, [sp, #32]
   85096:	9417      	str	r4, [sp, #92]	; 0x5c
   85098:	44e1      	add	r9, ip
   8509a:	f8cd 9040 	str.w	r9, [sp, #64]	; 0x40
   8509e:	46a9      	mov	r9, r5
   850a0:	e010      	b.n	850c4 <_dtoa_r+0x840>
   850a2:	2100      	movs	r1, #0
   850a4:	2000      	movs	r0, #0
   850a6:	f6c3 71f0 	movt	r1, #16368	; 0x3ff0
   850aa:	f003 ff9f 	bl	88fec <__aeabi_dsub>
   850ae:	4652      	mov	r2, sl
   850b0:	465b      	mov	r3, fp
   850b2:	f004 fbc1 	bl	89838 <__aeabi_dcmplt>
   850b6:	2800      	cmp	r0, #0
   850b8:	f040 82f9 	bne.w	856ae <_dtoa_r+0xe2a>
   850bc:	9810      	ldr	r0, [sp, #64]	; 0x40
   850be:	4581      	cmp	r9, r0
   850c0:	f000 80db 	beq.w	8527a <_dtoa_r+0x9f6>
   850c4:	2300      	movs	r3, #0
   850c6:	4650      	mov	r0, sl
   850c8:	4659      	mov	r1, fp
   850ca:	2200      	movs	r2, #0
   850cc:	f2c4 0324 	movt	r3, #16420	; 0x4024
   850d0:	f004 f940 	bl	89354 <__aeabi_dmul>
   850d4:	2300      	movs	r3, #0
   850d6:	2200      	movs	r2, #0
   850d8:	f2c4 0324 	movt	r3, #16420	; 0x4024
   850dc:	4682      	mov	sl, r0
   850de:	468b      	mov	fp, r1
   850e0:	4630      	mov	r0, r6
   850e2:	4639      	mov	r1, r7
   850e4:	f004 f936 	bl	89354 <__aeabi_dmul>
   850e8:	460d      	mov	r5, r1
   850ea:	4604      	mov	r4, r0
   850ec:	f004 fbcc 	bl	89888 <__aeabi_d2iz>
   850f0:	4680      	mov	r8, r0
   850f2:	f004 f8c9 	bl	89288 <__aeabi_i2d>
   850f6:	f108 0830 	add.w	r8, r8, #48	; 0x30
   850fa:	fa5f f888 	uxtb.w	r8, r8
   850fe:	4602      	mov	r2, r0
   85100:	460b      	mov	r3, r1
   85102:	4620      	mov	r0, r4
   85104:	4629      	mov	r1, r5
   85106:	f003 ff71 	bl	88fec <__aeabi_dsub>
   8510a:	4652      	mov	r2, sl
   8510c:	465b      	mov	r3, fp
   8510e:	f809 8b01 	strb.w	r8, [r9], #1
   85112:	4606      	mov	r6, r0
   85114:	460f      	mov	r7, r1
   85116:	f004 fb8f 	bl	89838 <__aeabi_dcmplt>
   8511a:	4632      	mov	r2, r6
   8511c:	463b      	mov	r3, r7
   8511e:	2800      	cmp	r0, #0
   85120:	d0bf      	beq.n	850a2 <_dtoa_r+0x81e>
   85122:	9e16      	ldr	r6, [sp, #88]	; 0x58
   85124:	464d      	mov	r5, r9
   85126:	9c17      	ldr	r4, [sp, #92]	; 0x5c
   85128:	f8dd 9020 	ldr.w	r9, [sp, #32]
   8512c:	9604      	str	r6, [sp, #16]
   8512e:	9508      	str	r5, [sp, #32]
   85130:	e658      	b.n	84de4 <_dtoa_r+0x560>
   85132:	2600      	movs	r6, #0
   85134:	960d      	str	r6, [sp, #52]	; 0x34
   85136:	9825      	ldr	r0, [sp, #148]	; 0x94
   85138:	2800      	cmp	r0, #0
   8513a:	f340 8233 	ble.w	855a4 <_dtoa_r+0xd20>
   8513e:	280e      	cmp	r0, #14
   85140:	bf8c      	ite	hi
   85142:	2500      	movhi	r5, #0
   85144:	f005 0501 	andls.w	r5, r5, #1
   85148:	4607      	mov	r7, r0
   8514a:	9014      	str	r0, [sp, #80]	; 0x50
   8514c:	9009      	str	r0, [sp, #36]	; 0x24
   8514e:	e6cd      	b.n	84eec <_dtoa_r+0x668>
   85150:	2601      	movs	r6, #1
   85152:	960d      	str	r6, [sp, #52]	; 0x34
   85154:	e7ef      	b.n	85136 <_dtoa_r+0x8b2>
   85156:	4640      	mov	r0, r8
   85158:	f004 f896 	bl	89288 <__aeabi_i2d>
   8515c:	4632      	mov	r2, r6
   8515e:	463b      	mov	r3, r7
   85160:	f004 f8f8 	bl	89354 <__aeabi_dmul>
   85164:	2300      	movs	r3, #0
   85166:	2200      	movs	r2, #0
   85168:	f2c4 031c 	movt	r3, #16412	; 0x401c
   8516c:	f003 ff40 	bl	88ff0 <__adddf3>
   85170:	4680      	mov	r8, r0
   85172:	f1a1 7950 	sub.w	r9, r1, #54525952	; 0x3400000
   85176:	2300      	movs	r3, #0
   85178:	4630      	mov	r0, r6
   8517a:	2200      	movs	r2, #0
   8517c:	f2c4 0314 	movt	r3, #16404	; 0x4014
   85180:	4639      	mov	r1, r7
   85182:	f003 ff33 	bl	88fec <__aeabi_dsub>
   85186:	4642      	mov	r2, r8
   85188:	464b      	mov	r3, r9
   8518a:	4682      	mov	sl, r0
   8518c:	468b      	mov	fp, r1
   8518e:	f004 fb71 	bl	89874 <__aeabi_dcmpgt>
   85192:	4606      	mov	r6, r0
   85194:	2800      	cmp	r0, #0
   85196:	f040 80a3 	bne.w	852e0 <_dtoa_r+0xa5c>
   8519a:	4642      	mov	r2, r8
   8519c:	4650      	mov	r0, sl
   8519e:	4659      	mov	r1, fp
   851a0:	f109 4300 	add.w	r3, r9, #2147483648	; 0x80000000
   851a4:	f004 fb48 	bl	89838 <__aeabi_dcmplt>
   851a8:	2800      	cmp	r0, #0
   851aa:	d067      	beq.n	8527c <_dtoa_r+0x9f8>
   851ac:	46b0      	mov	r8, r6
   851ae:	9925      	ldr	r1, [sp, #148]	; 0x94
   851b0:	2500      	movs	r5, #0
   851b2:	f8dd 9020 	ldr.w	r9, [sp, #32]
   851b6:	43c9      	mvns	r1, r1
   851b8:	9104      	str	r1, [sp, #16]
   851ba:	e603      	b.n	84dc4 <_dtoa_r+0x540>
   851bc:	980d      	ldr	r0, [sp, #52]	; 0x34
   851be:	2800      	cmp	r0, #0
   851c0:	f040 8164 	bne.w	8548c <_dtoa_r+0xc08>
   851c4:	2500      	movs	r5, #0
   851c6:	f8dd a024 	ldr.w	sl, [sp, #36]	; 0x24
   851ca:	f8dd 902c 	ldr.w	r9, [sp, #44]	; 0x2c
   851ce:	f8dd b020 	ldr.w	fp, [sp, #32]
   851d2:	e002      	b.n	851da <_dtoa_r+0x956>
   851d4:	f001 fb10 	bl	867f8 <__multadd>
   851d8:	4681      	mov	r9, r0
   851da:	4631      	mov	r1, r6
   851dc:	4648      	mov	r0, r9
   851de:	f7ff faab 	bl	84738 <quorem>
   851e2:	4649      	mov	r1, r9
   851e4:	220a      	movs	r2, #10
   851e6:	2300      	movs	r3, #0
   851e8:	f100 0730 	add.w	r7, r0, #48	; 0x30
   851ec:	f80b 7005 	strb.w	r7, [fp, r5]
   851f0:	3501      	adds	r5, #1
   851f2:	4620      	mov	r0, r4
   851f4:	4555      	cmp	r5, sl
   851f6:	dbed      	blt.n	851d4 <_dtoa_r+0x950>
   851f8:	f8dd b020 	ldr.w	fp, [sp, #32]
   851fc:	461d      	mov	r5, r3
   851fe:	9809      	ldr	r0, [sp, #36]	; 0x24
   85200:	f8cd 902c 	str.w	r9, [sp, #44]	; 0x2c
   85204:	2801      	cmp	r0, #1
   85206:	bfac      	ite	ge
   85208:	4483      	addge	fp, r0
   8520a:	f10b 0b01 	addlt.w	fp, fp, #1
   8520e:	990b      	ldr	r1, [sp, #44]	; 0x2c
   85210:	2201      	movs	r2, #1
   85212:	4620      	mov	r0, r4
   85214:	f001 fcd2 	bl	86bbc <__lshift>
   85218:	4631      	mov	r1, r6
   8521a:	900b      	str	r0, [sp, #44]	; 0x2c
   8521c:	f001 fd2a 	bl	86c74 <__mcmp>
   85220:	2800      	cmp	r0, #0
   85222:	f340 826f 	ble.w	85704 <_dtoa_r+0xe80>
   85226:	f81b 2c01 	ldrb.w	r2, [fp, #-1]
   8522a:	9908      	ldr	r1, [sp, #32]
   8522c:	e005      	b.n	8523a <_dtoa_r+0x9b6>
   8522e:	428b      	cmp	r3, r1
   85230:	f000 8228 	beq.w	85684 <_dtoa_r+0xe00>
   85234:	f813 2c01 	ldrb.w	r2, [r3, #-1]
   85238:	469b      	mov	fp, r3
   8523a:	2a39      	cmp	r2, #57	; 0x39
   8523c:	f10b 33ff 	add.w	r3, fp, #4294967295	; 0xffffffff
   85240:	d0f5      	beq.n	8522e <_dtoa_r+0x9aa>
   85242:	3201      	adds	r2, #1
   85244:	f8dd 9020 	ldr.w	r9, [sp, #32]
   85248:	701a      	strb	r2, [r3, #0]
   8524a:	f8cd b020 	str.w	fp, [sp, #32]
   8524e:	e5b9      	b.n	84dc4 <_dtoa_r+0x540>
   85250:	231c      	movs	r3, #28
   85252:	f8dd e028 	ldr.w	lr, [sp, #40]	; 0x28
   85256:	441d      	add	r5, r3
   85258:	9806      	ldr	r0, [sp, #24]
   8525a:	449e      	add	lr, r3
   8525c:	f8cd e028 	str.w	lr, [sp, #40]	; 0x28
   85260:	4418      	add	r0, r3
   85262:	9006      	str	r0, [sp, #24]
   85264:	e56f      	b.n	84d46 <_dtoa_r+0x4c2>
   85266:	e9dd ab12 	ldrd	sl, fp, [sp, #72]	; 0x48
   8526a:	f04f 0802 	mov.w	r8, #2
   8526e:	e67b      	b.n	84f68 <_dtoa_r+0x6e4>
   85270:	4629      	mov	r1, r5
   85272:	4620      	mov	r0, r4
   85274:	f001 faa4 	bl	867c0 <_Bfree>
   85278:	e5b0      	b.n	84ddc <_dtoa_r+0x558>
   8527a:	9c17      	ldr	r4, [sp, #92]	; 0x5c
   8527c:	e9dd ab12 	ldrd	sl, fp, [sp, #72]	; 0x48
   85280:	e433      	b.n	84aea <_dtoa_r+0x266>
   85282:	9e04      	ldr	r6, [sp, #16]
   85284:	4275      	negs	r5, r6
   85286:	2d00      	cmp	r5, #0
   85288:	f000 819d 	beq.w	855c6 <_dtoa_r+0xd42>
   8528c:	f005 020f 	and.w	r2, r5, #15
   85290:	f24a 13e0 	movw	r3, #41440	; 0xa1e0
   85294:	f2c0 0308 	movt	r3, #8
   85298:	e9dd 0112 	ldrd	r0, r1, [sp, #72]	; 0x48
   8529c:	eb03 03c2 	add.w	r3, r3, r2, lsl #3
   852a0:	e9d3 2300 	ldrd	r2, r3, [r3]
   852a4:	f004 f856 	bl	89354 <__aeabi_dmul>
   852a8:	112d      	asrs	r5, r5, #4
   852aa:	4606      	mov	r6, r0
   852ac:	460f      	mov	r7, r1
   852ae:	f000 8297 	beq.w	857e0 <_dtoa_r+0xf5c>
   852b2:	f24a 29d0 	movw	r9, #41680	; 0xa2d0
   852b6:	f04f 0802 	mov.w	r8, #2
   852ba:	f2c0 0908 	movt	r9, #8
   852be:	07eb      	lsls	r3, r5, #31
   852c0:	4630      	mov	r0, r6
   852c2:	4639      	mov	r1, r7
   852c4:	d507      	bpl.n	852d6 <_dtoa_r+0xa52>
   852c6:	e9d9 2300 	ldrd	r2, r3, [r9]
   852ca:	f108 0801 	add.w	r8, r8, #1
   852ce:	f004 f841 	bl	89354 <__aeabi_dmul>
   852d2:	4606      	mov	r6, r0
   852d4:	460f      	mov	r7, r1
   852d6:	106d      	asrs	r5, r5, #1
   852d8:	f109 0908 	add.w	r9, r9, #8
   852dc:	d1ef      	bne.n	852be <_dtoa_r+0xa3a>
   852de:	e660      	b.n	84fa2 <_dtoa_r+0x71e>
   852e0:	2600      	movs	r6, #0
   852e2:	46b0      	mov	r8, r6
   852e4:	e562      	b.n	84dac <_dtoa_r+0x528>
   852e6:	f10c 3bff 	add.w	fp, ip, #4294967295	; 0xffffffff
   852ea:	f24a 11e0 	movw	r1, #41440	; 0xa1e0
   852ee:	f2c0 0108 	movt	r1, #8
   852f2:	9808      	ldr	r0, [sp, #32]
   852f4:	eb01 01cb 	add.w	r1, r1, fp, lsl #3
   852f8:	4642      	mov	r2, r8
   852fa:	464b      	mov	r3, r9
   852fc:	f100 0a01 	add.w	sl, r0, #1
   85300:	e9d1 0100 	ldrd	r0, r1, [r1]
   85304:	f8cd c008 	str.w	ip, [sp, #8]
   85308:	f004 f824 	bl	89354 <__aeabi_dmul>
   8530c:	e9cd 0110 	strd	r0, r1, [sp, #64]	; 0x40
   85310:	4639      	mov	r1, r7
   85312:	4630      	mov	r0, r6
   85314:	f004 fab8 	bl	89888 <__aeabi_d2iz>
   85318:	4605      	mov	r5, r0
   8531a:	f003 ffb5 	bl	89288 <__aeabi_i2d>
   8531e:	3530      	adds	r5, #48	; 0x30
   85320:	4602      	mov	r2, r0
   85322:	460b      	mov	r3, r1
   85324:	4630      	mov	r0, r6
   85326:	4639      	mov	r1, r7
   85328:	f003 fe60 	bl	88fec <__aeabi_dsub>
   8532c:	460f      	mov	r7, r1
   8532e:	9908      	ldr	r1, [sp, #32]
   85330:	4606      	mov	r6, r0
   85332:	700d      	strb	r5, [r1, #0]
   85334:	f8dd c008 	ldr.w	ip, [sp, #8]
   85338:	f1bc 0f01 	cmp.w	ip, #1
   8533c:	d022      	beq.n	85384 <_dtoa_r+0xb00>
   8533e:	9a08      	ldr	r2, [sp, #32]
   85340:	4630      	mov	r0, r6
   85342:	4639      	mov	r1, r7
   85344:	f102 39ff 	add.w	r9, r2, #4294967295	; 0xffffffff
   85348:	4615      	mov	r5, r2
   8534a:	44e1      	add	r9, ip
   8534c:	2300      	movs	r3, #0
   8534e:	2200      	movs	r2, #0
   85350:	f2c4 0324 	movt	r3, #16420	; 0x4024
   85354:	f003 fffe 	bl	89354 <__aeabi_dmul>
   85358:	460f      	mov	r7, r1
   8535a:	4606      	mov	r6, r0
   8535c:	f004 fa94 	bl	89888 <__aeabi_d2iz>
   85360:	4680      	mov	r8, r0
   85362:	f003 ff91 	bl	89288 <__aeabi_i2d>
   85366:	f108 0830 	add.w	r8, r8, #48	; 0x30
   8536a:	4602      	mov	r2, r0
   8536c:	460b      	mov	r3, r1
   8536e:	4630      	mov	r0, r6
   85370:	4639      	mov	r1, r7
   85372:	f003 fe3b 	bl	88fec <__aeabi_dsub>
   85376:	f805 8f01 	strb.w	r8, [r5, #1]!
   8537a:	454d      	cmp	r5, r9
   8537c:	d1e6      	bne.n	8534c <_dtoa_r+0xac8>
   8537e:	4606      	mov	r6, r0
   85380:	460f      	mov	r7, r1
   85382:	44da      	add	sl, fp
   85384:	2300      	movs	r3, #0
   85386:	2200      	movs	r2, #0
   85388:	f6c3 73e0 	movt	r3, #16352	; 0x3fe0
   8538c:	e9dd 0110 	ldrd	r0, r1, [sp, #64]	; 0x40
   85390:	f003 fe2e 	bl	88ff0 <__adddf3>
   85394:	4632      	mov	r2, r6
   85396:	463b      	mov	r3, r7
   85398:	f004 fa4e 	bl	89838 <__aeabi_dcmplt>
   8539c:	2800      	cmp	r0, #0
   8539e:	f000 8154 	beq.w	8564a <_dtoa_r+0xdc6>
   853a2:	f8dd 9020 	ldr.w	r9, [sp, #32]
   853a6:	4652      	mov	r2, sl
   853a8:	f81a 8c01 	ldrb.w	r8, [sl, #-1]
   853ac:	f8cd a020 	str.w	sl, [sp, #32]
   853b0:	e459      	b.n	84c66 <_dtoa_r+0x3e2>
   853b2:	980b      	ldr	r0, [sp, #44]	; 0x2c
   853b4:	4631      	mov	r1, r6
   853b6:	f001 fc5d 	bl	86c74 <__mcmp>
   853ba:	2800      	cmp	r0, #0
   853bc:	f6bf acd8 	bge.w	84d70 <_dtoa_r+0x4ec>
   853c0:	f8dd e010 	ldr.w	lr, [sp, #16]
   853c4:	4620      	mov	r0, r4
   853c6:	990b      	ldr	r1, [sp, #44]	; 0x2c
   853c8:	220a      	movs	r2, #10
   853ca:	2300      	movs	r3, #0
   853cc:	f10e 3eff 	add.w	lr, lr, #4294967295	; 0xffffffff
   853d0:	f8cd e010 	str.w	lr, [sp, #16]
   853d4:	f001 fa10 	bl	867f8 <__multadd>
   853d8:	900b      	str	r0, [sp, #44]	; 0x2c
   853da:	980d      	ldr	r0, [sp, #52]	; 0x34
   853dc:	2800      	cmp	r0, #0
   853de:	d141      	bne.n	85464 <_dtoa_r+0xbe0>
   853e0:	9914      	ldr	r1, [sp, #80]	; 0x50
   853e2:	9b14      	ldr	r3, [sp, #80]	; 0x50
   853e4:	2900      	cmp	r1, #0
   853e6:	dc03      	bgt.n	853f0 <_dtoa_r+0xb6c>
   853e8:	9a24      	ldr	r2, [sp, #144]	; 0x90
   853ea:	2a02      	cmp	r2, #2
   853ec:	f300 8207 	bgt.w	857fe <_dtoa_r+0xf7a>
   853f0:	9309      	str	r3, [sp, #36]	; 0x24
   853f2:	e6e7      	b.n	851c4 <_dtoa_r+0x940>
   853f4:	6933      	ldr	r3, [r6, #16]
   853f6:	eb06 0383 	add.w	r3, r6, r3, lsl #2
   853fa:	6918      	ldr	r0, [r3, #16]
   853fc:	f001 fa8e 	bl	8691c <__hi0bits>
   85400:	f1c0 0020 	rsb	r0, r0, #32
   85404:	e48b      	b.n	84d1e <_dtoa_r+0x49a>
   85406:	9e09      	ldr	r6, [sp, #36]	; 0x24
   85408:	2e00      	cmp	r6, #0
   8540a:	f040 818b 	bne.w	85724 <_dtoa_r+0xea0>
   8540e:	2300      	movs	r3, #0
   85410:	2200      	movs	r2, #0
   85412:	f2c4 0314 	movt	r3, #16404	; 0x4014
   85416:	e9dd 0106 	ldrd	r0, r1, [sp, #24]
   8541a:	f003 ff9b 	bl	89354 <__aeabi_dmul>
   8541e:	4652      	mov	r2, sl
   85420:	465b      	mov	r3, fp
   85422:	f004 fa1d 	bl	89860 <__aeabi_dcmpge>
   85426:	9e09      	ldr	r6, [sp, #36]	; 0x24
   85428:	46b0      	mov	r8, r6
   8542a:	2800      	cmp	r0, #0
   8542c:	f47f aebf 	bne.w	851ae <_dtoa_r+0x92a>
   85430:	e4bc      	b.n	84dac <_dtoa_r+0x528>
   85432:	f1ba 0f00 	cmp.w	sl, #0
   85436:	f47f ac6c 	bne.w	84d12 <_dtoa_r+0x48e>
   8543a:	f3cb 0313 	ubfx	r3, fp, #0, #20
   8543e:	4657      	mov	r7, sl
   85440:	2b00      	cmp	r3, #0
   85442:	f47f ac67 	bne.w	84d14 <_dtoa_r+0x490>
   85446:	f02b 4700 	bic.w	r7, fp, #2147483648	; 0x80000000
   8544a:	0d3f      	lsrs	r7, r7, #20
   8544c:	053f      	lsls	r7, r7, #20
   8544e:	2f00      	cmp	r7, #0
   85450:	f43f ac60 	beq.w	84d14 <_dtoa_r+0x490>
   85454:	9a0a      	ldr	r2, [sp, #40]	; 0x28
   85456:	2701      	movs	r7, #1
   85458:	9b06      	ldr	r3, [sp, #24]
   8545a:	3201      	adds	r2, #1
   8545c:	920a      	str	r2, [sp, #40]	; 0x28
   8545e:	3301      	adds	r3, #1
   85460:	9306      	str	r3, [sp, #24]
   85462:	e457      	b.n	84d14 <_dtoa_r+0x490>
   85464:	2300      	movs	r3, #0
   85466:	4641      	mov	r1, r8
   85468:	220a      	movs	r2, #10
   8546a:	4620      	mov	r0, r4
   8546c:	f001 f9c4 	bl	867f8 <__multadd>
   85470:	9a14      	ldr	r2, [sp, #80]	; 0x50
   85472:	9924      	ldr	r1, [sp, #144]	; 0x90
   85474:	2a00      	cmp	r2, #0
   85476:	bfcc      	ite	gt
   85478:	2300      	movgt	r3, #0
   8547a:	2301      	movle	r3, #1
   8547c:	2902      	cmp	r1, #2
   8547e:	bfd8      	it	le
   85480:	2300      	movle	r3, #0
   85482:	4680      	mov	r8, r0
   85484:	2b00      	cmp	r3, #0
   85486:	f040 81b6 	bne.w	857f6 <_dtoa_r+0xf72>
   8548a:	9209      	str	r2, [sp, #36]	; 0x24
   8548c:	2d00      	cmp	r5, #0
   8548e:	dd05      	ble.n	8549c <_dtoa_r+0xc18>
   85490:	4641      	mov	r1, r8
   85492:	462a      	mov	r2, r5
   85494:	4620      	mov	r0, r4
   85496:	f001 fb91 	bl	86bbc <__lshift>
   8549a:	4680      	mov	r8, r0
   8549c:	46c4      	mov	ip, r8
   8549e:	2f00      	cmp	r7, #0
   854a0:	f040 8153 	bne.w	8574a <_dtoa_r+0xec6>
   854a4:	9909      	ldr	r1, [sp, #36]	; 0x24
   854a6:	f00a 0301 	and.w	r3, sl, #1
   854aa:	9a08      	ldr	r2, [sp, #32]
   854ac:	4637      	mov	r7, r6
   854ae:	9808      	ldr	r0, [sp, #32]
   854b0:	46e1      	mov	r9, ip
   854b2:	440a      	add	r2, r1
   854b4:	9309      	str	r3, [sp, #36]	; 0x24
   854b6:	920a      	str	r2, [sp, #40]	; 0x28
   854b8:	1c45      	adds	r5, r0, #1
   854ba:	9e0b      	ldr	r6, [sp, #44]	; 0x2c
   854bc:	e00a      	b.n	854d4 <_dtoa_r+0xc50>
   854be:	f001 f99b 	bl	867f8 <__multadd>
   854c2:	4649      	mov	r1, r9
   854c4:	220a      	movs	r2, #10
   854c6:	2300      	movs	r3, #0
   854c8:	4680      	mov	r8, r0
   854ca:	4620      	mov	r0, r4
   854cc:	f001 f994 	bl	867f8 <__multadd>
   854d0:	4681      	mov	r9, r0
   854d2:	3501      	adds	r5, #1
   854d4:	4639      	mov	r1, r7
   854d6:	4630      	mov	r0, r6
   854d8:	f7ff f92e 	bl	84738 <quorem>
   854dc:	4641      	mov	r1, r8
   854de:	4682      	mov	sl, r0
   854e0:	4630      	mov	r0, r6
   854e2:	f001 fbc7 	bl	86c74 <__mcmp>
   854e6:	464a      	mov	r2, r9
   854e8:	4639      	mov	r1, r7
   854ea:	4683      	mov	fp, r0
   854ec:	4620      	mov	r0, r4
   854ee:	f001 fbe3 	bl	86cb8 <__mdiff>
   854f2:	f10a 0230 	add.w	r2, sl, #48	; 0x30
   854f6:	9205      	str	r2, [sp, #20]
   854f8:	f105 3eff 	add.w	lr, r5, #4294967295	; 0xffffffff
   854fc:	f8cd e018 	str.w	lr, [sp, #24]
   85500:	68c2      	ldr	r2, [r0, #12]
   85502:	4603      	mov	r3, r0
   85504:	2a00      	cmp	r2, #0
   85506:	d13e      	bne.n	85586 <_dtoa_r+0xd02>
   85508:	4619      	mov	r1, r3
   8550a:	4630      	mov	r0, r6
   8550c:	9302      	str	r3, [sp, #8]
   8550e:	f001 fbb1 	bl	86c74 <__mcmp>
   85512:	9b02      	ldr	r3, [sp, #8]
   85514:	4602      	mov	r2, r0
   85516:	4620      	mov	r0, r4
   85518:	4619      	mov	r1, r3
   8551a:	9202      	str	r2, [sp, #8]
   8551c:	f001 f950 	bl	867c0 <_Bfree>
   85520:	9a02      	ldr	r2, [sp, #8]
   85522:	9824      	ldr	r0, [sp, #144]	; 0x90
   85524:	4310      	orrs	r0, r2
   85526:	d103      	bne.n	85530 <_dtoa_r+0xcac>
   85528:	9909      	ldr	r1, [sp, #36]	; 0x24
   8552a:	2900      	cmp	r1, #0
   8552c:	f000 814a 	beq.w	857c4 <_dtoa_r+0xf40>
   85530:	f1bb 0f00 	cmp.w	fp, #0
   85534:	f2c0 80c3 	blt.w	856be <_dtoa_r+0xe3a>
   85538:	9924      	ldr	r1, [sp, #144]	; 0x90
   8553a:	ea5b 0101 	orrs.w	r1, fp, r1
   8553e:	d103      	bne.n	85548 <_dtoa_r+0xcc4>
   85540:	9b09      	ldr	r3, [sp, #36]	; 0x24
   85542:	2b00      	cmp	r3, #0
   85544:	f000 80bb 	beq.w	856be <_dtoa_r+0xe3a>
   85548:	2a00      	cmp	r2, #0
   8554a:	f300 811b 	bgt.w	85784 <_dtoa_r+0xf00>
   8554e:	9b0a      	ldr	r3, [sp, #40]	; 0x28
   85550:	46ab      	mov	fp, r5
   85552:	9a05      	ldr	r2, [sp, #20]
   85554:	429d      	cmp	r5, r3
   85556:	f805 2c01 	strb.w	r2, [r5, #-1]
   8555a:	f000 8124 	beq.w	857a6 <_dtoa_r+0xf22>
   8555e:	4631      	mov	r1, r6
   85560:	220a      	movs	r2, #10
   85562:	2300      	movs	r3, #0
   85564:	4620      	mov	r0, r4
   85566:	f001 f947 	bl	867f8 <__multadd>
   8556a:	45c8      	cmp	r8, r9
   8556c:	4641      	mov	r1, r8
   8556e:	f04f 020a 	mov.w	r2, #10
   85572:	f04f 0300 	mov.w	r3, #0
   85576:	4606      	mov	r6, r0
   85578:	4620      	mov	r0, r4
   8557a:	d1a0      	bne.n	854be <_dtoa_r+0xc3a>
   8557c:	f001 f93c 	bl	867f8 <__multadd>
   85580:	4680      	mov	r8, r0
   85582:	4681      	mov	r9, r0
   85584:	e7a5      	b.n	854d2 <_dtoa_r+0xc4e>
   85586:	2201      	movs	r2, #1
   85588:	e7c5      	b.n	85516 <_dtoa_r+0xc92>
   8558a:	2601      	movs	r6, #1
   8558c:	960d      	str	r6, [sp, #52]	; 0x34
   8558e:	e49a      	b.n	84ec6 <_dtoa_r+0x642>
   85590:	2e0e      	cmp	r6, #14
   85592:	bf8c      	ite	hi
   85594:	2200      	movhi	r2, #0
   85596:	2201      	movls	r2, #1
   85598:	6a66      	ldr	r6, [r4, #36]	; 0x24
   8559a:	2300      	movs	r3, #0
   8559c:	4015      	ands	r5, r2
   8559e:	4619      	mov	r1, r3
   855a0:	6073      	str	r3, [r6, #4]
   855a2:	e4b3      	b.n	84f0c <_dtoa_r+0x688>
   855a4:	2201      	movs	r2, #1
   855a6:	9225      	str	r2, [sp, #148]	; 0x94
   855a8:	9214      	str	r2, [sp, #80]	; 0x50
   855aa:	9209      	str	r2, [sp, #36]	; 0x24
   855ac:	e7f4      	b.n	85598 <_dtoa_r+0xd14>
   855ae:	990b      	ldr	r1, [sp, #44]	; 0x2c
   855b0:	4620      	mov	r0, r4
   855b2:	9a0c      	ldr	r2, [sp, #48]	; 0x30
   855b4:	f001 faa6 	bl	86b04 <__pow5mult>
   855b8:	900b      	str	r0, [sp, #44]	; 0x2c
   855ba:	f7ff bb98 	b.w	84cee <_dtoa_r+0x46a>
   855be:	f8dd 9020 	ldr.w	r9, [sp, #32]
   855c2:	9508      	str	r5, [sp, #32]
   855c4:	e40e      	b.n	84de4 <_dtoa_r+0x560>
   855c6:	e9dd 6712 	ldrd	r6, r7, [sp, #72]	; 0x48
   855ca:	f04f 0802 	mov.w	r8, #2
   855ce:	e4e8      	b.n	84fa2 <_dtoa_r+0x71e>
   855d0:	9e16      	ldr	r6, [sp, #88]	; 0x58
   855d2:	2130      	movs	r1, #48	; 0x30
   855d4:	9208      	str	r2, [sp, #32]
   855d6:	2231      	movs	r2, #49	; 0x31
   855d8:	3601      	adds	r6, #1
   855da:	f889 1000 	strb.w	r1, [r9]
   855de:	9604      	str	r6, [sp, #16]
   855e0:	701a      	strb	r2, [r3, #0]
   855e2:	f7ff bbff 	b.w	84de4 <_dtoa_r+0x560>
   855e6:	9909      	ldr	r1, [sp, #36]	; 0x24
   855e8:	2900      	cmp	r1, #0
   855ea:	f43f adb4 	beq.w	85156 <_dtoa_r+0x8d2>
   855ee:	9a14      	ldr	r2, [sp, #80]	; 0x50
   855f0:	2a00      	cmp	r2, #0
   855f2:	f77f ae43 	ble.w	8527c <_dtoa_r+0x9f8>
   855f6:	2300      	movs	r3, #0
   855f8:	2200      	movs	r2, #0
   855fa:	4630      	mov	r0, r6
   855fc:	4639      	mov	r1, r7
   855fe:	f2c4 0324 	movt	r3, #16420	; 0x4024
   85602:	f003 fea7 	bl	89354 <__aeabi_dmul>
   85606:	9b04      	ldr	r3, [sp, #16]
   85608:	3b01      	subs	r3, #1
   8560a:	9316      	str	r3, [sp, #88]	; 0x58
   8560c:	4606      	mov	r6, r0
   8560e:	f108 0001 	add.w	r0, r8, #1
   85612:	460f      	mov	r7, r1
   85614:	f003 fe38 	bl	89288 <__aeabi_i2d>
   85618:	4602      	mov	r2, r0
   8561a:	460b      	mov	r3, r1
   8561c:	4630      	mov	r0, r6
   8561e:	4639      	mov	r1, r7
   85620:	f003 fe98 	bl	89354 <__aeabi_dmul>
   85624:	2300      	movs	r3, #0
   85626:	2200      	movs	r2, #0
   85628:	f2c4 031c 	movt	r3, #16412	; 0x401c
   8562c:	f003 fce0 	bl	88ff0 <__adddf3>
   85630:	f8dd c050 	ldr.w	ip, [sp, #80]	; 0x50
   85634:	4680      	mov	r8, r0
   85636:	f1a1 7950 	sub.w	r9, r1, #54525952	; 0x3400000
   8563a:	e4d7      	b.n	84fec <_dtoa_r+0x768>
   8563c:	990b      	ldr	r1, [sp, #44]	; 0x2c
   8563e:	4620      	mov	r0, r4
   85640:	f001 fa60 	bl	86b04 <__pow5mult>
   85644:	900b      	str	r0, [sp, #44]	; 0x2c
   85646:	f7ff bb52 	b.w	84cee <_dtoa_r+0x46a>
   8564a:	2100      	movs	r1, #0
   8564c:	e9dd 2310 	ldrd	r2, r3, [sp, #64]	; 0x40
   85650:	2000      	movs	r0, #0
   85652:	f6c3 71e0 	movt	r1, #16352	; 0x3fe0
   85656:	f003 fcc9 	bl	88fec <__aeabi_dsub>
   8565a:	4632      	mov	r2, r6
   8565c:	463b      	mov	r3, r7
   8565e:	f004 f909 	bl	89874 <__aeabi_dcmpgt>
   85662:	2800      	cmp	r0, #0
   85664:	f43f ae0a 	beq.w	8527c <_dtoa_r+0x9f8>
   85668:	4653      	mov	r3, sl
   8566a:	f10a 3aff 	add.w	sl, sl, #4294967295	; 0xffffffff
   8566e:	f813 2c01 	ldrb.w	r2, [r3, #-1]
   85672:	2a30      	cmp	r2, #48	; 0x30
   85674:	d0f8      	beq.n	85668 <_dtoa_r+0xde4>
   85676:	9e16      	ldr	r6, [sp, #88]	; 0x58
   85678:	f8dd 9020 	ldr.w	r9, [sp, #32]
   8567c:	9308      	str	r3, [sp, #32]
   8567e:	9604      	str	r6, [sp, #16]
   85680:	f7ff bbb0 	b.w	84de4 <_dtoa_r+0x560>
   85684:	f8dd 9020 	ldr.w	r9, [sp, #32]
   85688:	2331      	movs	r3, #49	; 0x31
   8568a:	9904      	ldr	r1, [sp, #16]
   8568c:	f8cd b020 	str.w	fp, [sp, #32]
   85690:	3101      	adds	r1, #1
   85692:	f889 3000 	strb.w	r3, [r9]
   85696:	9104      	str	r1, [sp, #16]
   85698:	f7ff bb94 	b.w	84dc4 <_dtoa_r+0x540>
   8569c:	9e15      	ldr	r6, [sp, #84]	; 0x54
   8569e:	2e00      	cmp	r6, #0
   856a0:	d069      	beq.n	85776 <_dtoa_r+0xef2>
   856a2:	f203 4333 	addw	r3, r3, #1075	; 0x433
   856a6:	9e0c      	ldr	r6, [sp, #48]	; 0x30
   856a8:	9d0a      	ldr	r5, [sp, #40]	; 0x28
   856aa:	f7ff bbfc 	b.w	84ea6 <_dtoa_r+0x622>
   856ae:	9c17      	ldr	r4, [sp, #92]	; 0x5c
   856b0:	464d      	mov	r5, r9
   856b2:	f8dd 9020 	ldr.w	r9, [sp, #32]
   856b6:	462a      	mov	r2, r5
   856b8:	9508      	str	r5, [sp, #32]
   856ba:	f7ff bad4 	b.w	84c66 <_dtoa_r+0x3e2>
   856be:	2a00      	cmp	r2, #0
   856c0:	960b      	str	r6, [sp, #44]	; 0x2c
   856c2:	46cc      	mov	ip, r9
   856c4:	463e      	mov	r6, r7
   856c6:	9f05      	ldr	r7, [sp, #20]
   856c8:	dd12      	ble.n	856f0 <_dtoa_r+0xe6c>
   856ca:	990b      	ldr	r1, [sp, #44]	; 0x2c
   856cc:	2201      	movs	r2, #1
   856ce:	4620      	mov	r0, r4
   856d0:	f8cd 9008 	str.w	r9, [sp, #8]
   856d4:	f001 fa72 	bl	86bbc <__lshift>
   856d8:	4631      	mov	r1, r6
   856da:	900b      	str	r0, [sp, #44]	; 0x2c
   856dc:	f001 faca 	bl	86c74 <__mcmp>
   856e0:	f8dd c008 	ldr.w	ip, [sp, #8]
   856e4:	2800      	cmp	r0, #0
   856e6:	dd77      	ble.n	857d8 <_dtoa_r+0xf54>
   856e8:	2f39      	cmp	r7, #57	; 0x39
   856ea:	d062      	beq.n	857b2 <_dtoa_r+0xf2e>
   856ec:	f10a 0731 	add.w	r7, sl, #49	; 0x31
   856f0:	9b06      	ldr	r3, [sp, #24]
   856f2:	4645      	mov	r5, r8
   856f4:	f8dd 9020 	ldr.w	r9, [sp, #32]
   856f8:	46e0      	mov	r8, ip
   856fa:	1c58      	adds	r0, r3, #1
   856fc:	701f      	strb	r7, [r3, #0]
   856fe:	9008      	str	r0, [sp, #32]
   85700:	f7ff bb60 	b.w	84dc4 <_dtoa_r+0x540>
   85704:	d102      	bne.n	8570c <_dtoa_r+0xe88>
   85706:	07fb      	lsls	r3, r7, #31
   85708:	f53f ad8d 	bmi.w	85226 <_dtoa_r+0x9a2>
   8570c:	465b      	mov	r3, fp
   8570e:	f10b 3bff 	add.w	fp, fp, #4294967295	; 0xffffffff
   85712:	f813 2c01 	ldrb.w	r2, [r3, #-1]
   85716:	2a30      	cmp	r2, #48	; 0x30
   85718:	d0f8      	beq.n	8570c <_dtoa_r+0xe88>
   8571a:	f8dd 9020 	ldr.w	r9, [sp, #32]
   8571e:	9308      	str	r3, [sp, #32]
   85720:	f7ff bb50 	b.w	84dc4 <_dtoa_r+0x540>
   85724:	2600      	movs	r6, #0
   85726:	e541      	b.n	851ac <_dtoa_r+0x928>
   85728:	e9dd 0106 	ldrd	r0, r1, [sp, #24]
   8572c:	4632      	mov	r2, r6
   8572e:	463b      	mov	r3, r7
   85730:	f004 f878 	bl	89824 <__aeabi_dcmpeq>
   85734:	2800      	cmp	r0, #0
   85736:	f43f af42 	beq.w	855be <_dtoa_r+0xd3a>
   8573a:	f018 0f01 	tst.w	r8, #1
   8573e:	f8dd 9020 	ldr.w	r9, [sp, #32]
   85742:	f43f af3e 	beq.w	855c2 <_dtoa_r+0xd3e>
   85746:	f7ff ba81 	b.w	84c4c <_dtoa_r+0x3c8>
   8574a:	f8d8 1004 	ldr.w	r1, [r8, #4]
   8574e:	4620      	mov	r0, r4
   85750:	f001 f800 	bl	86754 <_Balloc>
   85754:	f8d8 3010 	ldr.w	r3, [r8, #16]
   85758:	f108 010c 	add.w	r1, r8, #12
   8575c:	1c9a      	adds	r2, r3, #2
   8575e:	0092      	lsls	r2, r2, #2
   85760:	4605      	mov	r5, r0
   85762:	300c      	adds	r0, #12
   85764:	f000 ff9e 	bl	866a4 <memcpy>
   85768:	4620      	mov	r0, r4
   8576a:	4629      	mov	r1, r5
   8576c:	2201      	movs	r2, #1
   8576e:	f001 fa25 	bl	86bbc <__lshift>
   85772:	4684      	mov	ip, r0
   85774:	e696      	b.n	854a4 <_dtoa_r+0xc20>
   85776:	9b18      	ldr	r3, [sp, #96]	; 0x60
   85778:	9e0c      	ldr	r6, [sp, #48]	; 0x30
   8577a:	9d0a      	ldr	r5, [sp, #40]	; 0x28
   8577c:	f1c3 0336 	rsb	r3, r3, #54	; 0x36
   85780:	f7ff bb91 	b.w	84ea6 <_dtoa_r+0x622>
   85784:	960b      	str	r6, [sp, #44]	; 0x2c
   85786:	463e      	mov	r6, r7
   85788:	9f05      	ldr	r7, [sp, #20]
   8578a:	46cc      	mov	ip, r9
   8578c:	2f39      	cmp	r7, #57	; 0x39
   8578e:	d010      	beq.n	857b2 <_dtoa_r+0xf2e>
   85790:	9b06      	ldr	r3, [sp, #24]
   85792:	3701      	adds	r7, #1
   85794:	f8dd 9020 	ldr.w	r9, [sp, #32]
   85798:	4645      	mov	r5, r8
   8579a:	1c58      	adds	r0, r3, #1
   8579c:	46e0      	mov	r8, ip
   8579e:	701f      	strb	r7, [r3, #0]
   857a0:	9008      	str	r0, [sp, #32]
   857a2:	f7ff bb0f 	b.w	84dc4 <_dtoa_r+0x540>
   857a6:	960b      	str	r6, [sp, #44]	; 0x2c
   857a8:	4645      	mov	r5, r8
   857aa:	463e      	mov	r6, r7
   857ac:	46c8      	mov	r8, r9
   857ae:	9f05      	ldr	r7, [sp, #20]
   857b0:	e52d      	b.n	8520e <_dtoa_r+0x98a>
   857b2:	9b06      	ldr	r3, [sp, #24]
   857b4:	2239      	movs	r2, #57	; 0x39
   857b6:	4645      	mov	r5, r8
   857b8:	9908      	ldr	r1, [sp, #32]
   857ba:	46e0      	mov	r8, ip
   857bc:	f103 0b01 	add.w	fp, r3, #1
   857c0:	701a      	strb	r2, [r3, #0]
   857c2:	e53a      	b.n	8523a <_dtoa_r+0x9b6>
   857c4:	960b      	str	r6, [sp, #44]	; 0x2c
   857c6:	463e      	mov	r6, r7
   857c8:	9f05      	ldr	r7, [sp, #20]
   857ca:	46cc      	mov	ip, r9
   857cc:	2f39      	cmp	r7, #57	; 0x39
   857ce:	d0f0      	beq.n	857b2 <_dtoa_r+0xf2e>
   857d0:	f1bb 0f00 	cmp.w	fp, #0
   857d4:	dc8a      	bgt.n	856ec <_dtoa_r+0xe68>
   857d6:	e78b      	b.n	856f0 <_dtoa_r+0xe6c>
   857d8:	d18a      	bne.n	856f0 <_dtoa_r+0xe6c>
   857da:	07fa      	lsls	r2, r7, #31
   857dc:	d588      	bpl.n	856f0 <_dtoa_r+0xe6c>
   857de:	e783      	b.n	856e8 <_dtoa_r+0xe64>
   857e0:	f04f 0802 	mov.w	r8, #2
   857e4:	f7ff bbdd 	b.w	84fa2 <_dtoa_r+0x71e>
   857e8:	9e16      	ldr	r6, [sp, #88]	; 0x58
   857ea:	f8dd 9020 	ldr.w	r9, [sp, #32]
   857ee:	9508      	str	r5, [sp, #32]
   857f0:	9604      	str	r6, [sp, #16]
   857f2:	f7ff baf7 	b.w	84de4 <_dtoa_r+0x560>
   857f6:	9a14      	ldr	r2, [sp, #80]	; 0x50
   857f8:	9209      	str	r2, [sp, #36]	; 0x24
   857fa:	f7ff bac5 	b.w	84d88 <_dtoa_r+0x504>
   857fe:	9309      	str	r3, [sp, #36]	; 0x24
   85800:	f7ff bac2 	b.w	84d88 <_dtoa_r+0x504>
   85804:	f43f aa9f 	beq.w	84d46 <_dtoa_r+0x4c2>
   85808:	f1c3 033c 	rsb	r3, r3, #60	; 0x3c
   8580c:	e521      	b.n	85252 <_dtoa_r+0x9ce>
   8580e:	bf00      	nop

00085810 <__sflush_r>:
   85810:	898b      	ldrh	r3, [r1, #12]
   85812:	e92d 41f0 	stmdb	sp!, {r4, r5, r6, r7, r8, lr}
   85816:	071a      	lsls	r2, r3, #28
   85818:	460d      	mov	r5, r1
   8581a:	4680      	mov	r8, r0
   8581c:	d43c      	bmi.n	85898 <__sflush_r+0x88>
   8581e:	684a      	ldr	r2, [r1, #4]
   85820:	f443 6300 	orr.w	r3, r3, #2048	; 0x800
   85824:	818b      	strh	r3, [r1, #12]
   85826:	2a00      	cmp	r2, #0
   85828:	dd5b      	ble.n	858e2 <__sflush_r+0xd2>
   8582a:	6aec      	ldr	r4, [r5, #44]	; 0x2c
   8582c:	2c00      	cmp	r4, #0
   8582e:	d04d      	beq.n	858cc <__sflush_r+0xbc>
   85830:	b29b      	uxth	r3, r3
   85832:	f8d8 7000 	ldr.w	r7, [r8]
   85836:	f403 5680 	and.w	r6, r3, #4096	; 0x1000
   8583a:	2200      	movs	r2, #0
   8583c:	f8c8 2000 	str.w	r2, [r8]
   85840:	b2b6      	uxth	r6, r6
   85842:	2e00      	cmp	r6, #0
   85844:	d051      	beq.n	858ea <__sflush_r+0xda>
   85846:	6d6a      	ldr	r2, [r5, #84]	; 0x54
   85848:	075e      	lsls	r6, r3, #29
   8584a:	d505      	bpl.n	85858 <__sflush_r+0x48>
   8584c:	6869      	ldr	r1, [r5, #4]
   8584e:	6b6b      	ldr	r3, [r5, #52]	; 0x34
   85850:	1a52      	subs	r2, r2, r1
   85852:	b10b      	cbz	r3, 85858 <__sflush_r+0x48>
   85854:	6c2b      	ldr	r3, [r5, #64]	; 0x40
   85856:	1ad2      	subs	r2, r2, r3
   85858:	4640      	mov	r0, r8
   8585a:	6a29      	ldr	r1, [r5, #32]
   8585c:	2300      	movs	r3, #0
   8585e:	47a0      	blx	r4
   85860:	1c44      	adds	r4, r0, #1
   85862:	d04d      	beq.n	85900 <__sflush_r+0xf0>
   85864:	89ab      	ldrh	r3, [r5, #12]
   85866:	2100      	movs	r1, #0
   85868:	692a      	ldr	r2, [r5, #16]
   8586a:	f423 6300 	bic.w	r3, r3, #2048	; 0x800
   8586e:	6069      	str	r1, [r5, #4]
   85870:	b29b      	uxth	r3, r3
   85872:	602a      	str	r2, [r5, #0]
   85874:	04da      	lsls	r2, r3, #19
   85876:	81ab      	strh	r3, [r5, #12]
   85878:	d44f      	bmi.n	8591a <__sflush_r+0x10a>
   8587a:	6b69      	ldr	r1, [r5, #52]	; 0x34
   8587c:	f8c8 7000 	str.w	r7, [r8]
   85880:	b321      	cbz	r1, 858cc <__sflush_r+0xbc>
   85882:	f105 0344 	add.w	r3, r5, #68	; 0x44
   85886:	4299      	cmp	r1, r3
   85888:	d002      	beq.n	85890 <__sflush_r+0x80>
   8588a:	4640      	mov	r0, r8
   8588c:	f000 fa22 	bl	85cd4 <_free_r>
   85890:	2000      	movs	r0, #0
   85892:	6368      	str	r0, [r5, #52]	; 0x34
   85894:	e8bd 81f0 	ldmia.w	sp!, {r4, r5, r6, r7, r8, pc}
   85898:	690e      	ldr	r6, [r1, #16]
   8589a:	b1be      	cbz	r6, 858cc <__sflush_r+0xbc>
   8589c:	680c      	ldr	r4, [r1, #0]
   8589e:	600e      	str	r6, [r1, #0]
   858a0:	0799      	lsls	r1, r3, #30
   858a2:	bf18      	it	ne
   858a4:	2300      	movne	r3, #0
   858a6:	ebc6 0404 	rsb	r4, r6, r4
   858aa:	bf08      	it	eq
   858ac:	696b      	ldreq	r3, [r5, #20]
   858ae:	60ab      	str	r3, [r5, #8]
   858b0:	e00a      	b.n	858c8 <__sflush_r+0xb8>
   858b2:	4632      	mov	r2, r6
   858b4:	4623      	mov	r3, r4
   858b6:	6aaf      	ldr	r7, [r5, #40]	; 0x28
   858b8:	4640      	mov	r0, r8
   858ba:	6a29      	ldr	r1, [r5, #32]
   858bc:	47b8      	blx	r7
   858be:	2800      	cmp	r0, #0
   858c0:	ebc0 0404 	rsb	r4, r0, r4
   858c4:	4406      	add	r6, r0
   858c6:	dd04      	ble.n	858d2 <__sflush_r+0xc2>
   858c8:	2c00      	cmp	r4, #0
   858ca:	dcf2      	bgt.n	858b2 <__sflush_r+0xa2>
   858cc:	2000      	movs	r0, #0
   858ce:	e8bd 81f0 	ldmia.w	sp!, {r4, r5, r6, r7, r8, pc}
   858d2:	89ab      	ldrh	r3, [r5, #12]
   858d4:	f04f 30ff 	mov.w	r0, #4294967295	; 0xffffffff
   858d8:	f043 0340 	orr.w	r3, r3, #64	; 0x40
   858dc:	81ab      	strh	r3, [r5, #12]
   858de:	e8bd 81f0 	ldmia.w	sp!, {r4, r5, r6, r7, r8, pc}
   858e2:	6c0a      	ldr	r2, [r1, #64]	; 0x40
   858e4:	2a00      	cmp	r2, #0
   858e6:	dca0      	bgt.n	8582a <__sflush_r+0x1a>
   858e8:	e7f0      	b.n	858cc <__sflush_r+0xbc>
   858ea:	4632      	mov	r2, r6
   858ec:	2301      	movs	r3, #1
   858ee:	4640      	mov	r0, r8
   858f0:	6a29      	ldr	r1, [r5, #32]
   858f2:	47a0      	blx	r4
   858f4:	1c43      	adds	r3, r0, #1
   858f6:	4602      	mov	r2, r0
   858f8:	d01e      	beq.n	85938 <__sflush_r+0x128>
   858fa:	89ab      	ldrh	r3, [r5, #12]
   858fc:	6aec      	ldr	r4, [r5, #44]	; 0x2c
   858fe:	e7a3      	b.n	85848 <__sflush_r+0x38>
   85900:	f8d8 3000 	ldr.w	r3, [r8]
   85904:	b95b      	cbnz	r3, 8591e <__sflush_r+0x10e>
   85906:	89a9      	ldrh	r1, [r5, #12]
   85908:	692a      	ldr	r2, [r5, #16]
   8590a:	f421 6100 	bic.w	r1, r1, #2048	; 0x800
   8590e:	606b      	str	r3, [r5, #4]
   85910:	b28b      	uxth	r3, r1
   85912:	81ab      	strh	r3, [r5, #12]
   85914:	04db      	lsls	r3, r3, #19
   85916:	602a      	str	r2, [r5, #0]
   85918:	d5af      	bpl.n	8587a <__sflush_r+0x6a>
   8591a:	6568      	str	r0, [r5, #84]	; 0x54
   8591c:	e7ad      	b.n	8587a <__sflush_r+0x6a>
   8591e:	2b1d      	cmp	r3, #29
   85920:	d001      	beq.n	85926 <__sflush_r+0x116>
   85922:	2b16      	cmp	r3, #22
   85924:	d115      	bne.n	85952 <__sflush_r+0x142>
   85926:	692b      	ldr	r3, [r5, #16]
   85928:	2100      	movs	r1, #0
   8592a:	89aa      	ldrh	r2, [r5, #12]
   8592c:	6069      	str	r1, [r5, #4]
   8592e:	f422 6200 	bic.w	r2, r2, #2048	; 0x800
   85932:	602b      	str	r3, [r5, #0]
   85934:	81aa      	strh	r2, [r5, #12]
   85936:	e7a0      	b.n	8587a <__sflush_r+0x6a>
   85938:	f8d8 3000 	ldr.w	r3, [r8]
   8593c:	2b00      	cmp	r3, #0
   8593e:	d0dc      	beq.n	858fa <__sflush_r+0xea>
   85940:	2b1d      	cmp	r3, #29
   85942:	bf18      	it	ne
   85944:	2b16      	cmpne	r3, #22
   85946:	d1c4      	bne.n	858d2 <__sflush_r+0xc2>
   85948:	f8c8 7000 	str.w	r7, [r8]
   8594c:	4630      	mov	r0, r6
   8594e:	e8bd 81f0 	ldmia.w	sp!, {r4, r5, r6, r7, r8, pc}
   85952:	89ab      	ldrh	r3, [r5, #12]
   85954:	f043 0340 	orr.w	r3, r3, #64	; 0x40
   85958:	81ab      	strh	r3, [r5, #12]
   8595a:	e8bd 81f0 	ldmia.w	sp!, {r4, r5, r6, r7, r8, pc}
   8595e:	bf00      	nop

00085960 <_fflush_r>:
   85960:	690b      	ldr	r3, [r1, #16]
   85962:	b510      	push	{r4, lr}
   85964:	4604      	mov	r4, r0
   85966:	b082      	sub	sp, #8
   85968:	b1e3      	cbz	r3, 859a4 <_fflush_r+0x44>
   8596a:	b108      	cbz	r0, 85970 <_fflush_r+0x10>
   8596c:	6983      	ldr	r3, [r0, #24]
   8596e:	b313      	cbz	r3, 859b6 <_fflush_r+0x56>
   85970:	f24a 13a0 	movw	r3, #41376	; 0xa1a0
   85974:	f2c0 0308 	movt	r3, #8
   85978:	4299      	cmp	r1, r3
   8597a:	bf08      	it	eq
   8597c:	6861      	ldreq	r1, [r4, #4]
   8597e:	d00e      	beq.n	8599e <_fflush_r+0x3e>
   85980:	f24a 1380 	movw	r3, #41344	; 0xa180
   85984:	f2c0 0308 	movt	r3, #8
   85988:	4299      	cmp	r1, r3
   8598a:	bf08      	it	eq
   8598c:	68a1      	ldreq	r1, [r4, #8]
   8598e:	d006      	beq.n	8599e <_fflush_r+0x3e>
   85990:	f24a 1360 	movw	r3, #41312	; 0xa160
   85994:	f2c0 0308 	movt	r3, #8
   85998:	4299      	cmp	r1, r3
   8599a:	bf08      	it	eq
   8599c:	68e1      	ldreq	r1, [r4, #12]
   8599e:	f9b1 300c 	ldrsh.w	r3, [r1, #12]
   859a2:	b913      	cbnz	r3, 859aa <_fflush_r+0x4a>
   859a4:	2000      	movs	r0, #0
   859a6:	b002      	add	sp, #8
   859a8:	bd10      	pop	{r4, pc}
   859aa:	4620      	mov	r0, r4
   859ac:	b002      	add	sp, #8
   859ae:	e8bd 4010 	ldmia.w	sp!, {r4, lr}
   859b2:	f7ff bf2d 	b.w	85810 <__sflush_r>
   859b6:	9101      	str	r1, [sp, #4]
   859b8:	f000 f844 	bl	85a44 <__sinit>
   859bc:	9901      	ldr	r1, [sp, #4]
   859be:	e7d7      	b.n	85970 <_fflush_r+0x10>

000859c0 <fflush>:
   859c0:	b138      	cbz	r0, 859d2 <fflush+0x12>
   859c2:	f240 0304 	movw	r3, #4
   859c6:	4601      	mov	r1, r0
   859c8:	f2c2 0307 	movt	r3, #8199	; 0x2007
   859cc:	6818      	ldr	r0, [r3, #0]
   859ce:	f7ff bfc7 	b.w	85960 <_fflush_r>
   859d2:	f24a 03c8 	movw	r3, #41160	; 0xa0c8
   859d6:	f645 1161 	movw	r1, #22881	; 0x5961
   859da:	f2c0 0308 	movt	r3, #8
   859de:	f2c0 0108 	movt	r1, #8
   859e2:	6818      	ldr	r0, [r3, #0]
   859e4:	f000 ba66 	b.w	85eb4 <_fwalk_reent>

000859e8 <__fp_lock>:
   859e8:	2000      	movs	r0, #0
   859ea:	4770      	bx	lr

000859ec <__fp_unlock>:
   859ec:	2000      	movs	r0, #0
   859ee:	4770      	bx	lr

000859f0 <_cleanup_r>:
   859f0:	f248 4149 	movw	r1, #33865	; 0x8449
   859f4:	f2c0 0108 	movt	r1, #8
   859f8:	f000 ba38 	b.w	85e6c <_fwalk>

000859fc <__sfmoreglue>:
   859fc:	b570      	push	{r4, r5, r6, lr}
   859fe:	1e4b      	subs	r3, r1, #1
   85a00:	2568      	movs	r5, #104	; 0x68
   85a02:	460e      	mov	r6, r1
   85a04:	fb05 f503 	mul.w	r5, r5, r3
   85a08:	f105 0174 	add.w	r1, r5, #116	; 0x74
   85a0c:	f000 fb4a 	bl	860a4 <_malloc_r>
   85a10:	4604      	mov	r4, r0
   85a12:	b140      	cbz	r0, 85a26 <__sfmoreglue+0x2a>
   85a14:	2100      	movs	r1, #0
   85a16:	300c      	adds	r0, #12
   85a18:	6066      	str	r6, [r4, #4]
   85a1a:	f105 0268 	add.w	r2, r5, #104	; 0x68
   85a1e:	6021      	str	r1, [r4, #0]
   85a20:	60a0      	str	r0, [r4, #8]
   85a22:	f7fd f943 	bl	82cac <memset>
   85a26:	4620      	mov	r0, r4
   85a28:	bd70      	pop	{r4, r5, r6, pc}
   85a2a:	bf00      	nop

00085a2c <_cleanup>:
   85a2c:	f24a 03c8 	movw	r3, #41160	; 0xa0c8
   85a30:	f248 4149 	movw	r1, #33865	; 0x8449
   85a34:	f2c0 0308 	movt	r3, #8
   85a38:	f2c0 0108 	movt	r1, #8
   85a3c:	6818      	ldr	r0, [r3, #0]
   85a3e:	f000 ba15 	b.w	85e6c <_fwalk>
   85a42:	bf00      	nop

00085a44 <__sinit>:
   85a44:	e92d 4ff8 	stmdb	sp!, {r3, r4, r5, r6, r7, r8, r9, sl, fp, lr}
   85a48:	4605      	mov	r5, r0
   85a4a:	6983      	ldr	r3, [r0, #24]
   85a4c:	2b00      	cmp	r3, #0
   85a4e:	f040 8089 	bne.w	85b64 <__sinit+0x120>
   85a52:	f24a 01c8 	movw	r1, #41160	; 0xa0c8
   85a56:	f645 12f1 	movw	r2, #23025	; 0x59f1
   85a5a:	f2c0 0108 	movt	r1, #8
   85a5e:	f8c0 30d8 	str.w	r3, [r0, #216]	; 0xd8
   85a62:	f8c0 30dc 	str.w	r3, [r0, #220]	; 0xdc
   85a66:	f2c0 0208 	movt	r2, #8
   85a6a:	6809      	ldr	r1, [r1, #0]
   85a6c:	2400      	movs	r4, #0
   85a6e:	f8c0 30e0 	str.w	r3, [r0, #224]	; 0xe0
   85a72:	2704      	movs	r7, #4
   85a74:	4288      	cmp	r0, r1
   85a76:	6282      	str	r2, [r0, #40]	; 0x28
   85a78:	bf04      	itt	eq
   85a7a:	2301      	moveq	r3, #1
   85a7c:	6183      	streq	r3, [r0, #24]
   85a7e:	f000 f873 	bl	85b68 <__sfp>
   85a82:	f247 1b05 	movw	fp, #28933	; 0x7105
   85a86:	f247 1a2d 	movw	sl, #28973	; 0x712d
   85a8a:	f247 1965 	movw	r9, #29029	; 0x7165
   85a8e:	f247 1885 	movw	r8, #29061	; 0x7185
   85a92:	f2c0 0b08 	movt	fp, #8
   85a96:	f2c0 0a08 	movt	sl, #8
   85a9a:	f2c0 0908 	movt	r9, #8
   85a9e:	f2c0 0808 	movt	r8, #8
   85aa2:	6068      	str	r0, [r5, #4]
   85aa4:	4628      	mov	r0, r5
   85aa6:	f000 f85f 	bl	85b68 <__sfp>
   85aaa:	60a8      	str	r0, [r5, #8]
   85aac:	4628      	mov	r0, r5
   85aae:	f000 f85b 	bl	85b68 <__sfp>
   85ab2:	686e      	ldr	r6, [r5, #4]
   85ab4:	4621      	mov	r1, r4
   85ab6:	2208      	movs	r2, #8
   85ab8:	60e8      	str	r0, [r5, #12]
   85aba:	f106 005c 	add.w	r0, r6, #92	; 0x5c
   85abe:	81b7      	strh	r7, [r6, #12]
   85ac0:	6034      	str	r4, [r6, #0]
   85ac2:	6074      	str	r4, [r6, #4]
   85ac4:	60b4      	str	r4, [r6, #8]
   85ac6:	6674      	str	r4, [r6, #100]	; 0x64
   85ac8:	81f4      	strh	r4, [r6, #14]
   85aca:	6134      	str	r4, [r6, #16]
   85acc:	6174      	str	r4, [r6, #20]
   85ace:	61b4      	str	r4, [r6, #24]
   85ad0:	f7fd f8ec 	bl	82cac <memset>
   85ad4:	68af      	ldr	r7, [r5, #8]
   85ad6:	f04f 0301 	mov.w	r3, #1
   85ada:	6236      	str	r6, [r6, #32]
   85adc:	f8c6 b024 	str.w	fp, [r6, #36]	; 0x24
   85ae0:	f04f 0e09 	mov.w	lr, #9
   85ae4:	f8c6 a028 	str.w	sl, [r6, #40]	; 0x28
   85ae8:	4621      	mov	r1, r4
   85aea:	f8c6 902c 	str.w	r9, [r6, #44]	; 0x2c
   85aee:	2208      	movs	r2, #8
   85af0:	f8c6 8030 	str.w	r8, [r6, #48]	; 0x30
   85af4:	f107 005c 	add.w	r0, r7, #92	; 0x5c
   85af8:	81fb      	strh	r3, [r7, #14]
   85afa:	f8a7 e00c 	strh.w	lr, [r7, #12]
   85afe:	603c      	str	r4, [r7, #0]
   85b00:	607c      	str	r4, [r7, #4]
   85b02:	60bc      	str	r4, [r7, #8]
   85b04:	667c      	str	r4, [r7, #100]	; 0x64
   85b06:	613c      	str	r4, [r7, #16]
   85b08:	617c      	str	r4, [r7, #20]
   85b0a:	61bc      	str	r4, [r7, #24]
   85b0c:	f7fd f8ce 	bl	82cac <memset>
   85b10:	68ee      	ldr	r6, [r5, #12]
   85b12:	f04f 0c12 	mov.w	ip, #18
   85b16:	f8c7 b024 	str.w	fp, [r7, #36]	; 0x24
   85b1a:	f8c7 a028 	str.w	sl, [r7, #40]	; 0x28
   85b1e:	f04f 0e02 	mov.w	lr, #2
   85b22:	f8c7 902c 	str.w	r9, [r7, #44]	; 0x2c
   85b26:	4621      	mov	r1, r4
   85b28:	f8c7 8030 	str.w	r8, [r7, #48]	; 0x30
   85b2c:	f106 005c 	add.w	r0, r6, #92	; 0x5c
   85b30:	623f      	str	r7, [r7, #32]
   85b32:	2208      	movs	r2, #8
   85b34:	6034      	str	r4, [r6, #0]
   85b36:	6074      	str	r4, [r6, #4]
   85b38:	60b4      	str	r4, [r6, #8]
   85b3a:	6674      	str	r4, [r6, #100]	; 0x64
   85b3c:	6134      	str	r4, [r6, #16]
   85b3e:	6174      	str	r4, [r6, #20]
   85b40:	61b4      	str	r4, [r6, #24]
   85b42:	f8a6 c00c 	strh.w	ip, [r6, #12]
   85b46:	f8a6 e00e 	strh.w	lr, [r6, #14]
   85b4a:	f7fd f8af 	bl	82cac <memset>
   85b4e:	f8c6 b024 	str.w	fp, [r6, #36]	; 0x24
   85b52:	f8c6 a028 	str.w	sl, [r6, #40]	; 0x28
   85b56:	2301      	movs	r3, #1
   85b58:	f8c6 902c 	str.w	r9, [r6, #44]	; 0x2c
   85b5c:	f8c6 8030 	str.w	r8, [r6, #48]	; 0x30
   85b60:	6236      	str	r6, [r6, #32]
   85b62:	61ab      	str	r3, [r5, #24]
   85b64:	e8bd 8ff8 	ldmia.w	sp!, {r3, r4, r5, r6, r7, r8, r9, sl, fp, pc}

00085b68 <__sfp>:
   85b68:	f24a 03c8 	movw	r3, #41160	; 0xa0c8
   85b6c:	f2c0 0308 	movt	r3, #8
   85b70:	b570      	push	{r4, r5, r6, lr}
   85b72:	4606      	mov	r6, r0
   85b74:	681d      	ldr	r5, [r3, #0]
   85b76:	69ab      	ldr	r3, [r5, #24]
   85b78:	2b00      	cmp	r3, #0
   85b7a:	d02a      	beq.n	85bd2 <__sfp+0x6a>
   85b7c:	35d8      	adds	r5, #216	; 0xd8
   85b7e:	686b      	ldr	r3, [r5, #4]
   85b80:	68ac      	ldr	r4, [r5, #8]
   85b82:	3b01      	subs	r3, #1
   85b84:	d504      	bpl.n	85b90 <__sfp+0x28>
   85b86:	e020      	b.n	85bca <__sfp+0x62>
   85b88:	3b01      	subs	r3, #1
   85b8a:	3468      	adds	r4, #104	; 0x68
   85b8c:	1c5a      	adds	r2, r3, #1
   85b8e:	d01c      	beq.n	85bca <__sfp+0x62>
   85b90:	f9b4 200c 	ldrsh.w	r2, [r4, #12]
   85b94:	2a00      	cmp	r2, #0
   85b96:	d1f7      	bne.n	85b88 <__sfp+0x20>
   85b98:	2500      	movs	r5, #0
   85b9a:	2301      	movs	r3, #1
   85b9c:	f64f 76ff 	movw	r6, #65535	; 0xffff
   85ba0:	6665      	str	r5, [r4, #100]	; 0x64
   85ba2:	4629      	mov	r1, r5
   85ba4:	6025      	str	r5, [r4, #0]
   85ba6:	60a5      	str	r5, [r4, #8]
   85ba8:	f104 005c 	add.w	r0, r4, #92	; 0x5c
   85bac:	6065      	str	r5, [r4, #4]
   85bae:	2208      	movs	r2, #8
   85bb0:	6125      	str	r5, [r4, #16]
   85bb2:	6165      	str	r5, [r4, #20]
   85bb4:	61a5      	str	r5, [r4, #24]
   85bb6:	81e6      	strh	r6, [r4, #14]
   85bb8:	81a3      	strh	r3, [r4, #12]
   85bba:	f7fd f877 	bl	82cac <memset>
   85bbe:	4620      	mov	r0, r4
   85bc0:	6365      	str	r5, [r4, #52]	; 0x34
   85bc2:	63a5      	str	r5, [r4, #56]	; 0x38
   85bc4:	64a5      	str	r5, [r4, #72]	; 0x48
   85bc6:	64e5      	str	r5, [r4, #76]	; 0x4c
   85bc8:	bd70      	pop	{r4, r5, r6, pc}
   85bca:	682b      	ldr	r3, [r5, #0]
   85bcc:	b12b      	cbz	r3, 85bda <__sfp+0x72>
   85bce:	461d      	mov	r5, r3
   85bd0:	e7d5      	b.n	85b7e <__sfp+0x16>
   85bd2:	4628      	mov	r0, r5
   85bd4:	f7ff ff36 	bl	85a44 <__sinit>
   85bd8:	e7d0      	b.n	85b7c <__sfp+0x14>
   85bda:	4630      	mov	r0, r6
   85bdc:	2104      	movs	r1, #4
   85bde:	f7ff ff0d 	bl	859fc <__sfmoreglue>
   85be2:	6028      	str	r0, [r5, #0]
   85be4:	b108      	cbz	r0, 85bea <__sfp+0x82>
   85be6:	4605      	mov	r5, r0
   85be8:	e7c9      	b.n	85b7e <__sfp+0x16>
   85bea:	220c      	movs	r2, #12
   85bec:	6032      	str	r2, [r6, #0]
   85bee:	bd70      	pop	{r4, r5, r6, pc}

00085bf0 <__sfp_lock_acquire>:
   85bf0:	4770      	bx	lr
   85bf2:	bf00      	nop

00085bf4 <__sfp_lock_release>:
   85bf4:	4770      	bx	lr
   85bf6:	bf00      	nop

00085bf8 <__sinit_lock_acquire>:
   85bf8:	4770      	bx	lr
   85bfa:	bf00      	nop

00085bfc <__sinit_lock_release>:
   85bfc:	4770      	bx	lr
   85bfe:	bf00      	nop

00085c00 <__fp_lock_all>:
   85c00:	f240 0304 	movw	r3, #4
   85c04:	f645 11e9 	movw	r1, #23017	; 0x59e9
   85c08:	f2c2 0307 	movt	r3, #8199	; 0x2007
   85c0c:	f2c0 0108 	movt	r1, #8
   85c10:	6818      	ldr	r0, [r3, #0]
   85c12:	f000 b92b 	b.w	85e6c <_fwalk>
   85c16:	bf00      	nop

00085c18 <__fp_unlock_all>:
   85c18:	f240 0304 	movw	r3, #4
   85c1c:	f645 11ed 	movw	r1, #23021	; 0x59ed
   85c20:	f2c2 0307 	movt	r3, #8199	; 0x2007
   85c24:	f2c0 0108 	movt	r1, #8
   85c28:	6818      	ldr	r0, [r3, #0]
   85c2a:	f000 b91f 	b.w	85e6c <_fwalk>
   85c2e:	bf00      	nop

00085c30 <_malloc_trim_r>:
   85c30:	b5f8      	push	{r3, r4, r5, r6, r7, lr}
   85c32:	f240 1474 	movw	r4, #372	; 0x174
   85c36:	f2c2 0407 	movt	r4, #8199	; 0x2007
   85c3a:	460f      	mov	r7, r1
   85c3c:	4605      	mov	r5, r0
   85c3e:	f000 fd85 	bl	8674c <__malloc_lock>
   85c42:	68a3      	ldr	r3, [r4, #8]
   85c44:	685e      	ldr	r6, [r3, #4]
   85c46:	f026 0603 	bic.w	r6, r6, #3
   85c4a:	1bf7      	subs	r7, r6, r7
   85c4c:	f607 77ef 	addw	r7, r7, #4079	; 0xfef
   85c50:	0b3f      	lsrs	r7, r7, #12
   85c52:	3f01      	subs	r7, #1
   85c54:	033f      	lsls	r7, r7, #12
   85c56:	f5b7 5f80 	cmp.w	r7, #4096	; 0x1000
   85c5a:	db07      	blt.n	85c6c <_malloc_trim_r+0x3c>
   85c5c:	4628      	mov	r0, r5
   85c5e:	2100      	movs	r1, #0
   85c60:	f001 fa3c 	bl	870dc <_sbrk_r>
   85c64:	68a3      	ldr	r3, [r4, #8]
   85c66:	4433      	add	r3, r6
   85c68:	4298      	cmp	r0, r3
   85c6a:	d004      	beq.n	85c76 <_malloc_trim_r+0x46>
   85c6c:	4628      	mov	r0, r5
   85c6e:	f000 fd6f 	bl	86750 <__malloc_unlock>
   85c72:	2000      	movs	r0, #0
   85c74:	bdf8      	pop	{r3, r4, r5, r6, r7, pc}
   85c76:	4628      	mov	r0, r5
   85c78:	4279      	negs	r1, r7
   85c7a:	f001 fa2f 	bl	870dc <_sbrk_r>
   85c7e:	3001      	adds	r0, #1
   85c80:	d010      	beq.n	85ca4 <_malloc_trim_r+0x74>
   85c82:	f240 53ac 	movw	r3, #1452	; 0x5ac
   85c86:	68a1      	ldr	r1, [r4, #8]
   85c88:	f2c2 0307 	movt	r3, #8199	; 0x2007
   85c8c:	1bf6      	subs	r6, r6, r7
   85c8e:	4628      	mov	r0, r5
   85c90:	f046 0601 	orr.w	r6, r6, #1
   85c94:	681a      	ldr	r2, [r3, #0]
   85c96:	604e      	str	r6, [r1, #4]
   85c98:	1bd7      	subs	r7, r2, r7
   85c9a:	601f      	str	r7, [r3, #0]
   85c9c:	f000 fd58 	bl	86750 <__malloc_unlock>
   85ca0:	2001      	movs	r0, #1
   85ca2:	bdf8      	pop	{r3, r4, r5, r6, r7, pc}
   85ca4:	4628      	mov	r0, r5
   85ca6:	2100      	movs	r1, #0
   85ca8:	f001 fa18 	bl	870dc <_sbrk_r>
   85cac:	68a3      	ldr	r3, [r4, #8]
   85cae:	1ac2      	subs	r2, r0, r3
   85cb0:	2a0f      	cmp	r2, #15
   85cb2:	dddb      	ble.n	85c6c <_malloc_trim_r+0x3c>
   85cb4:	f240 547c 	movw	r4, #1404	; 0x57c
   85cb8:	f240 51ac 	movw	r1, #1452	; 0x5ac
   85cbc:	f2c2 0407 	movt	r4, #8199	; 0x2007
   85cc0:	f2c2 0107 	movt	r1, #8199	; 0x2007
   85cc4:	f042 0201 	orr.w	r2, r2, #1
   85cc8:	605a      	str	r2, [r3, #4]
   85cca:	6823      	ldr	r3, [r4, #0]
   85ccc:	1ac0      	subs	r0, r0, r3
   85cce:	6008      	str	r0, [r1, #0]
   85cd0:	e7cc      	b.n	85c6c <_malloc_trim_r+0x3c>
   85cd2:	bf00      	nop

00085cd4 <_free_r>:
   85cd4:	e92d 41f0 	stmdb	sp!, {r4, r5, r6, r7, r8, lr}
   85cd8:	460e      	mov	r6, r1
   85cda:	4680      	mov	r8, r0
   85cdc:	2900      	cmp	r1, #0
   85cde:	d05e      	beq.n	85d9e <_free_r+0xca>
   85ce0:	f000 fd34 	bl	8674c <__malloc_lock>
   85ce4:	f240 1574 	movw	r5, #372	; 0x174
   85ce8:	f856 1c04 	ldr.w	r1, [r6, #-4]
   85cec:	f2c2 0507 	movt	r5, #8199	; 0x2007
   85cf0:	f1a6 0408 	sub.w	r4, r6, #8
   85cf4:	f021 0301 	bic.w	r3, r1, #1
   85cf8:	68af      	ldr	r7, [r5, #8]
   85cfa:	18e2      	adds	r2, r4, r3
   85cfc:	4297      	cmp	r7, r2
   85cfe:	6850      	ldr	r0, [r2, #4]
   85d00:	f020 0003 	bic.w	r0, r0, #3
   85d04:	d061      	beq.n	85dca <_free_r+0xf6>
   85d06:	f011 0101 	ands.w	r1, r1, #1
   85d0a:	6050      	str	r0, [r2, #4]
   85d0c:	bf18      	it	ne
   85d0e:	2100      	movne	r1, #0
   85d10:	d10f      	bne.n	85d32 <_free_r+0x5e>
   85d12:	f856 6c08 	ldr.w	r6, [r6, #-8]
   85d16:	f105 0c08 	add.w	ip, r5, #8
   85d1a:	1ba4      	subs	r4, r4, r6
   85d1c:	4433      	add	r3, r6
   85d1e:	68a6      	ldr	r6, [r4, #8]
   85d20:	4566      	cmp	r6, ip
   85d22:	bf0f      	iteee	eq
   85d24:	2101      	moveq	r1, #1
   85d26:	f8d4 c00c 	ldrne.w	ip, [r4, #12]
   85d2a:	f8c6 c00c 	strne.w	ip, [r6, #12]
   85d2e:	f8cc 6008 	strne.w	r6, [ip, #8]
   85d32:	1816      	adds	r6, r2, r0
   85d34:	6876      	ldr	r6, [r6, #4]
   85d36:	07f6      	lsls	r6, r6, #31
   85d38:	d408      	bmi.n	85d4c <_free_r+0x78>
   85d3a:	4403      	add	r3, r0
   85d3c:	6890      	ldr	r0, [r2, #8]
   85d3e:	b911      	cbnz	r1, 85d46 <_free_r+0x72>
   85d40:	4e49      	ldr	r6, [pc, #292]	; (85e68 <_free_r+0x194>)
   85d42:	42b0      	cmp	r0, r6
   85d44:	d060      	beq.n	85e08 <_free_r+0x134>
   85d46:	68d2      	ldr	r2, [r2, #12]
   85d48:	60c2      	str	r2, [r0, #12]
   85d4a:	6090      	str	r0, [r2, #8]
   85d4c:	f043 0201 	orr.w	r2, r3, #1
   85d50:	6062      	str	r2, [r4, #4]
   85d52:	50e3      	str	r3, [r4, r3]
   85d54:	b9f1      	cbnz	r1, 85d94 <_free_r+0xc0>
   85d56:	f5b3 7f00 	cmp.w	r3, #512	; 0x200
   85d5a:	d322      	bcc.n	85da2 <_free_r+0xce>
   85d5c:	0a5a      	lsrs	r2, r3, #9
   85d5e:	2a04      	cmp	r2, #4
   85d60:	d85b      	bhi.n	85e1a <_free_r+0x146>
   85d62:	0998      	lsrs	r0, r3, #6
   85d64:	3038      	adds	r0, #56	; 0x38
   85d66:	0041      	lsls	r1, r0, #1
   85d68:	eb05 0581 	add.w	r5, r5, r1, lsl #2
   85d6c:	f240 1174 	movw	r1, #372	; 0x174
   85d70:	f2c2 0107 	movt	r1, #8199	; 0x2007
   85d74:	68aa      	ldr	r2, [r5, #8]
   85d76:	42aa      	cmp	r2, r5
   85d78:	d05b      	beq.n	85e32 <_free_r+0x15e>
   85d7a:	6851      	ldr	r1, [r2, #4]
   85d7c:	f021 0103 	bic.w	r1, r1, #3
   85d80:	428b      	cmp	r3, r1
   85d82:	d202      	bcs.n	85d8a <_free_r+0xb6>
   85d84:	6892      	ldr	r2, [r2, #8]
   85d86:	4295      	cmp	r5, r2
   85d88:	d1f7      	bne.n	85d7a <_free_r+0xa6>
   85d8a:	68d3      	ldr	r3, [r2, #12]
   85d8c:	60e3      	str	r3, [r4, #12]
   85d8e:	60a2      	str	r2, [r4, #8]
   85d90:	609c      	str	r4, [r3, #8]
   85d92:	60d4      	str	r4, [r2, #12]
   85d94:	4640      	mov	r0, r8
   85d96:	e8bd 41f0 	ldmia.w	sp!, {r4, r5, r6, r7, r8, lr}
   85d9a:	f000 bcd9 	b.w	86750 <__malloc_unlock>
   85d9e:	e8bd 81f0 	ldmia.w	sp!, {r4, r5, r6, r7, r8, pc}
   85da2:	08db      	lsrs	r3, r3, #3
   85da4:	2101      	movs	r1, #1
   85da6:	6868      	ldr	r0, [r5, #4]
   85da8:	eb05 02c3 	add.w	r2, r5, r3, lsl #3
   85dac:	109b      	asrs	r3, r3, #2
   85dae:	fa01 f303 	lsl.w	r3, r1, r3
   85db2:	6891      	ldr	r1, [r2, #8]
   85db4:	4318      	orrs	r0, r3
   85db6:	60e2      	str	r2, [r4, #12]
   85db8:	6068      	str	r0, [r5, #4]
   85dba:	4640      	mov	r0, r8
   85dbc:	60a1      	str	r1, [r4, #8]
   85dbe:	6094      	str	r4, [r2, #8]
   85dc0:	60cc      	str	r4, [r1, #12]
   85dc2:	e8bd 41f0 	ldmia.w	sp!, {r4, r5, r6, r7, r8, lr}
   85dc6:	f000 bcc3 	b.w	86750 <__malloc_unlock>
   85dca:	07cf      	lsls	r7, r1, #31
   85dcc:	4418      	add	r0, r3
   85dce:	d407      	bmi.n	85de0 <_free_r+0x10c>
   85dd0:	f856 3c08 	ldr.w	r3, [r6, #-8]
   85dd4:	1ae4      	subs	r4, r4, r3
   85dd6:	4418      	add	r0, r3
   85dd8:	68a2      	ldr	r2, [r4, #8]
   85dda:	68e3      	ldr	r3, [r4, #12]
   85ddc:	60d3      	str	r3, [r2, #12]
   85dde:	609a      	str	r2, [r3, #8]
   85de0:	f240 5280 	movw	r2, #1408	; 0x580
   85de4:	f040 0301 	orr.w	r3, r0, #1
   85de8:	f2c2 0207 	movt	r2, #8199	; 0x2007
   85dec:	6063      	str	r3, [r4, #4]
   85dee:	60ac      	str	r4, [r5, #8]
   85df0:	6813      	ldr	r3, [r2, #0]
   85df2:	4298      	cmp	r0, r3
   85df4:	d3ce      	bcc.n	85d94 <_free_r+0xc0>
   85df6:	f240 53a8 	movw	r3, #1448	; 0x5a8
   85dfa:	4640      	mov	r0, r8
   85dfc:	f2c2 0307 	movt	r3, #8199	; 0x2007
   85e00:	6819      	ldr	r1, [r3, #0]
   85e02:	f7ff ff15 	bl	85c30 <_malloc_trim_r>
   85e06:	e7c5      	b.n	85d94 <_free_r+0xc0>
   85e08:	616c      	str	r4, [r5, #20]
   85e0a:	f043 0201 	orr.w	r2, r3, #1
   85e0e:	612c      	str	r4, [r5, #16]
   85e10:	60e0      	str	r0, [r4, #12]
   85e12:	60a0      	str	r0, [r4, #8]
   85e14:	6062      	str	r2, [r4, #4]
   85e16:	50e3      	str	r3, [r4, r3]
   85e18:	e7bc      	b.n	85d94 <_free_r+0xc0>
   85e1a:	2a14      	cmp	r2, #20
   85e1c:	bf9c      	itt	ls
   85e1e:	f102 005b 	addls.w	r0, r2, #91	; 0x5b
   85e22:	0041      	lslls	r1, r0, #1
   85e24:	d9a0      	bls.n	85d68 <_free_r+0x94>
   85e26:	2a54      	cmp	r2, #84	; 0x54
   85e28:	d80c      	bhi.n	85e44 <_free_r+0x170>
   85e2a:	0b18      	lsrs	r0, r3, #12
   85e2c:	306e      	adds	r0, #110	; 0x6e
   85e2e:	0041      	lsls	r1, r0, #1
   85e30:	e79a      	b.n	85d68 <_free_r+0x94>
   85e32:	2601      	movs	r6, #1
   85e34:	684d      	ldr	r5, [r1, #4]
   85e36:	1080      	asrs	r0, r0, #2
   85e38:	4613      	mov	r3, r2
   85e3a:	fa06 f000 	lsl.w	r0, r6, r0
   85e3e:	4305      	orrs	r5, r0
   85e40:	604d      	str	r5, [r1, #4]
   85e42:	e7a3      	b.n	85d8c <_free_r+0xb8>
   85e44:	f5b2 7faa 	cmp.w	r2, #340	; 0x154
   85e48:	d803      	bhi.n	85e52 <_free_r+0x17e>
   85e4a:	0bd8      	lsrs	r0, r3, #15
   85e4c:	3077      	adds	r0, #119	; 0x77
   85e4e:	0041      	lsls	r1, r0, #1
   85e50:	e78a      	b.n	85d68 <_free_r+0x94>
   85e52:	f240 5154 	movw	r1, #1364	; 0x554
   85e56:	428a      	cmp	r2, r1
   85e58:	bf95      	itete	ls
   85e5a:	0c98      	lsrls	r0, r3, #18
   85e5c:	21fc      	movhi	r1, #252	; 0xfc
   85e5e:	307c      	addls	r0, #124	; 0x7c
   85e60:	207e      	movhi	r0, #126	; 0x7e
   85e62:	bf98      	it	ls
   85e64:	0041      	lslls	r1, r0, #1
   85e66:	e77f      	b.n	85d68 <_free_r+0x94>
   85e68:	2007017c 	.word	0x2007017c

00085e6c <_fwalk>:
   85e6c:	e92d 41f0 	stmdb	sp!, {r4, r5, r6, r7, r8, lr}
   85e70:	f110 06d8 	adds.w	r6, r0, #216	; 0xd8
   85e74:	4688      	mov	r8, r1
   85e76:	d019      	beq.n	85eac <_fwalk+0x40>
   85e78:	2700      	movs	r7, #0
   85e7a:	6875      	ldr	r5, [r6, #4]
   85e7c:	68b4      	ldr	r4, [r6, #8]
   85e7e:	3d01      	subs	r5, #1
   85e80:	d40e      	bmi.n	85ea0 <_fwalk+0x34>
   85e82:	89a3      	ldrh	r3, [r4, #12]
   85e84:	3d01      	subs	r5, #1
   85e86:	2b01      	cmp	r3, #1
   85e88:	d906      	bls.n	85e98 <_fwalk+0x2c>
   85e8a:	f9b4 300e 	ldrsh.w	r3, [r4, #14]
   85e8e:	4620      	mov	r0, r4
   85e90:	3301      	adds	r3, #1
   85e92:	d001      	beq.n	85e98 <_fwalk+0x2c>
   85e94:	47c0      	blx	r8
   85e96:	4307      	orrs	r7, r0
   85e98:	1c6b      	adds	r3, r5, #1
   85e9a:	f104 0468 	add.w	r4, r4, #104	; 0x68
   85e9e:	d1f0      	bne.n	85e82 <_fwalk+0x16>
   85ea0:	6836      	ldr	r6, [r6, #0]
   85ea2:	2e00      	cmp	r6, #0
   85ea4:	d1e9      	bne.n	85e7a <_fwalk+0xe>
   85ea6:	4638      	mov	r0, r7
   85ea8:	e8bd 81f0 	ldmia.w	sp!, {r4, r5, r6, r7, r8, pc}
   85eac:	4637      	mov	r7, r6
   85eae:	4638      	mov	r0, r7
   85eb0:	e8bd 81f0 	ldmia.w	sp!, {r4, r5, r6, r7, r8, pc}

00085eb4 <_fwalk_reent>:
   85eb4:	e92d 43f8 	stmdb	sp!, {r3, r4, r5, r6, r7, r8, r9, lr}
   85eb8:	f110 06d8 	adds.w	r6, r0, #216	; 0xd8
   85ebc:	4680      	mov	r8, r0
   85ebe:	4689      	mov	r9, r1
   85ec0:	d01a      	beq.n	85ef8 <_fwalk_reent+0x44>
   85ec2:	2700      	movs	r7, #0
   85ec4:	6875      	ldr	r5, [r6, #4]
   85ec6:	68b4      	ldr	r4, [r6, #8]
   85ec8:	3d01      	subs	r5, #1
   85eca:	d40f      	bmi.n	85eec <_fwalk_reent+0x38>
   85ecc:	89a3      	ldrh	r3, [r4, #12]
   85ece:	3d01      	subs	r5, #1
   85ed0:	2b01      	cmp	r3, #1
   85ed2:	d907      	bls.n	85ee4 <_fwalk_reent+0x30>
   85ed4:	f9b4 300e 	ldrsh.w	r3, [r4, #14]
   85ed8:	4621      	mov	r1, r4
   85eda:	4640      	mov	r0, r8
   85edc:	3301      	adds	r3, #1
   85ede:	d001      	beq.n	85ee4 <_fwalk_reent+0x30>
   85ee0:	47c8      	blx	r9
   85ee2:	4307      	orrs	r7, r0
   85ee4:	1c6b      	adds	r3, r5, #1
   85ee6:	f104 0468 	add.w	r4, r4, #104	; 0x68
   85eea:	d1ef      	bne.n	85ecc <_fwalk_reent+0x18>
   85eec:	6836      	ldr	r6, [r6, #0]
   85eee:	2e00      	cmp	r6, #0
   85ef0:	d1e8      	bne.n	85ec4 <_fwalk_reent+0x10>
   85ef2:	4638      	mov	r0, r7
   85ef4:	e8bd 83f8 	ldmia.w	sp!, {r3, r4, r5, r6, r7, r8, r9, pc}
   85ef8:	4637      	mov	r7, r6
   85efa:	4638      	mov	r0, r7
   85efc:	e8bd 83f8 	ldmia.w	sp!, {r3, r4, r5, r6, r7, r8, r9, pc}

00085f00 <_setlocale_r>:
   85f00:	b510      	push	{r4, lr}
   85f02:	4614      	mov	r4, r2
   85f04:	b13a      	cbz	r2, 85f16 <_setlocale_r+0x16>
   85f06:	f24a 11c0 	movw	r1, #41408	; 0xa1c0
   85f0a:	4610      	mov	r0, r2
   85f0c:	f2c0 0108 	movt	r1, #8
   85f10:	f001 f93c 	bl	8718c <strcmp>
   85f14:	b920      	cbnz	r0, 85f20 <_setlocale_r+0x20>
   85f16:	f24a 00cc 	movw	r0, #41164	; 0xa0cc
   85f1a:	f2c0 0008 	movt	r0, #8
   85f1e:	bd10      	pop	{r4, pc}
   85f20:	f24a 01cc 	movw	r1, #41164	; 0xa0cc
   85f24:	4620      	mov	r0, r4
   85f26:	f2c0 0108 	movt	r1, #8
   85f2a:	f001 f92f 	bl	8718c <strcmp>
   85f2e:	2800      	cmp	r0, #0
   85f30:	d0f1      	beq.n	85f16 <_setlocale_r+0x16>
   85f32:	f24a 112c 	movw	r1, #41260	; 0xa12c
   85f36:	4620      	mov	r0, r4
   85f38:	f2c0 0108 	movt	r1, #8
   85f3c:	f001 f926 	bl	8718c <strcmp>
   85f40:	f24a 03cc 	movw	r3, #41164	; 0xa0cc
   85f44:	f2c0 0308 	movt	r3, #8
   85f48:	2800      	cmp	r0, #0
   85f4a:	bf0c      	ite	eq
   85f4c:	4618      	moveq	r0, r3
   85f4e:	2000      	movne	r0, #0
   85f50:	bd10      	pop	{r4, pc}
   85f52:	bf00      	nop

00085f54 <__locale_charset>:
   85f54:	f240 00f8 	movw	r0, #248	; 0xf8
   85f58:	f2c2 0007 	movt	r0, #8199	; 0x2007
   85f5c:	4770      	bx	lr
   85f5e:	bf00      	nop

00085f60 <__locale_mb_cur_max>:
   85f60:	f240 03f8 	movw	r3, #248	; 0xf8
   85f64:	f2c2 0307 	movt	r3, #8199	; 0x2007
   85f68:	6a18      	ldr	r0, [r3, #32]
   85f6a:	4770      	bx	lr

00085f6c <__locale_msgcharset>:
   85f6c:	4800      	ldr	r0, [pc, #0]	; (85f70 <__locale_msgcharset+0x4>)
   85f6e:	4770      	bx	lr
   85f70:	2007011c 	.word	0x2007011c

00085f74 <__locale_cjk_lang>:
   85f74:	2000      	movs	r0, #0
   85f76:	4770      	bx	lr

00085f78 <_localeconv_r>:
   85f78:	4800      	ldr	r0, [pc, #0]	; (85f7c <_localeconv_r+0x4>)
   85f7a:	4770      	bx	lr
   85f7c:	2007013c 	.word	0x2007013c

00085f80 <setlocale>:
   85f80:	f240 0304 	movw	r3, #4
   85f84:	460a      	mov	r2, r1
   85f86:	f2c2 0307 	movt	r3, #8199	; 0x2007
   85f8a:	4601      	mov	r1, r0
   85f8c:	6818      	ldr	r0, [r3, #0]
   85f8e:	f7ff bfb7 	b.w	85f00 <_setlocale_r>
   85f92:	bf00      	nop

00085f94 <localeconv>:
   85f94:	4800      	ldr	r0, [pc, #0]	; (85f98 <localeconv+0x4>)
   85f96:	4770      	bx	lr
   85f98:	2007013c 	.word	0x2007013c

00085f9c <__smakebuf_r>:
   85f9c:	898b      	ldrh	r3, [r1, #12]
   85f9e:	b5f0      	push	{r4, r5, r6, r7, lr}
   85fa0:	460c      	mov	r4, r1
   85fa2:	b29a      	uxth	r2, r3
   85fa4:	b091      	sub	sp, #68	; 0x44
   85fa6:	0796      	lsls	r6, r2, #30
   85fa8:	4605      	mov	r5, r0
   85faa:	d43b      	bmi.n	86024 <__smakebuf_r+0x88>
   85fac:	f9b1 100e 	ldrsh.w	r1, [r1, #14]
   85fb0:	2900      	cmp	r1, #0
   85fb2:	db17      	blt.n	85fe4 <__smakebuf_r+0x48>
   85fb4:	aa01      	add	r2, sp, #4
   85fb6:	f002 fae1 	bl	8857c <_fstat_r>
   85fba:	2800      	cmp	r0, #0
   85fbc:	db10      	blt.n	85fe0 <__smakebuf_r+0x44>
   85fbe:	9b02      	ldr	r3, [sp, #8]
   85fc0:	f403 4370 	and.w	r3, r3, #61440	; 0xf000
   85fc4:	f5b3 5100 	subs.w	r1, r3, #8192	; 0x2000
   85fc8:	424f      	negs	r7, r1
   85fca:	414f      	adcs	r7, r1
   85fcc:	f5b3 4f00 	cmp.w	r3, #32768	; 0x8000
   85fd0:	d030      	beq.n	86034 <__smakebuf_r+0x98>
   85fd2:	89a3      	ldrh	r3, [r4, #12]
   85fd4:	f44f 6680 	mov.w	r6, #1024	; 0x400
   85fd8:	f443 6300 	orr.w	r3, r3, #2048	; 0x800
   85fdc:	81a3      	strh	r3, [r4, #12]
   85fde:	e00c      	b.n	85ffa <__smakebuf_r+0x5e>
   85fe0:	89a3      	ldrh	r3, [r4, #12]
   85fe2:	b29a      	uxth	r2, r3
   85fe4:	f012 0f80 	tst.w	r2, #128	; 0x80
   85fe8:	f04f 0700 	mov.w	r7, #0
   85fec:	bf14      	ite	ne
   85fee:	2640      	movne	r6, #64	; 0x40
   85ff0:	f44f 6680 	moveq.w	r6, #1024	; 0x400
   85ff4:	f443 6300 	orr.w	r3, r3, #2048	; 0x800
   85ff8:	81a3      	strh	r3, [r4, #12]
   85ffa:	4628      	mov	r0, r5
   85ffc:	4631      	mov	r1, r6
   85ffe:	f000 f851 	bl	860a4 <_malloc_r>
   86002:	2800      	cmp	r0, #0
   86004:	d031      	beq.n	8606a <__smakebuf_r+0xce>
   86006:	89a2      	ldrh	r2, [r4, #12]
   86008:	f645 13f1 	movw	r3, #23025	; 0x59f1
   8600c:	f2c0 0308 	movt	r3, #8
   86010:	62ab      	str	r3, [r5, #40]	; 0x28
   86012:	f042 0380 	orr.w	r3, r2, #128	; 0x80
   86016:	6020      	str	r0, [r4, #0]
   86018:	6120      	str	r0, [r4, #16]
   8601a:	6166      	str	r6, [r4, #20]
   8601c:	81a3      	strh	r3, [r4, #12]
   8601e:	b9c7      	cbnz	r7, 86052 <__smakebuf_r+0xb6>
   86020:	b011      	add	sp, #68	; 0x44
   86022:	bdf0      	pop	{r4, r5, r6, r7, pc}
   86024:	f101 0347 	add.w	r3, r1, #71	; 0x47
   86028:	2201      	movs	r2, #1
   8602a:	600b      	str	r3, [r1, #0]
   8602c:	610b      	str	r3, [r1, #16]
   8602e:	614a      	str	r2, [r1, #20]
   86030:	b011      	add	sp, #68	; 0x44
   86032:	bdf0      	pop	{r4, r5, r6, r7, pc}
   86034:	f247 1365 	movw	r3, #29029	; 0x7165
   86038:	6ae2      	ldr	r2, [r4, #44]	; 0x2c
   8603a:	f2c0 0308 	movt	r3, #8
   8603e:	429a      	cmp	r2, r3
   86040:	d1c7      	bne.n	85fd2 <__smakebuf_r+0x36>
   86042:	89a2      	ldrh	r2, [r4, #12]
   86044:	f44f 6380 	mov.w	r3, #1024	; 0x400
   86048:	461e      	mov	r6, r3
   8604a:	6523      	str	r3, [r4, #80]	; 0x50
   8604c:	4313      	orrs	r3, r2
   8604e:	81a3      	strh	r3, [r4, #12]
   86050:	e7d3      	b.n	85ffa <__smakebuf_r+0x5e>
   86052:	4628      	mov	r0, r5
   86054:	f9b4 100e 	ldrsh.w	r1, [r4, #14]
   86058:	f002 fc20 	bl	8889c <_isatty_r>
   8605c:	2800      	cmp	r0, #0
   8605e:	d0df      	beq.n	86020 <__smakebuf_r+0x84>
   86060:	89a3      	ldrh	r3, [r4, #12]
   86062:	f043 0301 	orr.w	r3, r3, #1
   86066:	81a3      	strh	r3, [r4, #12]
   86068:	e7da      	b.n	86020 <__smakebuf_r+0x84>
   8606a:	89a3      	ldrh	r3, [r4, #12]
   8606c:	059a      	lsls	r2, r3, #22
   8606e:	d4d7      	bmi.n	86020 <__smakebuf_r+0x84>
   86070:	f043 0302 	orr.w	r3, r3, #2
   86074:	f104 0247 	add.w	r2, r4, #71	; 0x47
   86078:	81a3      	strh	r3, [r4, #12]
   8607a:	2301      	movs	r3, #1
   8607c:	6022      	str	r2, [r4, #0]
   8607e:	6122      	str	r2, [r4, #16]
   86080:	6163      	str	r3, [r4, #20]
   86082:	e7cd      	b.n	86020 <__smakebuf_r+0x84>

00086084 <malloc>:
   86084:	f240 0304 	movw	r3, #4
   86088:	4601      	mov	r1, r0
   8608a:	f2c2 0307 	movt	r3, #8199	; 0x2007
   8608e:	6818      	ldr	r0, [r3, #0]
   86090:	f000 b808 	b.w	860a4 <_malloc_r>

00086094 <free>:
   86094:	f240 0304 	movw	r3, #4
   86098:	4601      	mov	r1, r0
   8609a:	f2c2 0307 	movt	r3, #8199	; 0x2007
   8609e:	6818      	ldr	r0, [r3, #0]
   860a0:	f7ff be18 	b.w	85cd4 <_free_r>

000860a4 <_malloc_r>:
   860a4:	e92d 4ff0 	stmdb	sp!, {r4, r5, r6, r7, r8, r9, sl, fp, lr}
   860a8:	f101 040b 	add.w	r4, r1, #11
   860ac:	2c16      	cmp	r4, #22
   860ae:	b083      	sub	sp, #12
   860b0:	bf8e      	itee	hi
   860b2:	f024 0407 	bichi.w	r4, r4, #7
   860b6:	2300      	movls	r3, #0
   860b8:	2410      	movls	r4, #16
   860ba:	4607      	mov	r7, r0
   860bc:	bf88      	it	hi
   860be:	0fe3      	lsrhi	r3, r4, #31
   860c0:	428c      	cmp	r4, r1
   860c2:	bf2c      	ite	cs
   860c4:	4619      	movcs	r1, r3
   860c6:	f043 0101 	orrcc.w	r1, r3, #1
   860ca:	2900      	cmp	r1, #0
   860cc:	f040 80ba 	bne.w	86244 <_malloc_r+0x1a0>
   860d0:	f000 fb3c 	bl	8674c <__malloc_lock>
   860d4:	f5b4 7ffc 	cmp.w	r4, #504	; 0x1f8
   860d8:	d220      	bcs.n	8611c <_malloc_r+0x78>
   860da:	f240 1674 	movw	r6, #372	; 0x174
   860de:	ea4f 0cd4 	mov.w	ip, r4, lsr #3
   860e2:	f2c2 0607 	movt	r6, #8199	; 0x2007
   860e6:	eb06 02cc 	add.w	r2, r6, ip, lsl #3
   860ea:	68d3      	ldr	r3, [r2, #12]
   860ec:	4293      	cmp	r3, r2
   860ee:	f000 81f7 	beq.w	864e0 <_malloc_r+0x43c>
   860f2:	6859      	ldr	r1, [r3, #4]
   860f4:	f103 0808 	add.w	r8, r3, #8
   860f8:	68da      	ldr	r2, [r3, #12]
   860fa:	4638      	mov	r0, r7
   860fc:	f021 0403 	bic.w	r4, r1, #3
   86100:	6899      	ldr	r1, [r3, #8]
   86102:	4423      	add	r3, r4
   86104:	685c      	ldr	r4, [r3, #4]
   86106:	60ca      	str	r2, [r1, #12]
   86108:	f044 0401 	orr.w	r4, r4, #1
   8610c:	6091      	str	r1, [r2, #8]
   8610e:	605c      	str	r4, [r3, #4]
   86110:	f000 fb1e 	bl	86750 <__malloc_unlock>
   86114:	4640      	mov	r0, r8
   86116:	b003      	add	sp, #12
   86118:	e8bd 8ff0 	ldmia.w	sp!, {r4, r5, r6, r7, r8, r9, sl, fp, pc}
   8611c:	ea5f 2c54 	movs.w	ip, r4, lsr #9
   86120:	bf04      	itt	eq
   86122:	257e      	moveq	r5, #126	; 0x7e
   86124:	f04f 0c3f 	moveq.w	ip, #63	; 0x3f
   86128:	f040 8094 	bne.w	86254 <_malloc_r+0x1b0>
   8612c:	f240 1674 	movw	r6, #372	; 0x174
   86130:	f2c2 0607 	movt	r6, #8199	; 0x2007
   86134:	eb06 0585 	add.w	r5, r6, r5, lsl #2
   86138:	68eb      	ldr	r3, [r5, #12]
   8613a:	429d      	cmp	r5, r3
   8613c:	d106      	bne.n	8614c <_malloc_r+0xa8>
   8613e:	e00d      	b.n	8615c <_malloc_r+0xb8>
   86140:	2a00      	cmp	r2, #0
   86142:	f280 8164 	bge.w	8640e <_malloc_r+0x36a>
   86146:	68db      	ldr	r3, [r3, #12]
   86148:	429d      	cmp	r5, r3
   8614a:	d007      	beq.n	8615c <_malloc_r+0xb8>
   8614c:	6859      	ldr	r1, [r3, #4]
   8614e:	f021 0103 	bic.w	r1, r1, #3
   86152:	1b0a      	subs	r2, r1, r4
   86154:	2a0f      	cmp	r2, #15
   86156:	ddf3      	ble.n	86140 <_malloc_r+0x9c>
   86158:	f10c 3cff 	add.w	ip, ip, #4294967295	; 0xffffffff
   8615c:	f10c 0c01 	add.w	ip, ip, #1
   86160:	f240 1274 	movw	r2, #372	; 0x174
   86164:	6933      	ldr	r3, [r6, #16]
   86166:	f2c2 0207 	movt	r2, #8199	; 0x2007
   8616a:	f102 0e08 	add.w	lr, r2, #8
   8616e:	4573      	cmp	r3, lr
   86170:	bf08      	it	eq
   86172:	6851      	ldreq	r1, [r2, #4]
   86174:	d023      	beq.n	861be <_malloc_r+0x11a>
   86176:	6858      	ldr	r0, [r3, #4]
   86178:	f020 0003 	bic.w	r0, r0, #3
   8617c:	1b01      	subs	r1, r0, r4
   8617e:	290f      	cmp	r1, #15
   86180:	f300 8192 	bgt.w	864a8 <_malloc_r+0x404>
   86184:	2900      	cmp	r1, #0
   86186:	f8c2 e014 	str.w	lr, [r2, #20]
   8618a:	f8c2 e010 	str.w	lr, [r2, #16]
   8618e:	da6c      	bge.n	8626a <_malloc_r+0x1c6>
   86190:	f5b0 7f00 	cmp.w	r0, #512	; 0x200
   86194:	f080 8161 	bcs.w	8645a <_malloc_r+0x3b6>
   86198:	08c0      	lsrs	r0, r0, #3
   8619a:	f04f 0801 	mov.w	r8, #1
   8619e:	6851      	ldr	r1, [r2, #4]
   861a0:	eb02 05c0 	add.w	r5, r2, r0, lsl #3
   861a4:	1080      	asrs	r0, r0, #2
   861a6:	fa08 f800 	lsl.w	r8, r8, r0
   861aa:	ea48 0801 	orr.w	r8, r8, r1
   861ae:	68a8      	ldr	r0, [r5, #8]
   861b0:	4641      	mov	r1, r8
   861b2:	60dd      	str	r5, [r3, #12]
   861b4:	f8c2 8004 	str.w	r8, [r2, #4]
   861b8:	6098      	str	r0, [r3, #8]
   861ba:	60ab      	str	r3, [r5, #8]
   861bc:	60c3      	str	r3, [r0, #12]
   861be:	2201      	movs	r2, #1
   861c0:	ea4f 03ac 	mov.w	r3, ip, asr #2
   861c4:	fa02 f303 	lsl.w	r3, r2, r3
   861c8:	428b      	cmp	r3, r1
   861ca:	d85c      	bhi.n	86286 <_malloc_r+0x1e2>
   861cc:	4219      	tst	r1, r3
   861ce:	d10b      	bne.n	861e8 <_malloc_r+0x144>
   861d0:	4093      	lsls	r3, r2
   861d2:	f02c 0c03 	bic.w	ip, ip, #3
   861d6:	4219      	tst	r1, r3
   861d8:	f10c 0c04 	add.w	ip, ip, #4
   861dc:	d104      	bne.n	861e8 <_malloc_r+0x144>
   861de:	005b      	lsls	r3, r3, #1
   861e0:	f10c 0c04 	add.w	ip, ip, #4
   861e4:	4219      	tst	r1, r3
   861e6:	d0fa      	beq.n	861de <_malloc_r+0x13a>
   861e8:	eb06 08cc 	add.w	r8, r6, ip, lsl #3
   861ec:	46e1      	mov	r9, ip
   861ee:	4640      	mov	r0, r8
   861f0:	68c2      	ldr	r2, [r0, #12]
   861f2:	4290      	cmp	r0, r2
   861f4:	d107      	bne.n	86206 <_malloc_r+0x162>
   861f6:	e16b      	b.n	864d0 <_malloc_r+0x42c>
   861f8:	2900      	cmp	r1, #0
   861fa:	f280 817b 	bge.w	864f4 <_malloc_r+0x450>
   861fe:	68d2      	ldr	r2, [r2, #12]
   86200:	4290      	cmp	r0, r2
   86202:	f000 8165 	beq.w	864d0 <_malloc_r+0x42c>
   86206:	6855      	ldr	r5, [r2, #4]
   86208:	f025 0503 	bic.w	r5, r5, #3
   8620c:	1b29      	subs	r1, r5, r4
   8620e:	290f      	cmp	r1, #15
   86210:	ddf2      	ble.n	861f8 <_malloc_r+0x154>
   86212:	4690      	mov	r8, r2
   86214:	68d5      	ldr	r5, [r2, #12]
   86216:	4638      	mov	r0, r7
   86218:	1913      	adds	r3, r2, r4
   8621a:	f858 7f08 	ldr.w	r7, [r8, #8]!
   8621e:	f044 0c01 	orr.w	ip, r4, #1
   86222:	f041 0401 	orr.w	r4, r1, #1
   86226:	f8c2 c004 	str.w	ip, [r2, #4]
   8622a:	60fd      	str	r5, [r7, #12]
   8622c:	60af      	str	r7, [r5, #8]
   8622e:	6173      	str	r3, [r6, #20]
   86230:	6133      	str	r3, [r6, #16]
   86232:	f8c3 e00c 	str.w	lr, [r3, #12]
   86236:	f8c3 e008 	str.w	lr, [r3, #8]
   8623a:	605c      	str	r4, [r3, #4]
   8623c:	5059      	str	r1, [r3, r1]
   8623e:	f000 fa87 	bl	86750 <__malloc_unlock>
   86242:	e767      	b.n	86114 <_malloc_r+0x70>
   86244:	f04f 0800 	mov.w	r8, #0
   86248:	230c      	movs	r3, #12
   8624a:	6003      	str	r3, [r0, #0]
   8624c:	4640      	mov	r0, r8
   8624e:	b003      	add	sp, #12
   86250:	e8bd 8ff0 	ldmia.w	sp!, {r4, r5, r6, r7, r8, r9, sl, fp, pc}
   86254:	f1bc 0f04 	cmp.w	ip, #4
   86258:	f200 80eb 	bhi.w	86432 <_malloc_r+0x38e>
   8625c:	ea4f 1c94 	mov.w	ip, r4, lsr #6
   86260:	f10c 0c38 	add.w	ip, ip, #56	; 0x38
   86264:	ea4f 054c 	mov.w	r5, ip, lsl #1
   86268:	e760      	b.n	8612c <_malloc_r+0x88>
   8626a:	181a      	adds	r2, r3, r0
   8626c:	f103 0808 	add.w	r8, r3, #8
   86270:	4638      	mov	r0, r7
   86272:	6853      	ldr	r3, [r2, #4]
   86274:	f043 0301 	orr.w	r3, r3, #1
   86278:	6053      	str	r3, [r2, #4]
   8627a:	f000 fa69 	bl	86750 <__malloc_unlock>
   8627e:	4640      	mov	r0, r8
   86280:	b003      	add	sp, #12
   86282:	e8bd 8ff0 	ldmia.w	sp!, {r4, r5, r6, r7, r8, r9, sl, fp, pc}
   86286:	68b5      	ldr	r5, [r6, #8]
   86288:	686b      	ldr	r3, [r5, #4]
   8628a:	f023 0a03 	bic.w	sl, r3, #3
   8628e:	4554      	cmp	r4, sl
   86290:	d804      	bhi.n	8629c <_malloc_r+0x1f8>
   86292:	ebc4 030a 	rsb	r3, r4, sl
   86296:	2b0f      	cmp	r3, #15
   86298:	f300 80a8 	bgt.w	863ec <_malloc_r+0x348>
   8629c:	f240 59a8 	movw	r9, #1448	; 0x5a8
   862a0:	f8d6 1408 	ldr.w	r1, [r6, #1032]	; 0x408
   862a4:	f2c2 0907 	movt	r9, #8199	; 0x2007
   862a8:	4638      	mov	r0, r7
   862aa:	3101      	adds	r1, #1
   862ac:	eb05 020a 	add.w	r2, r5, sl
   862b0:	f8d9 3000 	ldr.w	r3, [r9]
   862b4:	9201      	str	r2, [sp, #4]
   862b6:	4423      	add	r3, r4
   862b8:	bf17      	itett	ne
   862ba:	f503 5380 	addne.w	r3, r3, #4096	; 0x1000
   862be:	f103 0b10 	addeq.w	fp, r3, #16
   862c2:	330f      	addne	r3, #15
   862c4:	f423 637f 	bicne.w	r3, r3, #4080	; 0xff0
   862c8:	bf18      	it	ne
   862ca:	f023 0b0f 	bicne.w	fp, r3, #15
   862ce:	4659      	mov	r1, fp
   862d0:	f000 ff04 	bl	870dc <_sbrk_r>
   862d4:	9a01      	ldr	r2, [sp, #4]
   862d6:	f1b0 3fff 	cmp.w	r0, #4294967295	; 0xffffffff
   862da:	4680      	mov	r8, r0
   862dc:	f000 8120 	beq.w	86520 <_malloc_r+0x47c>
   862e0:	4282      	cmp	r2, r0
   862e2:	f200 811a 	bhi.w	8651a <_malloc_r+0x476>
   862e6:	f8d9 3004 	ldr.w	r3, [r9, #4]
   862ea:	4542      	cmp	r2, r8
   862ec:	445b      	add	r3, fp
   862ee:	f8c9 3004 	str.w	r3, [r9, #4]
   862f2:	f000 8165 	beq.w	865c0 <_malloc_r+0x51c>
   862f6:	f8d6 1408 	ldr.w	r1, [r6, #1032]	; 0x408
   862fa:	f240 1074 	movw	r0, #372	; 0x174
   862fe:	f2c2 0007 	movt	r0, #8199	; 0x2007
   86302:	3101      	adds	r1, #1
   86304:	bf17      	itett	ne
   86306:	ebc2 0208 	rsbne	r2, r2, r8
   8630a:	f8c0 8408 	streq.w	r8, [r0, #1032]	; 0x408
   8630e:	189b      	addne	r3, r3, r2
   86310:	f8c9 3004 	strne.w	r3, [r9, #4]
   86314:	f018 0307 	ands.w	r3, r8, #7
   86318:	4638      	mov	r0, r7
   8631a:	bf1f      	itttt	ne
   8631c:	f1c3 0208 	rsbne	r2, r3, #8
   86320:	f5c3 5380 	rsbne	r3, r3, #4096	; 0x1000
   86324:	4490      	addne	r8, r2
   86326:	f103 0208 	addne.w	r2, r3, #8
   8632a:	eb08 030b 	add.w	r3, r8, fp
   8632e:	bf08      	it	eq
   86330:	f44f 5280 	moveq.w	r2, #4096	; 0x1000
   86334:	f3c3 030b 	ubfx	r3, r3, #0, #12
   86338:	ebc3 0b02 	rsb	fp, r3, r2
   8633c:	4659      	mov	r1, fp
   8633e:	f000 fecd 	bl	870dc <_sbrk_r>
   86342:	f240 52a8 	movw	r2, #1448	; 0x5a8
   86346:	f8c6 8008 	str.w	r8, [r6, #8]
   8634a:	f2c2 0207 	movt	r2, #8199	; 0x2007
   8634e:	1c43      	adds	r3, r0, #1
   86350:	f8d9 3004 	ldr.w	r3, [r9, #4]
   86354:	bf15      	itete	ne
   86356:	ebc8 0100 	rsbne	r1, r8, r0
   8635a:	2101      	moveq	r1, #1
   8635c:	4459      	addne	r1, fp
   8635e:	f04f 0b00 	moveq.w	fp, #0
   86362:	bf18      	it	ne
   86364:	f041 0101 	orrne.w	r1, r1, #1
   86368:	42b5      	cmp	r5, r6
   8636a:	445b      	add	r3, fp
   8636c:	f8c8 1004 	str.w	r1, [r8, #4]
   86370:	f8c9 3004 	str.w	r3, [r9, #4]
   86374:	d018      	beq.n	863a8 <_malloc_r+0x304>
   86376:	f1ba 0f0f 	cmp.w	sl, #15
   8637a:	f240 8100 	bls.w	8657e <_malloc_r+0x4da>
   8637e:	f1aa 000c 	sub.w	r0, sl, #12
   86382:	6869      	ldr	r1, [r5, #4]
   86384:	f020 0007 	bic.w	r0, r0, #7
   86388:	f04f 0c05 	mov.w	ip, #5
   8638c:	eb05 0e00 	add.w	lr, r5, r0
   86390:	280f      	cmp	r0, #15
   86392:	f001 0101 	and.w	r1, r1, #1
   86396:	ea40 0101 	orr.w	r1, r0, r1
   8639a:	6069      	str	r1, [r5, #4]
   8639c:	f8ce c004 	str.w	ip, [lr, #4]
   863a0:	f8ce c008 	str.w	ip, [lr, #8]
   863a4:	f200 8118 	bhi.w	865d8 <_malloc_r+0x534>
   863a8:	f240 52a8 	movw	r2, #1448	; 0x5a8
   863ac:	f8d9 102c 	ldr.w	r1, [r9, #44]	; 0x2c
   863b0:	f2c2 0207 	movt	r2, #8199	; 0x2007
   863b4:	68b5      	ldr	r5, [r6, #8]
   863b6:	428b      	cmp	r3, r1
   863b8:	f8d9 1030 	ldr.w	r1, [r9, #48]	; 0x30
   863bc:	bf88      	it	hi
   863be:	62d3      	strhi	r3, [r2, #44]	; 0x2c
   863c0:	f240 52a8 	movw	r2, #1448	; 0x5a8
   863c4:	f2c2 0207 	movt	r2, #8199	; 0x2007
   863c8:	428b      	cmp	r3, r1
   863ca:	bf88      	it	hi
   863cc:	6313      	strhi	r3, [r2, #48]	; 0x30
   863ce:	686a      	ldr	r2, [r5, #4]
   863d0:	f022 0203 	bic.w	r2, r2, #3
   863d4:	4294      	cmp	r4, r2
   863d6:	ebc4 0302 	rsb	r3, r4, r2
   863da:	d801      	bhi.n	863e0 <_malloc_r+0x33c>
   863dc:	2b0f      	cmp	r3, #15
   863de:	dc05      	bgt.n	863ec <_malloc_r+0x348>
   863e0:	4638      	mov	r0, r7
   863e2:	f04f 0800 	mov.w	r8, #0
   863e6:	f000 f9b3 	bl	86750 <__malloc_unlock>
   863ea:	e693      	b.n	86114 <_malloc_r+0x70>
   863ec:	192a      	adds	r2, r5, r4
   863ee:	f043 0301 	orr.w	r3, r3, #1
   863f2:	4638      	mov	r0, r7
   863f4:	f044 0401 	orr.w	r4, r4, #1
   863f8:	606c      	str	r4, [r5, #4]
   863fa:	f105 0808 	add.w	r8, r5, #8
   863fe:	60b2      	str	r2, [r6, #8]
   86400:	6053      	str	r3, [r2, #4]
   86402:	f000 f9a5 	bl	86750 <__malloc_unlock>
   86406:	4640      	mov	r0, r8
   86408:	b003      	add	sp, #12
   8640a:	e8bd 8ff0 	ldmia.w	sp!, {r4, r5, r6, r7, r8, r9, sl, fp, pc}
   8640e:	4419      	add	r1, r3
   86410:	68da      	ldr	r2, [r3, #12]
   86412:	689c      	ldr	r4, [r3, #8]
   86414:	4638      	mov	r0, r7
   86416:	684d      	ldr	r5, [r1, #4]
   86418:	f103 0808 	add.w	r8, r3, #8
   8641c:	60e2      	str	r2, [r4, #12]
   8641e:	f045 0501 	orr.w	r5, r5, #1
   86422:	6094      	str	r4, [r2, #8]
   86424:	604d      	str	r5, [r1, #4]
   86426:	f000 f993 	bl	86750 <__malloc_unlock>
   8642a:	4640      	mov	r0, r8
   8642c:	b003      	add	sp, #12
   8642e:	e8bd 8ff0 	ldmia.w	sp!, {r4, r5, r6, r7, r8, r9, sl, fp, pc}
   86432:	f1bc 0f14 	cmp.w	ip, #20
   86436:	bf9c      	itt	ls
   86438:	f10c 0c5b 	addls.w	ip, ip, #91	; 0x5b
   8643c:	ea4f 054c 	movls.w	r5, ip, lsl #1
   86440:	f67f ae74 	bls.w	8612c <_malloc_r+0x88>
   86444:	f1bc 0f54 	cmp.w	ip, #84	; 0x54
   86448:	f200 808f 	bhi.w	8656a <_malloc_r+0x4c6>
   8644c:	ea4f 3c14 	mov.w	ip, r4, lsr #12
   86450:	f10c 0c6e 	add.w	ip, ip, #110	; 0x6e
   86454:	ea4f 054c 	mov.w	r5, ip, lsl #1
   86458:	e668      	b.n	8612c <_malloc_r+0x88>
   8645a:	0a42      	lsrs	r2, r0, #9
   8645c:	2a04      	cmp	r2, #4
   8645e:	d958      	bls.n	86512 <_malloc_r+0x46e>
   86460:	2a14      	cmp	r2, #20
   86462:	bf9c      	itt	ls
   86464:	f102 015b 	addls.w	r1, r2, #91	; 0x5b
   86468:	004d      	lslls	r5, r1, #1
   8646a:	d905      	bls.n	86478 <_malloc_r+0x3d4>
   8646c:	2a54      	cmp	r2, #84	; 0x54
   8646e:	f200 80bc 	bhi.w	865ea <_malloc_r+0x546>
   86472:	0b01      	lsrs	r1, r0, #12
   86474:	316e      	adds	r1, #110	; 0x6e
   86476:	004d      	lsls	r5, r1, #1
   86478:	eb06 0585 	add.w	r5, r6, r5, lsl #2
   8647c:	f240 1874 	movw	r8, #372	; 0x174
   86480:	f2c2 0807 	movt	r8, #8199	; 0x2007
   86484:	68aa      	ldr	r2, [r5, #8]
   86486:	42aa      	cmp	r2, r5
   86488:	d07f      	beq.n	8658a <_malloc_r+0x4e6>
   8648a:	6851      	ldr	r1, [r2, #4]
   8648c:	f021 0103 	bic.w	r1, r1, #3
   86490:	4288      	cmp	r0, r1
   86492:	d202      	bcs.n	8649a <_malloc_r+0x3f6>
   86494:	6892      	ldr	r2, [r2, #8]
   86496:	4295      	cmp	r5, r2
   86498:	d1f7      	bne.n	8648a <_malloc_r+0x3e6>
   8649a:	68d0      	ldr	r0, [r2, #12]
   8649c:	6871      	ldr	r1, [r6, #4]
   8649e:	60d8      	str	r0, [r3, #12]
   864a0:	609a      	str	r2, [r3, #8]
   864a2:	6083      	str	r3, [r0, #8]
   864a4:	60d3      	str	r3, [r2, #12]
   864a6:	e68a      	b.n	861be <_malloc_r+0x11a>
   864a8:	191d      	adds	r5, r3, r4
   864aa:	f041 0601 	orr.w	r6, r1, #1
   864ae:	f044 0401 	orr.w	r4, r4, #1
   864b2:	4638      	mov	r0, r7
   864b4:	605c      	str	r4, [r3, #4]
   864b6:	f103 0808 	add.w	r8, r3, #8
   864ba:	6155      	str	r5, [r2, #20]
   864bc:	6115      	str	r5, [r2, #16]
   864be:	f8c5 e00c 	str.w	lr, [r5, #12]
   864c2:	f8c5 e008 	str.w	lr, [r5, #8]
   864c6:	606e      	str	r6, [r5, #4]
   864c8:	5069      	str	r1, [r5, r1]
   864ca:	f000 f941 	bl	86750 <__malloc_unlock>
   864ce:	e621      	b.n	86114 <_malloc_r+0x70>
   864d0:	f109 0901 	add.w	r9, r9, #1
   864d4:	3008      	adds	r0, #8
   864d6:	f019 0f03 	tst.w	r9, #3
   864da:	f47f ae89 	bne.w	861f0 <_malloc_r+0x14c>
   864de:	e028      	b.n	86532 <_malloc_r+0x48e>
   864e0:	f103 0208 	add.w	r2, r3, #8
   864e4:	695b      	ldr	r3, [r3, #20]
   864e6:	429a      	cmp	r2, r3
   864e8:	bf08      	it	eq
   864ea:	f10c 0c02 	addeq.w	ip, ip, #2
   864ee:	f43f ae37 	beq.w	86160 <_malloc_r+0xbc>
   864f2:	e5fe      	b.n	860f2 <_malloc_r+0x4e>
   864f4:	4690      	mov	r8, r2
   864f6:	4415      	add	r5, r2
   864f8:	68d3      	ldr	r3, [r2, #12]
   864fa:	4638      	mov	r0, r7
   864fc:	f858 2f08 	ldr.w	r2, [r8, #8]!
   86500:	6869      	ldr	r1, [r5, #4]
   86502:	f041 0101 	orr.w	r1, r1, #1
   86506:	6069      	str	r1, [r5, #4]
   86508:	60d3      	str	r3, [r2, #12]
   8650a:	609a      	str	r2, [r3, #8]
   8650c:	f000 f920 	bl	86750 <__malloc_unlock>
   86510:	e600      	b.n	86114 <_malloc_r+0x70>
   86512:	0981      	lsrs	r1, r0, #6
   86514:	3138      	adds	r1, #56	; 0x38
   86516:	004d      	lsls	r5, r1, #1
   86518:	e7ae      	b.n	86478 <_malloc_r+0x3d4>
   8651a:	42b5      	cmp	r5, r6
   8651c:	f43f aee3 	beq.w	862e6 <_malloc_r+0x242>
   86520:	68b5      	ldr	r5, [r6, #8]
   86522:	686a      	ldr	r2, [r5, #4]
   86524:	f022 0203 	bic.w	r2, r2, #3
   86528:	e754      	b.n	863d4 <_malloc_r+0x330>
   8652a:	f8d8 8000 	ldr.w	r8, [r8]
   8652e:	4590      	cmp	r8, r2
   86530:	d16d      	bne.n	8660e <_malloc_r+0x56a>
   86532:	f01c 0f03 	tst.w	ip, #3
   86536:	f1a8 0208 	sub.w	r2, r8, #8
   8653a:	f10c 3cff 	add.w	ip, ip, #4294967295	; 0xffffffff
   8653e:	d1f4      	bne.n	8652a <_malloc_r+0x486>
   86540:	6872      	ldr	r2, [r6, #4]
   86542:	ea22 0203 	bic.w	r2, r2, r3
   86546:	6072      	str	r2, [r6, #4]
   86548:	005b      	lsls	r3, r3, #1
   8654a:	4293      	cmp	r3, r2
   8654c:	f63f ae9b 	bhi.w	86286 <_malloc_r+0x1e2>
   86550:	2b00      	cmp	r3, #0
   86552:	f43f ae98 	beq.w	86286 <_malloc_r+0x1e2>
   86556:	421a      	tst	r2, r3
   86558:	46cc      	mov	ip, r9
   8655a:	f47f ae45 	bne.w	861e8 <_malloc_r+0x144>
   8655e:	005b      	lsls	r3, r3, #1
   86560:	f10c 0c04 	add.w	ip, ip, #4
   86564:	421a      	tst	r2, r3
   86566:	d0fa      	beq.n	8655e <_malloc_r+0x4ba>
   86568:	e63e      	b.n	861e8 <_malloc_r+0x144>
   8656a:	f5bc 7faa 	cmp.w	ip, #340	; 0x154
   8656e:	d818      	bhi.n	865a2 <_malloc_r+0x4fe>
   86570:	ea4f 3cd4 	mov.w	ip, r4, lsr #15
   86574:	f10c 0c77 	add.w	ip, ip, #119	; 0x77
   86578:	ea4f 054c 	mov.w	r5, ip, lsl #1
   8657c:	e5d6      	b.n	8612c <_malloc_r+0x88>
   8657e:	2301      	movs	r3, #1
   86580:	4645      	mov	r5, r8
   86582:	f8c8 3004 	str.w	r3, [r8, #4]
   86586:	2200      	movs	r2, #0
   86588:	e724      	b.n	863d4 <_malloc_r+0x330>
   8658a:	f04f 0901 	mov.w	r9, #1
   8658e:	108d      	asrs	r5, r1, #2
   86590:	f8d8 1004 	ldr.w	r1, [r8, #4]
   86594:	4610      	mov	r0, r2
   86596:	fa09 f505 	lsl.w	r5, r9, r5
   8659a:	4329      	orrs	r1, r5
   8659c:	f8c8 1004 	str.w	r1, [r8, #4]
   865a0:	e77d      	b.n	8649e <_malloc_r+0x3fa>
   865a2:	f240 5354 	movw	r3, #1364	; 0x554
   865a6:	459c      	cmp	ip, r3
   865a8:	bf95      	itete	ls
   865aa:	ea4f 4c94 	movls.w	ip, r4, lsr #18
   865ae:	25fc      	movhi	r5, #252	; 0xfc
   865b0:	f10c 0c7c 	addls.w	ip, ip, #124	; 0x7c
   865b4:	f04f 0c7e 	movhi.w	ip, #126	; 0x7e
   865b8:	bf98      	it	ls
   865ba:	ea4f 054c 	movls.w	r5, ip, lsl #1
   865be:	e5b5      	b.n	8612c <_malloc_r+0x88>
   865c0:	f3c2 010b 	ubfx	r1, r2, #0, #12
   865c4:	2900      	cmp	r1, #0
   865c6:	f47f ae96 	bne.w	862f6 <_malloc_r+0x252>
   865ca:	68b2      	ldr	r2, [r6, #8]
   865cc:	eb0b 010a 	add.w	r1, fp, sl
   865d0:	f041 0101 	orr.w	r1, r1, #1
   865d4:	6051      	str	r1, [r2, #4]
   865d6:	e6e7      	b.n	863a8 <_malloc_r+0x304>
   865d8:	f105 0108 	add.w	r1, r5, #8
   865dc:	4638      	mov	r0, r7
   865de:	9201      	str	r2, [sp, #4]
   865e0:	f7ff fb78 	bl	85cd4 <_free_r>
   865e4:	9a01      	ldr	r2, [sp, #4]
   865e6:	6853      	ldr	r3, [r2, #4]
   865e8:	e6de      	b.n	863a8 <_malloc_r+0x304>
   865ea:	f5b2 7faa 	cmp.w	r2, #340	; 0x154
   865ee:	d803      	bhi.n	865f8 <_malloc_r+0x554>
   865f0:	0bc1      	lsrs	r1, r0, #15
   865f2:	3177      	adds	r1, #119	; 0x77
   865f4:	004d      	lsls	r5, r1, #1
   865f6:	e73f      	b.n	86478 <_malloc_r+0x3d4>
   865f8:	f240 5154 	movw	r1, #1364	; 0x554
   865fc:	428a      	cmp	r2, r1
   865fe:	bf95      	itete	ls
   86600:	0c81      	lsrls	r1, r0, #18
   86602:	25fc      	movhi	r5, #252	; 0xfc
   86604:	317c      	addls	r1, #124	; 0x7c
   86606:	217e      	movhi	r1, #126	; 0x7e
   86608:	bf98      	it	ls
   8660a:	004d      	lslls	r5, r1, #1
   8660c:	e734      	b.n	86478 <_malloc_r+0x3d4>
   8660e:	6872      	ldr	r2, [r6, #4]
   86610:	e79a      	b.n	86548 <_malloc_r+0x4a4>
   86612:	bf00      	nop

00086614 <memchr>:
   86614:	0783      	lsls	r3, r0, #30
   86616:	b2c9      	uxtb	r1, r1
   86618:	b470      	push	{r4, r5, r6}
   8661a:	d03f      	beq.n	8669c <memchr+0x88>
   8661c:	1e54      	subs	r4, r2, #1
   8661e:	b32a      	cbz	r2, 8666c <memchr+0x58>
   86620:	7803      	ldrb	r3, [r0, #0]
   86622:	428b      	cmp	r3, r1
   86624:	d023      	beq.n	8666e <memchr+0x5a>
   86626:	1c43      	adds	r3, r0, #1
   86628:	e004      	b.n	86634 <memchr+0x20>
   8662a:	b1fc      	cbz	r4, 8666c <memchr+0x58>
   8662c:	7805      	ldrb	r5, [r0, #0]
   8662e:	4614      	mov	r4, r2
   86630:	428d      	cmp	r5, r1
   86632:	d01c      	beq.n	8666e <memchr+0x5a>
   86634:	f013 0f03 	tst.w	r3, #3
   86638:	4618      	mov	r0, r3
   8663a:	f104 32ff 	add.w	r2, r4, #4294967295	; 0xffffffff
   8663e:	f103 0301 	add.w	r3, r3, #1
   86642:	d1f2      	bne.n	8662a <memchr+0x16>
   86644:	2c03      	cmp	r4, #3
   86646:	d814      	bhi.n	86672 <memchr+0x5e>
   86648:	1e65      	subs	r5, r4, #1
   8664a:	b34c      	cbz	r4, 866a0 <memchr+0x8c>
   8664c:	7803      	ldrb	r3, [r0, #0]
   8664e:	428b      	cmp	r3, r1
   86650:	d00d      	beq.n	8666e <memchr+0x5a>
   86652:	1c42      	adds	r2, r0, #1
   86654:	2300      	movs	r3, #0
   86656:	e002      	b.n	8665e <memchr+0x4a>
   86658:	7804      	ldrb	r4, [r0, #0]
   8665a:	428c      	cmp	r4, r1
   8665c:	d007      	beq.n	8666e <memchr+0x5a>
   8665e:	42ab      	cmp	r3, r5
   86660:	4610      	mov	r0, r2
   86662:	f103 0301 	add.w	r3, r3, #1
   86666:	f102 0201 	add.w	r2, r2, #1
   8666a:	d1f5      	bne.n	86658 <memchr+0x44>
   8666c:	2000      	movs	r0, #0
   8666e:	bc70      	pop	{r4, r5, r6}
   86670:	4770      	bx	lr
   86672:	ea41 2601 	orr.w	r6, r1, r1, lsl #8
   86676:	4603      	mov	r3, r0
   86678:	ea46 4606 	orr.w	r6, r6, r6, lsl #16
   8667c:	4618      	mov	r0, r3
   8667e:	3304      	adds	r3, #4
   86680:	6802      	ldr	r2, [r0, #0]
   86682:	4072      	eors	r2, r6
   86684:	f1a2 3501 	sub.w	r5, r2, #16843009	; 0x1010101
   86688:	ea25 0202 	bic.w	r2, r5, r2
   8668c:	f012 3f80 	tst.w	r2, #2155905152	; 0x80808080
   86690:	d1da      	bne.n	86648 <memchr+0x34>
   86692:	3c04      	subs	r4, #4
   86694:	4618      	mov	r0, r3
   86696:	2c03      	cmp	r4, #3
   86698:	d8f0      	bhi.n	8667c <memchr+0x68>
   8669a:	e7d5      	b.n	86648 <memchr+0x34>
   8669c:	4614      	mov	r4, r2
   8669e:	e7d1      	b.n	86644 <memchr+0x30>
   866a0:	4620      	mov	r0, r4
   866a2:	e7e4      	b.n	8666e <memchr+0x5a>

000866a4 <memcpy>:
   866a4:	2a0f      	cmp	r2, #15
   866a6:	b4f0      	push	{r4, r5, r6, r7}
   866a8:	d945      	bls.n	86736 <memcpy+0x92>
   866aa:	ea40 0301 	orr.w	r3, r0, r1
   866ae:	079b      	lsls	r3, r3, #30
   866b0:	d145      	bne.n	8673e <memcpy+0x9a>
   866b2:	f1a2 0710 	sub.w	r7, r2, #16
   866b6:	460c      	mov	r4, r1
   866b8:	4603      	mov	r3, r0
   866ba:	093f      	lsrs	r7, r7, #4
   866bc:	eb00 1607 	add.w	r6, r0, r7, lsl #4
   866c0:	3610      	adds	r6, #16
   866c2:	6825      	ldr	r5, [r4, #0]
   866c4:	3310      	adds	r3, #16
   866c6:	3410      	adds	r4, #16
   866c8:	f843 5c10 	str.w	r5, [r3, #-16]
   866cc:	f854 5c0c 	ldr.w	r5, [r4, #-12]
   866d0:	f843 5c0c 	str.w	r5, [r3, #-12]
   866d4:	f854 5c08 	ldr.w	r5, [r4, #-8]
   866d8:	f843 5c08 	str.w	r5, [r3, #-8]
   866dc:	f854 5c04 	ldr.w	r5, [r4, #-4]
   866e0:	f843 5c04 	str.w	r5, [r3, #-4]
   866e4:	42b3      	cmp	r3, r6
   866e6:	d1ec      	bne.n	866c2 <memcpy+0x1e>
   866e8:	1c7b      	adds	r3, r7, #1
   866ea:	f002 0c0f 	and.w	ip, r2, #15
   866ee:	f1bc 0f03 	cmp.w	ip, #3
   866f2:	ea4f 1303 	mov.w	r3, r3, lsl #4
   866f6:	4419      	add	r1, r3
   866f8:	4403      	add	r3, r0
   866fa:	d922      	bls.n	86742 <memcpy+0x9e>
   866fc:	460e      	mov	r6, r1
   866fe:	461d      	mov	r5, r3
   86700:	4664      	mov	r4, ip
   86702:	f856 7b04 	ldr.w	r7, [r6], #4
   86706:	3c04      	subs	r4, #4
   86708:	2c03      	cmp	r4, #3
   8670a:	f845 7b04 	str.w	r7, [r5], #4
   8670e:	d8f8      	bhi.n	86702 <memcpy+0x5e>
   86710:	f1ac 0404 	sub.w	r4, ip, #4
   86714:	f002 0203 	and.w	r2, r2, #3
   86718:	f024 0403 	bic.w	r4, r4, #3
   8671c:	3404      	adds	r4, #4
   8671e:	4423      	add	r3, r4
   86720:	4421      	add	r1, r4
   86722:	b132      	cbz	r2, 86732 <memcpy+0x8e>
   86724:	440a      	add	r2, r1
   86726:	f811 4b01 	ldrb.w	r4, [r1], #1
   8672a:	4291      	cmp	r1, r2
   8672c:	f803 4b01 	strb.w	r4, [r3], #1
   86730:	d1f9      	bne.n	86726 <memcpy+0x82>
   86732:	bcf0      	pop	{r4, r5, r6, r7}
   86734:	4770      	bx	lr
   86736:	4603      	mov	r3, r0
   86738:	2a00      	cmp	r2, #0
   8673a:	d1f3      	bne.n	86724 <memcpy+0x80>
   8673c:	e7f9      	b.n	86732 <memcpy+0x8e>
   8673e:	4603      	mov	r3, r0
   86740:	e7f0      	b.n	86724 <memcpy+0x80>
   86742:	4662      	mov	r2, ip
   86744:	2a00      	cmp	r2, #0
   86746:	d1ed      	bne.n	86724 <memcpy+0x80>
   86748:	e7f3      	b.n	86732 <memcpy+0x8e>
   8674a:	bf00      	nop

0008674c <__malloc_lock>:
   8674c:	4770      	bx	lr
   8674e:	bf00      	nop

00086750 <__malloc_unlock>:
   86750:	4770      	bx	lr
   86752:	bf00      	nop

00086754 <_Balloc>:
   86754:	b570      	push	{r4, r5, r6, lr}
   86756:	4606      	mov	r6, r0
   86758:	6a44      	ldr	r4, [r0, #36]	; 0x24
   8675a:	460d      	mov	r5, r1
   8675c:	b164      	cbz	r4, 86778 <_Balloc+0x24>
   8675e:	68e2      	ldr	r2, [r4, #12]
   86760:	b19a      	cbz	r2, 8678a <_Balloc+0x36>
   86762:	f852 3025 	ldr.w	r3, [r2, r5, lsl #2]
   86766:	b1e3      	cbz	r3, 867a2 <_Balloc+0x4e>
   86768:	6819      	ldr	r1, [r3, #0]
   8676a:	f842 1025 	str.w	r1, [r2, r5, lsl #2]
   8676e:	2200      	movs	r2, #0
   86770:	4618      	mov	r0, r3
   86772:	611a      	str	r2, [r3, #16]
   86774:	60da      	str	r2, [r3, #12]
   86776:	bd70      	pop	{r4, r5, r6, pc}
   86778:	2010      	movs	r0, #16
   8677a:	f7ff fc83 	bl	86084 <malloc>
   8677e:	6270      	str	r0, [r6, #36]	; 0x24
   86780:	6044      	str	r4, [r0, #4]
   86782:	6084      	str	r4, [r0, #8]
   86784:	6004      	str	r4, [r0, #0]
   86786:	60c4      	str	r4, [r0, #12]
   86788:	4604      	mov	r4, r0
   8678a:	2221      	movs	r2, #33	; 0x21
   8678c:	4630      	mov	r0, r6
   8678e:	2104      	movs	r1, #4
   86790:	f001 fdbc 	bl	8830c <_calloc_r>
   86794:	6a73      	ldr	r3, [r6, #36]	; 0x24
   86796:	60e0      	str	r0, [r4, #12]
   86798:	68da      	ldr	r2, [r3, #12]
   8679a:	2a00      	cmp	r2, #0
   8679c:	d1e1      	bne.n	86762 <_Balloc+0xe>
   8679e:	2000      	movs	r0, #0
   867a0:	bd70      	pop	{r4, r5, r6, pc}
   867a2:	2301      	movs	r3, #1
   867a4:	4630      	mov	r0, r6
   867a6:	4619      	mov	r1, r3
   867a8:	fa03 f405 	lsl.w	r4, r3, r5
   867ac:	1d62      	adds	r2, r4, #5
   867ae:	0092      	lsls	r2, r2, #2
   867b0:	f001 fdac 	bl	8830c <_calloc_r>
   867b4:	4603      	mov	r3, r0
   867b6:	2800      	cmp	r0, #0
   867b8:	d0f1      	beq.n	8679e <_Balloc+0x4a>
   867ba:	6045      	str	r5, [r0, #4]
   867bc:	6084      	str	r4, [r0, #8]
   867be:	e7d6      	b.n	8676e <_Balloc+0x1a>

000867c0 <_Bfree>:
   867c0:	b530      	push	{r4, r5, lr}
   867c2:	4604      	mov	r4, r0
   867c4:	6a45      	ldr	r5, [r0, #36]	; 0x24
   867c6:	b083      	sub	sp, #12
   867c8:	b155      	cbz	r5, 867e0 <_Bfree+0x20>
   867ca:	b139      	cbz	r1, 867dc <_Bfree+0x1c>
   867cc:	6a63      	ldr	r3, [r4, #36]	; 0x24
   867ce:	684a      	ldr	r2, [r1, #4]
   867d0:	68db      	ldr	r3, [r3, #12]
   867d2:	f853 0022 	ldr.w	r0, [r3, r2, lsl #2]
   867d6:	6008      	str	r0, [r1, #0]
   867d8:	f843 1022 	str.w	r1, [r3, r2, lsl #2]
   867dc:	b003      	add	sp, #12
   867de:	bd30      	pop	{r4, r5, pc}
   867e0:	2010      	movs	r0, #16
   867e2:	9101      	str	r1, [sp, #4]
   867e4:	f7ff fc4e 	bl	86084 <malloc>
   867e8:	9901      	ldr	r1, [sp, #4]
   867ea:	6260      	str	r0, [r4, #36]	; 0x24
   867ec:	6045      	str	r5, [r0, #4]
   867ee:	6085      	str	r5, [r0, #8]
   867f0:	6005      	str	r5, [r0, #0]
   867f2:	60c5      	str	r5, [r0, #12]
   867f4:	e7e9      	b.n	867ca <_Bfree+0xa>
   867f6:	bf00      	nop

000867f8 <__multadd>:
   867f8:	e92d 47f0 	stmdb	sp!, {r4, r5, r6, r7, r8, r9, sl, lr}
   867fc:	4688      	mov	r8, r1
   867fe:	f8d1 a010 	ldr.w	sl, [r1, #16]
   86802:	b082      	sub	sp, #8
   86804:	4681      	mov	r9, r0
   86806:	f101 0514 	add.w	r5, r1, #20
   8680a:	2400      	movs	r4, #0
   8680c:	682f      	ldr	r7, [r5, #0]
   8680e:	3401      	adds	r4, #1
   86810:	45a2      	cmp	sl, r4
   86812:	b2be      	uxth	r6, r7
   86814:	ea4f 4717 	mov.w	r7, r7, lsr #16
   86818:	fb02 3606 	mla	r6, r2, r6, r3
   8681c:	fb02 f307 	mul.w	r3, r2, r7
   86820:	eb03 4316 	add.w	r3, r3, r6, lsr #16
   86824:	b2b6      	uxth	r6, r6
   86826:	eb06 4603 	add.w	r6, r6, r3, lsl #16
   8682a:	ea4f 4313 	mov.w	r3, r3, lsr #16
   8682e:	f845 6b04 	str.w	r6, [r5], #4
   86832:	dceb      	bgt.n	8680c <__multadd+0x14>
   86834:	b153      	cbz	r3, 8684c <__multadd+0x54>
   86836:	f8d8 2008 	ldr.w	r2, [r8, #8]
   8683a:	4592      	cmp	sl, r2
   8683c:	da0a      	bge.n	86854 <__multadd+0x5c>
   8683e:	eb08 018a 	add.w	r1, r8, sl, lsl #2
   86842:	f10a 0201 	add.w	r2, sl, #1
   86846:	614b      	str	r3, [r1, #20]
   86848:	f8c8 2010 	str.w	r2, [r8, #16]
   8684c:	4640      	mov	r0, r8
   8684e:	b002      	add	sp, #8
   86850:	e8bd 87f0 	ldmia.w	sp!, {r4, r5, r6, r7, r8, r9, sl, pc}
   86854:	f8d8 1004 	ldr.w	r1, [r8, #4]
   86858:	4648      	mov	r0, r9
   8685a:	9301      	str	r3, [sp, #4]
   8685c:	3101      	adds	r1, #1
   8685e:	f7ff ff79 	bl	86754 <_Balloc>
   86862:	f8d8 2010 	ldr.w	r2, [r8, #16]
   86866:	f108 010c 	add.w	r1, r8, #12
   8686a:	3202      	adds	r2, #2
   8686c:	0092      	lsls	r2, r2, #2
   8686e:	4604      	mov	r4, r0
   86870:	300c      	adds	r0, #12
   86872:	f7ff ff17 	bl	866a4 <memcpy>
   86876:	4641      	mov	r1, r8
   86878:	4648      	mov	r0, r9
   8687a:	46a0      	mov	r8, r4
   8687c:	f7ff ffa0 	bl	867c0 <_Bfree>
   86880:	9b01      	ldr	r3, [sp, #4]
   86882:	e7dc      	b.n	8683e <__multadd+0x46>

00086884 <__s2b>:
   86884:	e92d 43f8 	stmdb	sp!, {r3, r4, r5, r6, r7, r8, r9, lr}
   86888:	4699      	mov	r9, r3
   8688a:	f648 6339 	movw	r3, #36409	; 0x8e39
   8688e:	f109 0508 	add.w	r5, r9, #8
   86892:	f6c3 03e3 	movt	r3, #14563	; 0x38e3
   86896:	460c      	mov	r4, r1
   86898:	4607      	mov	r7, r0
   8689a:	4690      	mov	r8, r2
   8689c:	fb83 1305 	smull	r1, r3, r3, r5
   868a0:	17ed      	asrs	r5, r5, #31
   868a2:	9e08      	ldr	r6, [sp, #32]
   868a4:	ebc5 0363 	rsb	r3, r5, r3, asr #1
   868a8:	2b01      	cmp	r3, #1
   868aa:	dd35      	ble.n	86918 <__s2b+0x94>
   868ac:	2501      	movs	r5, #1
   868ae:	2100      	movs	r1, #0
   868b0:	006d      	lsls	r5, r5, #1
   868b2:	3101      	adds	r1, #1
   868b4:	42ab      	cmp	r3, r5
   868b6:	dcfb      	bgt.n	868b0 <__s2b+0x2c>
   868b8:	4638      	mov	r0, r7
   868ba:	f7ff ff4b 	bl	86754 <_Balloc>
   868be:	f1b8 0f09 	cmp.w	r8, #9
   868c2:	f04f 0301 	mov.w	r3, #1
   868c6:	bfdc      	itt	le
   868c8:	340a      	addle	r4, #10
   868ca:	f04f 0809 	movle.w	r8, #9
   868ce:	6146      	str	r6, [r0, #20]
   868d0:	6103      	str	r3, [r0, #16]
   868d2:	dd10      	ble.n	868f6 <__s2b+0x72>
   868d4:	f104 0609 	add.w	r6, r4, #9
   868d8:	4444      	add	r4, r8
   868da:	4635      	mov	r5, r6
   868dc:	f815 3b01 	ldrb.w	r3, [r5], #1
   868e0:	4601      	mov	r1, r0
   868e2:	220a      	movs	r2, #10
   868e4:	4638      	mov	r0, r7
   868e6:	3b30      	subs	r3, #48	; 0x30
   868e8:	f7ff ff86 	bl	867f8 <__multadd>
   868ec:	42a5      	cmp	r5, r4
   868ee:	d1f5      	bne.n	868dc <__s2b+0x58>
   868f0:	eb06 0408 	add.w	r4, r6, r8
   868f4:	3c08      	subs	r4, #8
   868f6:	45c1      	cmp	r9, r8
   868f8:	dd0c      	ble.n	86914 <__s2b+0x90>
   868fa:	ebc8 0809 	rsb	r8, r8, r9
   868fe:	44a0      	add	r8, r4
   86900:	f814 3b01 	ldrb.w	r3, [r4], #1
   86904:	4601      	mov	r1, r0
   86906:	220a      	movs	r2, #10
   86908:	4638      	mov	r0, r7
   8690a:	3b30      	subs	r3, #48	; 0x30
   8690c:	f7ff ff74 	bl	867f8 <__multadd>
   86910:	4544      	cmp	r4, r8
   86912:	d1f5      	bne.n	86900 <__s2b+0x7c>
   86914:	e8bd 83f8 	ldmia.w	sp!, {r3, r4, r5, r6, r7, r8, r9, pc}
   86918:	2100      	movs	r1, #0
   8691a:	e7cd      	b.n	868b8 <__s2b+0x34>

0008691c <__hi0bits>:
   8691c:	0c03      	lsrs	r3, r0, #16
   8691e:	bf06      	itte	eq
   86920:	0400      	lsleq	r0, r0, #16
   86922:	2310      	moveq	r3, #16
   86924:	2300      	movne	r3, #0
   86926:	f010 4f7f 	tst.w	r0, #4278190080	; 0xff000000
   8692a:	bf04      	itt	eq
   8692c:	0200      	lsleq	r0, r0, #8
   8692e:	3308      	addeq	r3, #8
   86930:	f010 4f70 	tst.w	r0, #4026531840	; 0xf0000000
   86934:	bf04      	itt	eq
   86936:	0100      	lsleq	r0, r0, #4
   86938:	3304      	addeq	r3, #4
   8693a:	f010 4f40 	tst.w	r0, #3221225472	; 0xc0000000
   8693e:	bf04      	itt	eq
   86940:	0080      	lsleq	r0, r0, #2
   86942:	3302      	addeq	r3, #2
   86944:	2800      	cmp	r0, #0
   86946:	db05      	blt.n	86954 <__hi0bits+0x38>
   86948:	0042      	lsls	r2, r0, #1
   8694a:	d401      	bmi.n	86950 <__hi0bits+0x34>
   8694c:	2020      	movs	r0, #32
   8694e:	4770      	bx	lr
   86950:	1c58      	adds	r0, r3, #1
   86952:	4770      	bx	lr
   86954:	4618      	mov	r0, r3
   86956:	4770      	bx	lr

00086958 <__lo0bits>:
   86958:	6803      	ldr	r3, [r0, #0]
   8695a:	4602      	mov	r2, r0
   8695c:	f013 0007 	ands.w	r0, r3, #7
   86960:	d009      	beq.n	86976 <__lo0bits+0x1e>
   86962:	07d9      	lsls	r1, r3, #31
   86964:	d421      	bmi.n	869aa <__lo0bits+0x52>
   86966:	0798      	lsls	r0, r3, #30
   86968:	bf4b      	itete	mi
   8696a:	085b      	lsrmi	r3, r3, #1
   8696c:	089b      	lsrpl	r3, r3, #2
   8696e:	2001      	movmi	r0, #1
   86970:	2002      	movpl	r0, #2
   86972:	6013      	str	r3, [r2, #0]
   86974:	4770      	bx	lr
   86976:	b299      	uxth	r1, r3
   86978:	b909      	cbnz	r1, 8697e <__lo0bits+0x26>
   8697a:	0c1b      	lsrs	r3, r3, #16
   8697c:	2010      	movs	r0, #16
   8697e:	f013 0fff 	tst.w	r3, #255	; 0xff
   86982:	bf04      	itt	eq
   86984:	0a1b      	lsreq	r3, r3, #8
   86986:	3008      	addeq	r0, #8
   86988:	0719      	lsls	r1, r3, #28
   8698a:	bf04      	itt	eq
   8698c:	091b      	lsreq	r3, r3, #4
   8698e:	3004      	addeq	r0, #4
   86990:	0799      	lsls	r1, r3, #30
   86992:	bf04      	itt	eq
   86994:	089b      	lsreq	r3, r3, #2
   86996:	3002      	addeq	r0, #2
   86998:	07d9      	lsls	r1, r3, #31
   8699a:	d404      	bmi.n	869a6 <__lo0bits+0x4e>
   8699c:	085b      	lsrs	r3, r3, #1
   8699e:	d101      	bne.n	869a4 <__lo0bits+0x4c>
   869a0:	2020      	movs	r0, #32
   869a2:	4770      	bx	lr
   869a4:	3001      	adds	r0, #1
   869a6:	6013      	str	r3, [r2, #0]
   869a8:	4770      	bx	lr
   869aa:	2000      	movs	r0, #0
   869ac:	4770      	bx	lr
   869ae:	bf00      	nop

000869b0 <__i2b>:
   869b0:	b510      	push	{r4, lr}
   869b2:	460c      	mov	r4, r1
   869b4:	2101      	movs	r1, #1
   869b6:	f7ff fecd 	bl	86754 <_Balloc>
   869ba:	2201      	movs	r2, #1
   869bc:	6144      	str	r4, [r0, #20]
   869be:	6102      	str	r2, [r0, #16]
   869c0:	bd10      	pop	{r4, pc}
   869c2:	bf00      	nop

000869c4 <__multiply>:
   869c4:	e92d 4ff0 	stmdb	sp!, {r4, r5, r6, r7, r8, r9, sl, fp, lr}
   869c8:	460c      	mov	r4, r1
   869ca:	690e      	ldr	r6, [r1, #16]
   869cc:	b085      	sub	sp, #20
   869ce:	6915      	ldr	r5, [r2, #16]
   869d0:	4693      	mov	fp, r2
   869d2:	42ae      	cmp	r6, r5
   869d4:	da04      	bge.n	869e0 <__multiply+0x1c>
   869d6:	4632      	mov	r2, r6
   869d8:	465c      	mov	r4, fp
   869da:	462e      	mov	r6, r5
   869dc:	468b      	mov	fp, r1
   869de:	4615      	mov	r5, r2
   869e0:	68a3      	ldr	r3, [r4, #8]
   869e2:	eb06 0905 	add.w	r9, r6, r5
   869e6:	6861      	ldr	r1, [r4, #4]
   869e8:	4599      	cmp	r9, r3
   869ea:	bfc8      	it	gt
   869ec:	3101      	addgt	r1, #1
   869ee:	f7ff feb1 	bl	86754 <_Balloc>
   869f2:	f100 0a14 	add.w	sl, r0, #20
   869f6:	9002      	str	r0, [sp, #8]
   869f8:	eb0a 0189 	add.w	r1, sl, r9, lsl #2
   869fc:	9101      	str	r1, [sp, #4]
   869fe:	458a      	cmp	sl, r1
   86a00:	d206      	bcs.n	86a10 <__multiply+0x4c>
   86a02:	9a01      	ldr	r2, [sp, #4]
   86a04:	4653      	mov	r3, sl
   86a06:	2000      	movs	r0, #0
   86a08:	f843 0b04 	str.w	r0, [r3], #4
   86a0c:	429a      	cmp	r2, r3
   86a0e:	d8fb      	bhi.n	86a08 <__multiply+0x44>
   86a10:	f10b 0b14 	add.w	fp, fp, #20
   86a14:	3414      	adds	r4, #20
   86a16:	eb0b 0585 	add.w	r5, fp, r5, lsl #2
   86a1a:	9400      	str	r4, [sp, #0]
   86a1c:	45ab      	cmp	fp, r5
   86a1e:	eb04 0686 	add.w	r6, r4, r6, lsl #2
   86a22:	bf3c      	itt	cc
   86a24:	f8cd 900c 	strcc.w	r9, [sp, #12]
   86a28:	46a9      	movcc	r9, r5
   86a2a:	d254      	bcs.n	86ad6 <__multiply+0x112>
   86a2c:	f85b 3b04 	ldr.w	r3, [fp], #4
   86a30:	b29c      	uxth	r4, r3
   86a32:	2c00      	cmp	r4, #0
   86a34:	d064      	beq.n	86b00 <__multiply+0x13c>
   86a36:	9900      	ldr	r1, [sp, #0]
   86a38:	4652      	mov	r2, sl
   86a3a:	2500      	movs	r5, #0
   86a3c:	46a4      	mov	ip, r4
   86a3e:	e000      	b.n	86a42 <__multiply+0x7e>
   86a40:	461a      	mov	r2, r3
   86a42:	f851 4b04 	ldr.w	r4, [r1], #4
   86a46:	4613      	mov	r3, r2
   86a48:	6817      	ldr	r7, [r2, #0]
   86a4a:	428e      	cmp	r6, r1
   86a4c:	fa1f f884 	uxth.w	r8, r4
   86a50:	ea4f 4414 	mov.w	r4, r4, lsr #16
   86a54:	b2b8      	uxth	r0, r7
   86a56:	ea4f 4717 	mov.w	r7, r7, lsr #16
   86a5a:	fb0c 0808 	mla	r8, ip, r8, r0
   86a5e:	fb0c 7004 	mla	r0, ip, r4, r7
   86a62:	4445      	add	r5, r8
   86a64:	eb00 4015 	add.w	r0, r0, r5, lsr #16
   86a68:	b2ad      	uxth	r5, r5
   86a6a:	ea45 4400 	orr.w	r4, r5, r0, lsl #16
   86a6e:	ea4f 4510 	mov.w	r5, r0, lsr #16
   86a72:	f843 4b04 	str.w	r4, [r3], #4
   86a76:	d8e3      	bhi.n	86a40 <__multiply+0x7c>
   86a78:	6055      	str	r5, [r2, #4]
   86a7a:	f85b 4c04 	ldr.w	r4, [fp, #-4]
   86a7e:	0c24      	lsrs	r4, r4, #16
   86a80:	d023      	beq.n	86aca <__multiply+0x106>
   86a82:	f8da 1000 	ldr.w	r1, [sl]
   86a86:	4650      	mov	r0, sl
   86a88:	9b00      	ldr	r3, [sp, #0]
   86a8a:	2700      	movs	r7, #0
   86a8c:	460d      	mov	r5, r1
   86a8e:	e000      	b.n	86a92 <__multiply+0xce>
   86a90:	4610      	mov	r0, r2
   86a92:	f8b3 c000 	ldrh.w	ip, [r3]
   86a96:	0c2d      	lsrs	r5, r5, #16
   86a98:	4602      	mov	r2, r0
   86a9a:	b289      	uxth	r1, r1
   86a9c:	fb04 550c 	mla	r5, r4, ip, r5
   86aa0:	442f      	add	r7, r5
   86aa2:	ea41 4107 	orr.w	r1, r1, r7, lsl #16
   86aa6:	f842 1b04 	str.w	r1, [r2], #4
   86aaa:	6841      	ldr	r1, [r0, #4]
   86aac:	f853 cb04 	ldr.w	ip, [r3], #4
   86ab0:	460d      	mov	r5, r1
   86ab2:	b289      	uxth	r1, r1
   86ab4:	429e      	cmp	r6, r3
   86ab6:	ea4f 4c1c 	mov.w	ip, ip, lsr #16
   86aba:	fb04 110c 	mla	r1, r4, ip, r1
   86abe:	eb01 4117 	add.w	r1, r1, r7, lsr #16
   86ac2:	ea4f 4711 	mov.w	r7, r1, lsr #16
   86ac6:	d8e3      	bhi.n	86a90 <__multiply+0xcc>
   86ac8:	6041      	str	r1, [r0, #4]
   86aca:	45d9      	cmp	r9, fp
   86acc:	f10a 0a04 	add.w	sl, sl, #4
   86ad0:	d8ac      	bhi.n	86a2c <__multiply+0x68>
   86ad2:	f8dd 900c 	ldr.w	r9, [sp, #12]
   86ad6:	f1b9 0f00 	cmp.w	r9, #0
   86ada:	dd0a      	ble.n	86af2 <__multiply+0x12e>
   86adc:	9b01      	ldr	r3, [sp, #4]
   86ade:	3b04      	subs	r3, #4
   86ae0:	681a      	ldr	r2, [r3, #0]
   86ae2:	b11a      	cbz	r2, 86aec <__multiply+0x128>
   86ae4:	e005      	b.n	86af2 <__multiply+0x12e>
   86ae6:	f853 2d04 	ldr.w	r2, [r3, #-4]!
   86aea:	b912      	cbnz	r2, 86af2 <__multiply+0x12e>
   86aec:	f1b9 0901 	subs.w	r9, r9, #1
   86af0:	d1f9      	bne.n	86ae6 <__multiply+0x122>
   86af2:	9902      	ldr	r1, [sp, #8]
   86af4:	4608      	mov	r0, r1
   86af6:	f8c1 9010 	str.w	r9, [r1, #16]
   86afa:	b005      	add	sp, #20
   86afc:	e8bd 8ff0 	ldmia.w	sp!, {r4, r5, r6, r7, r8, r9, sl, fp, pc}
   86b00:	461c      	mov	r4, r3
   86b02:	e7bc      	b.n	86a7e <__multiply+0xba>

00086b04 <__pow5mult>:
   86b04:	f012 0303 	ands.w	r3, r2, #3
   86b08:	e92d 43f0 	stmdb	sp!, {r4, r5, r6, r7, r8, r9, lr}
   86b0c:	4614      	mov	r4, r2
   86b0e:	b083      	sub	sp, #12
   86b10:	4607      	mov	r7, r0
   86b12:	460e      	mov	r6, r1
   86b14:	d12b      	bne.n	86b6e <__pow5mult+0x6a>
   86b16:	10a4      	asrs	r4, r4, #2
   86b18:	d01c      	beq.n	86b54 <__pow5mult+0x50>
   86b1a:	6a7b      	ldr	r3, [r7, #36]	; 0x24
   86b1c:	2b00      	cmp	r3, #0
   86b1e:	d032      	beq.n	86b86 <__pow5mult+0x82>
   86b20:	689d      	ldr	r5, [r3, #8]
   86b22:	2d00      	cmp	r5, #0
   86b24:	d03a      	beq.n	86b9c <__pow5mult+0x98>
   86b26:	f04f 0900 	mov.w	r9, #0
   86b2a:	e004      	b.n	86b36 <__pow5mult+0x32>
   86b2c:	1064      	asrs	r4, r4, #1
   86b2e:	d011      	beq.n	86b54 <__pow5mult+0x50>
   86b30:	6828      	ldr	r0, [r5, #0]
   86b32:	b198      	cbz	r0, 86b5c <__pow5mult+0x58>
   86b34:	4605      	mov	r5, r0
   86b36:	07e3      	lsls	r3, r4, #31
   86b38:	d5f8      	bpl.n	86b2c <__pow5mult+0x28>
   86b3a:	4631      	mov	r1, r6
   86b3c:	462a      	mov	r2, r5
   86b3e:	4638      	mov	r0, r7
   86b40:	f7ff ff40 	bl	869c4 <__multiply>
   86b44:	4631      	mov	r1, r6
   86b46:	4680      	mov	r8, r0
   86b48:	4638      	mov	r0, r7
   86b4a:	f7ff fe39 	bl	867c0 <_Bfree>
   86b4e:	1064      	asrs	r4, r4, #1
   86b50:	4646      	mov	r6, r8
   86b52:	d1ed      	bne.n	86b30 <__pow5mult+0x2c>
   86b54:	4630      	mov	r0, r6
   86b56:	b003      	add	sp, #12
   86b58:	e8bd 83f0 	ldmia.w	sp!, {r4, r5, r6, r7, r8, r9, pc}
   86b5c:	4638      	mov	r0, r7
   86b5e:	4629      	mov	r1, r5
   86b60:	462a      	mov	r2, r5
   86b62:	f7ff ff2f 	bl	869c4 <__multiply>
   86b66:	6028      	str	r0, [r5, #0]
   86b68:	f8c0 9000 	str.w	r9, [r0]
   86b6c:	e7e2      	b.n	86b34 <__pow5mult+0x30>
   86b6e:	f24a 12d0 	movw	r2, #41424	; 0xa1d0
   86b72:	1e5d      	subs	r5, r3, #1
   86b74:	f2c0 0208 	movt	r2, #8
   86b78:	2300      	movs	r3, #0
   86b7a:	f852 2025 	ldr.w	r2, [r2, r5, lsl #2]
   86b7e:	f7ff fe3b 	bl	867f8 <__multadd>
   86b82:	4606      	mov	r6, r0
   86b84:	e7c7      	b.n	86b16 <__pow5mult+0x12>
   86b86:	2010      	movs	r0, #16
   86b88:	9301      	str	r3, [sp, #4]
   86b8a:	f7ff fa7b 	bl	86084 <malloc>
   86b8e:	9b01      	ldr	r3, [sp, #4]
   86b90:	6278      	str	r0, [r7, #36]	; 0x24
   86b92:	6043      	str	r3, [r0, #4]
   86b94:	6083      	str	r3, [r0, #8]
   86b96:	6003      	str	r3, [r0, #0]
   86b98:	60c3      	str	r3, [r0, #12]
   86b9a:	4603      	mov	r3, r0
   86b9c:	2101      	movs	r1, #1
   86b9e:	4638      	mov	r0, r7
   86ba0:	9301      	str	r3, [sp, #4]
   86ba2:	f7ff fdd7 	bl	86754 <_Balloc>
   86ba6:	9b01      	ldr	r3, [sp, #4]
   86ba8:	f240 2271 	movw	r2, #625	; 0x271
   86bac:	2101      	movs	r1, #1
   86bae:	6142      	str	r2, [r0, #20]
   86bb0:	4605      	mov	r5, r0
   86bb2:	2200      	movs	r2, #0
   86bb4:	6101      	str	r1, [r0, #16]
   86bb6:	6098      	str	r0, [r3, #8]
   86bb8:	6002      	str	r2, [r0, #0]
   86bba:	e7b4      	b.n	86b26 <__pow5mult+0x22>

00086bbc <__lshift>:
   86bbc:	e92d 4ff8 	stmdb	sp!, {r3, r4, r5, r6, r7, r8, r9, sl, fp, lr}
   86bc0:	4693      	mov	fp, r2
   86bc2:	690a      	ldr	r2, [r1, #16]
   86bc4:	460f      	mov	r7, r1
   86bc6:	ea4f 156b 	mov.w	r5, fp, asr #5
   86bca:	688b      	ldr	r3, [r1, #8]
   86bcc:	eb05 0902 	add.w	r9, r5, r2
   86bd0:	4680      	mov	r8, r0
   86bd2:	f109 0601 	add.w	r6, r9, #1
   86bd6:	6849      	ldr	r1, [r1, #4]
   86bd8:	429e      	cmp	r6, r3
   86bda:	dd03      	ble.n	86be4 <__lshift+0x28>
   86bdc:	005b      	lsls	r3, r3, #1
   86bde:	3101      	adds	r1, #1
   86be0:	429e      	cmp	r6, r3
   86be2:	dcfb      	bgt.n	86bdc <__lshift+0x20>
   86be4:	4640      	mov	r0, r8
   86be6:	f7ff fdb5 	bl	86754 <_Balloc>
   86bea:	2d00      	cmp	r5, #0
   86bec:	4682      	mov	sl, r0
   86bee:	f100 0414 	add.w	r4, r0, #20
   86bf2:	dd09      	ble.n	86c08 <__lshift+0x4c>
   86bf4:	2300      	movs	r3, #0
   86bf6:	4622      	mov	r2, r4
   86bf8:	4619      	mov	r1, r3
   86bfa:	3301      	adds	r3, #1
   86bfc:	f842 1b04 	str.w	r1, [r2], #4
   86c00:	42ab      	cmp	r3, r5
   86c02:	d1fa      	bne.n	86bfa <__lshift+0x3e>
   86c04:	eb04 0483 	add.w	r4, r4, r3, lsl #2
   86c08:	693a      	ldr	r2, [r7, #16]
   86c0a:	f01b 0b1f 	ands.w	fp, fp, #31
   86c0e:	f107 0314 	add.w	r3, r7, #20
   86c12:	eb03 0282 	add.w	r2, r3, r2, lsl #2
   86c16:	d01f      	beq.n	86c58 <__lshift+0x9c>
   86c18:	f1cb 0e20 	rsb	lr, fp, #32
   86c1c:	2000      	movs	r0, #0
   86c1e:	e000      	b.n	86c22 <__lshift+0x66>
   86c20:	462c      	mov	r4, r5
   86c22:	6819      	ldr	r1, [r3, #0]
   86c24:	4625      	mov	r5, r4
   86c26:	fa01 f10b 	lsl.w	r1, r1, fp
   86c2a:	4308      	orrs	r0, r1
   86c2c:	f845 0b04 	str.w	r0, [r5], #4
   86c30:	f853 0b04 	ldr.w	r0, [r3], #4
   86c34:	4293      	cmp	r3, r2
   86c36:	fa20 f00e 	lsr.w	r0, r0, lr
   86c3a:	d3f1      	bcc.n	86c20 <__lshift+0x64>
   86c3c:	6060      	str	r0, [r4, #4]
   86c3e:	b108      	cbz	r0, 86c44 <__lshift+0x88>
   86c40:	f109 0602 	add.w	r6, r9, #2
   86c44:	4640      	mov	r0, r8
   86c46:	3e01      	subs	r6, #1
   86c48:	4639      	mov	r1, r7
   86c4a:	f8ca 6010 	str.w	r6, [sl, #16]
   86c4e:	f7ff fdb7 	bl	867c0 <_Bfree>
   86c52:	4650      	mov	r0, sl
   86c54:	e8bd 8ff8 	ldmia.w	sp!, {r3, r4, r5, r6, r7, r8, r9, sl, fp, pc}
   86c58:	f853 1b04 	ldr.w	r1, [r3], #4
   86c5c:	429a      	cmp	r2, r3
   86c5e:	f844 1b04 	str.w	r1, [r4], #4
   86c62:	d9ef      	bls.n	86c44 <__lshift+0x88>
   86c64:	f853 1b04 	ldr.w	r1, [r3], #4
   86c68:	429a      	cmp	r2, r3
   86c6a:	f844 1b04 	str.w	r1, [r4], #4
   86c6e:	d8f3      	bhi.n	86c58 <__lshift+0x9c>
   86c70:	e7e8      	b.n	86c44 <__lshift+0x88>
   86c72:	bf00      	nop

00086c74 <__mcmp>:
   86c74:	6902      	ldr	r2, [r0, #16]
   86c76:	690b      	ldr	r3, [r1, #16]
   86c78:	b410      	push	{r4}
   86c7a:	1ad2      	subs	r2, r2, r3
   86c7c:	bf18      	it	ne
   86c7e:	4610      	movne	r0, r2
   86c80:	d112      	bne.n	86ca8 <__mcmp+0x34>
   86c82:	009a      	lsls	r2, r3, #2
   86c84:	3014      	adds	r0, #20
   86c86:	3114      	adds	r1, #20
   86c88:	1883      	adds	r3, r0, r2
   86c8a:	4411      	add	r1, r2
   86c8c:	e001      	b.n	86c92 <__mcmp+0x1e>
   86c8e:	4298      	cmp	r0, r3
   86c90:	d20d      	bcs.n	86cae <__mcmp+0x3a>
   86c92:	f853 2d04 	ldr.w	r2, [r3, #-4]!
   86c96:	f851 4d04 	ldr.w	r4, [r1, #-4]!
   86c9a:	42a2      	cmp	r2, r4
   86c9c:	d0f7      	beq.n	86c8e <__mcmp+0x1a>
   86c9e:	4294      	cmp	r4, r2
   86ca0:	bf94      	ite	ls
   86ca2:	2001      	movls	r0, #1
   86ca4:	f04f 30ff 	movhi.w	r0, #4294967295	; 0xffffffff
   86ca8:	f85d 4b04 	ldr.w	r4, [sp], #4
   86cac:	4770      	bx	lr
   86cae:	2000      	movs	r0, #0
   86cb0:	f85d 4b04 	ldr.w	r4, [sp], #4
   86cb4:	4770      	bx	lr
   86cb6:	bf00      	nop

00086cb8 <__mdiff>:
   86cb8:	e92d 4ff8 	stmdb	sp!, {r3, r4, r5, r6, r7, r8, r9, sl, fp, lr}
   86cbc:	4688      	mov	r8, r1
   86cbe:	4605      	mov	r5, r0
   86cc0:	4611      	mov	r1, r2
   86cc2:	4640      	mov	r0, r8
   86cc4:	4614      	mov	r4, r2
   86cc6:	f7ff ffd5 	bl	86c74 <__mcmp>
   86cca:	1e06      	subs	r6, r0, #0
   86ccc:	d05f      	beq.n	86d8e <__mdiff+0xd6>
   86cce:	bfbc      	itt	lt
   86cd0:	4643      	movlt	r3, r8
   86cd2:	46a0      	movlt	r8, r4
   86cd4:	4628      	mov	r0, r5
   86cd6:	bfb8      	it	lt
   86cd8:	461c      	movlt	r4, r3
   86cda:	f8d8 1004 	ldr.w	r1, [r8, #4]
   86cde:	bfac      	ite	ge
   86ce0:	2600      	movge	r6, #0
   86ce2:	2601      	movlt	r6, #1
   86ce4:	f7ff fd36 	bl	86754 <_Balloc>
   86ce8:	f8d8 c010 	ldr.w	ip, [r8, #16]
   86cec:	f104 0914 	add.w	r9, r4, #20
   86cf0:	6922      	ldr	r2, [r4, #16]
   86cf2:	f108 0814 	add.w	r8, r8, #20
   86cf6:	4644      	mov	r4, r8
   86cf8:	464d      	mov	r5, r9
   86cfa:	eb08 088c 	add.w	r8, r8, ip, lsl #2
   86cfe:	eb09 0982 	add.w	r9, r9, r2, lsl #2
   86d02:	2200      	movs	r2, #0
   86d04:	4682      	mov	sl, r0
   86d06:	f100 0314 	add.w	r3, r0, #20
   86d0a:	60c6      	str	r6, [r0, #12]
   86d0c:	f854 7b04 	ldr.w	r7, [r4], #4
   86d10:	f855 0b04 	ldr.w	r0, [r5], #4
   86d14:	4621      	mov	r1, r4
   86d16:	b2be      	uxth	r6, r7
   86d18:	45a9      	cmp	r9, r5
   86d1a:	4432      	add	r2, r6
   86d1c:	fa1f fb80 	uxth.w	fp, r0
   86d20:	ebcb 0602 	rsb	r6, fp, r2
   86d24:	ea4f 4210 	mov.w	r2, r0, lsr #16
   86d28:	ebc2 4217 	rsb	r2, r2, r7, lsr #16
   86d2c:	eb02 4226 	add.w	r2, r2, r6, asr #16
   86d30:	b2b6      	uxth	r6, r6
   86d32:	ea46 4602 	orr.w	r6, r6, r2, lsl #16
   86d36:	ea4f 4222 	mov.w	r2, r2, asr #16
   86d3a:	f843 6b04 	str.w	r6, [r3], #4
   86d3e:	d8e5      	bhi.n	86d0c <__mdiff+0x54>
   86d40:	45a0      	cmp	r8, r4
   86d42:	461d      	mov	r5, r3
   86d44:	d916      	bls.n	86d74 <__mdiff+0xbc>
   86d46:	f851 0b04 	ldr.w	r0, [r1], #4
   86d4a:	4588      	cmp	r8, r1
   86d4c:	b286      	uxth	r6, r0
   86d4e:	ea4f 4010 	mov.w	r0, r0, lsr #16
   86d52:	4432      	add	r2, r6
   86d54:	eb00 4022 	add.w	r0, r0, r2, asr #16
   86d58:	b292      	uxth	r2, r2
   86d5a:	ea42 4600 	orr.w	r6, r2, r0, lsl #16
   86d5e:	ea4f 4220 	mov.w	r2, r0, asr #16
   86d62:	f843 6b04 	str.w	r6, [r3], #4
   86d66:	d8ee      	bhi.n	86d46 <__mdiff+0x8e>
   86d68:	43e3      	mvns	r3, r4
   86d6a:	4443      	add	r3, r8
   86d6c:	f023 0303 	bic.w	r3, r3, #3
   86d70:	3304      	adds	r3, #4
   86d72:	442b      	add	r3, r5
   86d74:	3b04      	subs	r3, #4
   86d76:	b92e      	cbnz	r6, 86d84 <__mdiff+0xcc>
   86d78:	f853 2d04 	ldr.w	r2, [r3, #-4]!
   86d7c:	f10c 3cff 	add.w	ip, ip, #4294967295	; 0xffffffff
   86d80:	2a00      	cmp	r2, #0
   86d82:	d0f9      	beq.n	86d78 <__mdiff+0xc0>
   86d84:	4650      	mov	r0, sl
   86d86:	f8ca c010 	str.w	ip, [sl, #16]
   86d8a:	e8bd 8ff8 	ldmia.w	sp!, {r3, r4, r5, r6, r7, r8, r9, sl, fp, pc}
   86d8e:	4628      	mov	r0, r5
   86d90:	4631      	mov	r1, r6
   86d92:	f7ff fcdf 	bl	86754 <_Balloc>
   86d96:	2201      	movs	r2, #1
   86d98:	4603      	mov	r3, r0
   86d9a:	615e      	str	r6, [r3, #20]
   86d9c:	611a      	str	r2, [r3, #16]
   86d9e:	e8bd 8ff8 	ldmia.w	sp!, {r3, r4, r5, r6, r7, r8, r9, sl, fp, pc}
   86da2:	bf00      	nop

00086da4 <__ulp>:
   86da4:	2300      	movs	r3, #0
   86da6:	f6c7 73f0 	movt	r3, #32752	; 0x7ff0
   86daa:	400b      	ands	r3, r1
   86dac:	f1a3 7350 	sub.w	r3, r3, #54525952	; 0x3400000
   86db0:	2b00      	cmp	r3, #0
   86db2:	dd02      	ble.n	86dba <__ulp+0x16>
   86db4:	4619      	mov	r1, r3
   86db6:	2000      	movs	r0, #0
   86db8:	4770      	bx	lr
   86dba:	425b      	negs	r3, r3
   86dbc:	151b      	asrs	r3, r3, #20
   86dbe:	2b13      	cmp	r3, #19
   86dc0:	dd0b      	ble.n	86dda <__ulp+0x36>
   86dc2:	2b32      	cmp	r3, #50	; 0x32
   86dc4:	f04f 0100 	mov.w	r1, #0
   86dc8:	bfdb      	ittet	le
   86dca:	2201      	movle	r2, #1
   86dcc:	f1c3 0333 	rsble	r3, r3, #51	; 0x33
   86dd0:	2301      	movgt	r3, #1
   86dd2:	fa02 f303 	lslle.w	r3, r2, r3
   86dd6:	4618      	mov	r0, r3
   86dd8:	4770      	bx	lr
   86dda:	f44f 2200 	mov.w	r2, #524288	; 0x80000
   86dde:	2000      	movs	r0, #0
   86de0:	fa42 f103 	asr.w	r1, r2, r3
   86de4:	4770      	bx	lr
   86de6:	bf00      	nop

00086de8 <__b2d>:
   86de8:	b5f8      	push	{r3, r4, r5, r6, r7, lr}
   86dea:	f100 0614 	add.w	r6, r0, #20
   86dee:	6904      	ldr	r4, [r0, #16]
   86df0:	eb06 0484 	add.w	r4, r6, r4, lsl #2
   86df4:	1f27      	subs	r7, r4, #4
   86df6:	f854 5c04 	ldr.w	r5, [r4, #-4]
   86dfa:	4628      	mov	r0, r5
   86dfc:	f7ff fd8e 	bl	8691c <__hi0bits>
   86e00:	280a      	cmp	r0, #10
   86e02:	f1c0 0320 	rsb	r3, r0, #32
   86e06:	600b      	str	r3, [r1, #0]
   86e08:	dc18      	bgt.n	86e3c <__b2d+0x54>
   86e0a:	42be      	cmp	r6, r7
   86e0c:	f1c0 010b 	rsb	r1, r0, #11
   86e10:	fa25 fc01 	lsr.w	ip, r5, r1
   86e14:	f100 0015 	add.w	r0, r0, #21
   86e18:	bf34      	ite	cc
   86e1a:	f854 4c08 	ldrcc.w	r4, [r4, #-8]
   86e1e:	2100      	movcs	r1, #0
   86e20:	fa05 f500 	lsl.w	r5, r5, r0
   86e24:	f04c 5c7f 	orr.w	ip, ip, #1069547520	; 0x3fc00000
   86e28:	f44c 1340 	orr.w	r3, ip, #3145728	; 0x300000
   86e2c:	bf38      	it	cc
   86e2e:	fa24 f101 	lsrcc.w	r1, r4, r1
   86e32:	ea41 0205 	orr.w	r2, r1, r5
   86e36:	4619      	mov	r1, r3
   86e38:	4610      	mov	r0, r2
   86e3a:	bdf8      	pop	{r3, r4, r5, r6, r7, pc}
   86e3c:	42be      	cmp	r6, r7
   86e3e:	bf36      	itet	cc
   86e40:	f1a4 0708 	subcc.w	r7, r4, #8
   86e44:	2100      	movcs	r1, #0
   86e46:	f854 1c08 	ldrcc.w	r1, [r4, #-8]
   86e4a:	f1b0 040b 	subs.w	r4, r0, #11
   86e4e:	d019      	beq.n	86e84 <__b2d+0x9c>
   86e50:	40a5      	lsls	r5, r4
   86e52:	f1c0 002b 	rsb	r0, r0, #43	; 0x2b
   86e56:	42b7      	cmp	r7, r6
   86e58:	f045 557f 	orr.w	r5, r5, #1069547520	; 0x3fc00000
   86e5c:	fa21 fc00 	lsr.w	ip, r1, r0
   86e60:	f445 1540 	orr.w	r5, r5, #3145728	; 0x300000
   86e64:	ea45 030c 	orr.w	r3, r5, ip
   86e68:	bf8c      	ite	hi
   86e6a:	f857 5c04 	ldrhi.w	r5, [r7, #-4]
   86e6e:	2000      	movls	r0, #0
   86e70:	fa01 f104 	lsl.w	r1, r1, r4
   86e74:	bf88      	it	hi
   86e76:	fa25 f000 	lsrhi.w	r0, r5, r0
   86e7a:	ea40 0201 	orr.w	r2, r0, r1
   86e7e:	4619      	mov	r1, r3
   86e80:	4610      	mov	r0, r2
   86e82:	bdf8      	pop	{r3, r4, r5, r6, r7, pc}
   86e84:	f045 557f 	orr.w	r5, r5, #1069547520	; 0x3fc00000
   86e88:	460a      	mov	r2, r1
   86e8a:	f445 1340 	orr.w	r3, r5, #3145728	; 0x300000
   86e8e:	4610      	mov	r0, r2
   86e90:	4619      	mov	r1, r3
   86e92:	bdf8      	pop	{r3, r4, r5, r6, r7, pc}

00086e94 <__d2b>:
   86e94:	e92d 43f0 	stmdb	sp!, {r4, r5, r6, r7, r8, r9, lr}
   86e98:	b083      	sub	sp, #12
   86e9a:	2101      	movs	r1, #1
   86e9c:	461d      	mov	r5, r3
   86e9e:	f3c3 560a 	ubfx	r6, r3, #20, #11
   86ea2:	4614      	mov	r4, r2
   86ea4:	9f0a      	ldr	r7, [sp, #40]	; 0x28
   86ea6:	f7ff fc55 	bl	86754 <_Balloc>
   86eaa:	f3c5 0313 	ubfx	r3, r5, #0, #20
   86eae:	4680      	mov	r8, r0
   86eb0:	b10e      	cbz	r6, 86eb6 <__d2b+0x22>
   86eb2:	f443 1380 	orr.w	r3, r3, #1048576	; 0x100000
   86eb6:	9301      	str	r3, [sp, #4]
   86eb8:	b324      	cbz	r4, 86f04 <__d2b+0x70>
   86eba:	a802      	add	r0, sp, #8
   86ebc:	f840 4d08 	str.w	r4, [r0, #-8]!
   86ec0:	4668      	mov	r0, sp
   86ec2:	f7ff fd49 	bl	86958 <__lo0bits>
   86ec6:	2800      	cmp	r0, #0
   86ec8:	d134      	bne.n	86f34 <__d2b+0xa0>
   86eca:	9b00      	ldr	r3, [sp, #0]
   86ecc:	9901      	ldr	r1, [sp, #4]
   86ece:	f8c8 3014 	str.w	r3, [r8, #20]
   86ed2:	f8c8 1018 	str.w	r1, [r8, #24]
   86ed6:	2900      	cmp	r1, #0
   86ed8:	bf0c      	ite	eq
   86eda:	2101      	moveq	r1, #1
   86edc:	2102      	movne	r1, #2
   86ede:	f8c8 1010 	str.w	r1, [r8, #16]
   86ee2:	b9de      	cbnz	r6, 86f1c <__d2b+0x88>
   86ee4:	eb08 0381 	add.w	r3, r8, r1, lsl #2
   86ee8:	f2a0 4032 	subw	r0, r0, #1074	; 0x432
   86eec:	6038      	str	r0, [r7, #0]
   86eee:	6918      	ldr	r0, [r3, #16]
   86ef0:	f7ff fd14 	bl	8691c <__hi0bits>
   86ef4:	9b0b      	ldr	r3, [sp, #44]	; 0x2c
   86ef6:	ebc0 1041 	rsb	r0, r0, r1, lsl #5
   86efa:	6018      	str	r0, [r3, #0]
   86efc:	4640      	mov	r0, r8
   86efe:	b003      	add	sp, #12
   86f00:	e8bd 83f0 	ldmia.w	sp!, {r4, r5, r6, r7, r8, r9, pc}
   86f04:	a801      	add	r0, sp, #4
   86f06:	f7ff fd27 	bl	86958 <__lo0bits>
   86f0a:	9b01      	ldr	r3, [sp, #4]
   86f0c:	2101      	movs	r1, #1
   86f0e:	f8c8 1010 	str.w	r1, [r8, #16]
   86f12:	f8c8 3014 	str.w	r3, [r8, #20]
   86f16:	3020      	adds	r0, #32
   86f18:	2e00      	cmp	r6, #0
   86f1a:	d0e3      	beq.n	86ee4 <__d2b+0x50>
   86f1c:	9a0b      	ldr	r2, [sp, #44]	; 0x2c
   86f1e:	f2a6 4933 	subw	r9, r6, #1075	; 0x433
   86f22:	f1c0 0335 	rsb	r3, r0, #53	; 0x35
   86f26:	4448      	add	r0, r9
   86f28:	6038      	str	r0, [r7, #0]
   86f2a:	4640      	mov	r0, r8
   86f2c:	6013      	str	r3, [r2, #0]
   86f2e:	b003      	add	sp, #12
   86f30:	e8bd 83f0 	ldmia.w	sp!, {r4, r5, r6, r7, r8, r9, pc}
   86f34:	9b01      	ldr	r3, [sp, #4]
   86f36:	f1c0 0420 	rsb	r4, r0, #32
   86f3a:	9a00      	ldr	r2, [sp, #0]
   86f3c:	fa03 f404 	lsl.w	r4, r3, r4
   86f40:	40c3      	lsrs	r3, r0
   86f42:	4322      	orrs	r2, r4
   86f44:	4619      	mov	r1, r3
   86f46:	9301      	str	r3, [sp, #4]
   86f48:	f8c8 2014 	str.w	r2, [r8, #20]
   86f4c:	e7c1      	b.n	86ed2 <__d2b+0x3e>
   86f4e:	bf00      	nop

00086f50 <__ratio>:
   86f50:	e92d 43f0 	stmdb	sp!, {r4, r5, r6, r7, r8, r9, lr}
   86f54:	b083      	sub	sp, #12
   86f56:	4688      	mov	r8, r1
   86f58:	4669      	mov	r1, sp
   86f5a:	4606      	mov	r6, r0
   86f5c:	f7ff ff44 	bl	86de8 <__b2d>
   86f60:	460d      	mov	r5, r1
   86f62:	4604      	mov	r4, r0
   86f64:	a901      	add	r1, sp, #4
   86f66:	4640      	mov	r0, r8
   86f68:	f7ff ff3e 	bl	86de8 <__b2d>
   86f6c:	f8d8 e010 	ldr.w	lr, [r8, #16]
   86f70:	462f      	mov	r7, r5
   86f72:	4602      	mov	r2, r0
   86f74:	6930      	ldr	r0, [r6, #16]
   86f76:	460b      	mov	r3, r1
   86f78:	4689      	mov	r9, r1
   86f7a:	ebce 0e00 	rsb	lr, lr, r0
   86f7e:	e89d 0003 	ldmia.w	sp, {r0, r1}
   86f82:	ebc1 0c00 	rsb	ip, r1, r0
   86f86:	eb0c 114e 	add.w	r1, ip, lr, lsl #5
   86f8a:	2900      	cmp	r1, #0
   86f8c:	bfc9      	itett	gt
   86f8e:	eb05 5701 	addgt.w	r7, r5, r1, lsl #20
   86f92:	eba3 5901 	suble.w	r9, r3, r1, lsl #20
   86f96:	4624      	movgt	r4, r4
   86f98:	463d      	movgt	r5, r7
   86f9a:	bfdc      	itt	le
   86f9c:	4612      	movle	r2, r2
   86f9e:	464b      	movle	r3, r9
   86fa0:	4620      	mov	r0, r4
   86fa2:	4629      	mov	r1, r5
   86fa4:	f002 fb00 	bl	895a8 <__aeabi_ddiv>
   86fa8:	b003      	add	sp, #12
   86faa:	e8bd 83f0 	ldmia.w	sp!, {r4, r5, r6, r7, r8, r9, pc}
   86fae:	bf00      	nop

00086fb0 <_mprec_log10>:
   86fb0:	2817      	cmp	r0, #23
   86fb2:	b510      	push	{r4, lr}
   86fb4:	4604      	mov	r4, r0
   86fb6:	dd0c      	ble.n	86fd2 <_mprec_log10+0x22>
   86fb8:	2100      	movs	r1, #0
   86fba:	2000      	movs	r0, #0
   86fbc:	f6c3 71f0 	movt	r1, #16368	; 0x3ff0
   86fc0:	2300      	movs	r3, #0
   86fc2:	2200      	movs	r2, #0
   86fc4:	f2c4 0324 	movt	r3, #16420	; 0x4024
   86fc8:	f002 f9c4 	bl	89354 <__aeabi_dmul>
   86fcc:	3c01      	subs	r4, #1
   86fce:	d1f7      	bne.n	86fc0 <_mprec_log10+0x10>
   86fd0:	bd10      	pop	{r4, pc}
   86fd2:	f24a 13d0 	movw	r3, #41424	; 0xa1d0
   86fd6:	f2c0 0308 	movt	r3, #8
   86fda:	eb03 03c0 	add.w	r3, r3, r0, lsl #3
   86fde:	e9d3 0104 	ldrd	r0, r1, [r3, #16]
   86fe2:	bd10      	pop	{r4, pc}

00086fe4 <__copybits>:
   86fe4:	b470      	push	{r4, r5, r6}
   86fe6:	3901      	subs	r1, #1
   86fe8:	6915      	ldr	r5, [r2, #16]
   86fea:	f102 0314 	add.w	r3, r2, #20
   86fee:	114e      	asrs	r6, r1, #5
   86ff0:	3601      	adds	r6, #1
   86ff2:	eb03 0585 	add.w	r5, r3, r5, lsl #2
   86ff6:	42ab      	cmp	r3, r5
   86ff8:	eb00 0686 	add.w	r6, r0, r6, lsl #2
   86ffc:	d20c      	bcs.n	87018 <__copybits+0x34>
   86ffe:	4601      	mov	r1, r0
   87000:	f853 4b04 	ldr.w	r4, [r3], #4
   87004:	429d      	cmp	r5, r3
   87006:	f841 4b04 	str.w	r4, [r1], #4
   8700a:	d8f9      	bhi.n	87000 <__copybits+0x1c>
   8700c:	1aab      	subs	r3, r5, r2
   8700e:	3b15      	subs	r3, #21
   87010:	f023 0303 	bic.w	r3, r3, #3
   87014:	3304      	adds	r3, #4
   87016:	4418      	add	r0, r3
   87018:	4286      	cmp	r6, r0
   8701a:	d904      	bls.n	87026 <__copybits+0x42>
   8701c:	2300      	movs	r3, #0
   8701e:	f840 3b04 	str.w	r3, [r0], #4
   87022:	4286      	cmp	r6, r0
   87024:	d8fb      	bhi.n	8701e <__copybits+0x3a>
   87026:	bc70      	pop	{r4, r5, r6}
   87028:	4770      	bx	lr
   8702a:	bf00      	nop

0008702c <__any_on>:
   8702c:	6903      	ldr	r3, [r0, #16]
   8702e:	114a      	asrs	r2, r1, #5
   87030:	b410      	push	{r4}
   87032:	4293      	cmp	r3, r2
   87034:	f100 0414 	add.w	r4, r0, #20
   87038:	bfb8      	it	lt
   8703a:	eb04 0383 	addlt.w	r3, r4, r3, lsl #2
   8703e:	db13      	blt.n	87068 <__any_on+0x3c>
   87040:	dd10      	ble.n	87064 <__any_on+0x38>
   87042:	f011 011f 	ands.w	r1, r1, #31
   87046:	d00d      	beq.n	87064 <__any_on+0x38>
   87048:	f854 0022 	ldr.w	r0, [r4, r2, lsl #2]
   8704c:	eb04 0382 	add.w	r3, r4, r2, lsl #2
   87050:	fa20 f201 	lsr.w	r2, r0, r1
   87054:	fa02 f101 	lsl.w	r1, r2, r1
   87058:	4281      	cmp	r1, r0
   8705a:	d005      	beq.n	87068 <__any_on+0x3c>
   8705c:	2001      	movs	r0, #1
   8705e:	f85d 4b04 	ldr.w	r4, [sp], #4
   87062:	4770      	bx	lr
   87064:	eb04 0382 	add.w	r3, r4, r2, lsl #2
   87068:	429c      	cmp	r4, r3
   8706a:	d20a      	bcs.n	87082 <__any_on+0x56>
   8706c:	f853 2c04 	ldr.w	r2, [r3, #-4]
   87070:	3b04      	subs	r3, #4
   87072:	b122      	cbz	r2, 8707e <__any_on+0x52>
   87074:	e7f2      	b.n	8705c <__any_on+0x30>
   87076:	f853 2d04 	ldr.w	r2, [r3, #-4]!
   8707a:	2a00      	cmp	r2, #0
   8707c:	d1ee      	bne.n	8705c <__any_on+0x30>
   8707e:	429c      	cmp	r4, r3
   87080:	d3f9      	bcc.n	87076 <__any_on+0x4a>
   87082:	2000      	movs	r0, #0
   87084:	f85d 4b04 	ldr.w	r4, [sp], #4
   87088:	4770      	bx	lr
   8708a:	bf00      	nop

0008708c <__fpclassifyd>:
   8708c:	ea50 0301 	orrs.w	r3, r0, r1
   87090:	d101      	bne.n	87096 <__fpclassifyd+0xa>
   87092:	2002      	movs	r0, #2
   87094:	4770      	bx	lr
   87096:	f1d0 0301 	rsbs	r3, r0, #1
   8709a:	bf38      	it	cc
   8709c:	2300      	movcc	r3, #0
   8709e:	f1b1 4f00 	cmp.w	r1, #2147483648	; 0x80000000
   870a2:	bf08      	it	eq
   870a4:	2800      	cmpeq	r0, #0
   870a6:	d0f4      	beq.n	87092 <__fpclassifyd+0x6>
   870a8:	f021 4100 	bic.w	r1, r1, #2147483648	; 0x80000000
   870ac:	f64f 72ff 	movw	r2, #65535	; 0xffff
   870b0:	f5a1 1080 	sub.w	r0, r1, #1048576	; 0x100000
   870b4:	f6c7 72df 	movt	r2, #32735	; 0x7fdf
   870b8:	4290      	cmp	r0, r2
   870ba:	d801      	bhi.n	870c0 <__fpclassifyd+0x34>
   870bc:	2004      	movs	r0, #4
   870be:	4770      	bx	lr
   870c0:	f5b1 1f80 	cmp.w	r1, #1048576	; 0x100000
   870c4:	d201      	bcs.n	870ca <__fpclassifyd+0x3e>
   870c6:	2003      	movs	r0, #3
   870c8:	4770      	bx	lr
   870ca:	2000      	movs	r0, #0
   870cc:	f6c7 70f0 	movt	r0, #32752	; 0x7ff0
   870d0:	4281      	cmp	r1, r0
   870d2:	bf14      	ite	ne
   870d4:	2000      	movne	r0, #0
   870d6:	f003 0001 	andeq.w	r0, r3, #1
   870da:	4770      	bx	lr

000870dc <_sbrk_r>:
   870dc:	b538      	push	{r3, r4, r5, lr}
   870de:	f240 54e4 	movw	r4, #1508	; 0x5e4
   870e2:	f2c2 0407 	movt	r4, #8199	; 0x2007
   870e6:	4605      	mov	r5, r0
   870e8:	4608      	mov	r0, r1
   870ea:	2300      	movs	r3, #0
   870ec:	6023      	str	r3, [r4, #0]
   870ee:	f7fb fe2d 	bl	82d4c <_sbrk>
   870f2:	1c43      	adds	r3, r0, #1
   870f4:	d000      	beq.n	870f8 <_sbrk_r+0x1c>
   870f6:	bd38      	pop	{r3, r4, r5, pc}
   870f8:	6823      	ldr	r3, [r4, #0]
   870fa:	2b00      	cmp	r3, #0
   870fc:	d0fb      	beq.n	870f6 <_sbrk_r+0x1a>
   870fe:	602b      	str	r3, [r5, #0]
   87100:	bd38      	pop	{r3, r4, r5, pc}
   87102:	bf00      	nop

00087104 <__sread>:
   87104:	b510      	push	{r4, lr}
   87106:	460c      	mov	r4, r1
   87108:	f9b1 100e 	ldrsh.w	r1, [r1, #14]
   8710c:	f001 fc58 	bl	889c0 <_read_r>
   87110:	2800      	cmp	r0, #0
   87112:	bfab      	itete	ge
   87114:	6d63      	ldrge	r3, [r4, #84]	; 0x54
   87116:	89a3      	ldrhlt	r3, [r4, #12]
   87118:	181b      	addge	r3, r3, r0
   8711a:	f423 5380 	biclt.w	r3, r3, #4096	; 0x1000
   8711e:	bfac      	ite	ge
   87120:	6563      	strge	r3, [r4, #84]	; 0x54
   87122:	81a3      	strhlt	r3, [r4, #12]
   87124:	bd10      	pop	{r4, pc}
   87126:	bf00      	nop

00087128 <__seofread>:
   87128:	2000      	movs	r0, #0
   8712a:	4770      	bx	lr

0008712c <__swrite>:
   8712c:	e92d 41f0 	stmdb	sp!, {r4, r5, r6, r7, r8, lr}
   87130:	460c      	mov	r4, r1
   87132:	8989      	ldrh	r1, [r1, #12]
   87134:	461d      	mov	r5, r3
   87136:	4616      	mov	r6, r2
   87138:	4607      	mov	r7, r0
   8713a:	05cb      	lsls	r3, r1, #23
   8713c:	d506      	bpl.n	8714c <__swrite+0x20>
   8713e:	f9b4 100e 	ldrsh.w	r1, [r4, #14]
   87142:	2200      	movs	r2, #0
   87144:	2302      	movs	r3, #2
   87146:	f001 fbbd 	bl	888c4 <_lseek_r>
   8714a:	89a1      	ldrh	r1, [r4, #12]
   8714c:	f421 5180 	bic.w	r1, r1, #4096	; 0x1000
   87150:	4638      	mov	r0, r7
   87152:	81a1      	strh	r1, [r4, #12]
   87154:	4632      	mov	r2, r6
   87156:	f9b4 100e 	ldrsh.w	r1, [r4, #14]
   8715a:	462b      	mov	r3, r5
   8715c:	e8bd 41f0 	ldmia.w	sp!, {r4, r5, r6, r7, r8, lr}
   87160:	f001 b8be 	b.w	882e0 <_write_r>

00087164 <__sseek>:
   87164:	b510      	push	{r4, lr}
   87166:	460c      	mov	r4, r1
   87168:	f9b1 100e 	ldrsh.w	r1, [r1, #14]
   8716c:	f001 fbaa 	bl	888c4 <_lseek_r>
   87170:	89a3      	ldrh	r3, [r4, #12]
   87172:	1c42      	adds	r2, r0, #1
   87174:	bf16      	itet	ne
   87176:	6560      	strne	r0, [r4, #84]	; 0x54
   87178:	f423 5380 	biceq.w	r3, r3, #4096	; 0x1000
   8717c:	f443 5380 	orrne.w	r3, r3, #4096	; 0x1000
   87180:	81a3      	strh	r3, [r4, #12]
   87182:	bd10      	pop	{r4, pc}

00087184 <__sclose>:
   87184:	f9b1 100e 	ldrsh.w	r1, [r1, #14]
   87188:	f001 b8f2 	b.w	88370 <_close_r>

0008718c <strcmp>:
   8718c:	ea40 0c01 	orr.w	ip, r0, r1
   87190:	f01c 0f07 	tst.w	ip, #7
   87194:	d127      	bne.n	871e6 <strcmp+0x5a>
   87196:	f1bd 0d10 	subs.w	sp, sp, #16
   8719a:	e9cd 4502 	strd	r4, r5, [sp, #8]
   8719e:	e9cd 6700 	strd	r6, r7, [sp]
   871a2:	f06f 0600 	mvn.w	r6, #0
   871a6:	f04f 0700 	mov.w	r7, #0
   871aa:	bf00      	nop
   871ac:	e8f0 2302 	ldrd	r2, r3, [r0], #8
   871b0:	e8f1 4502 	ldrd	r4, r5, [r1], #8
   871b4:	42a2      	cmp	r2, r4
   871b6:	f1a2 3c01 	sub.w	ip, r2, #16843009	; 0x1010101
   871ba:	ea2c 0c02 	bic.w	ip, ip, r2
   871be:	f00c 3c80 	and.w	ip, ip, #2155905152	; 0x80808080
   871c2:	bf08      	it	eq
   871c4:	f1bc 0f00 	cmpeq.w	ip, #0
   871c8:	f040 80e5 	bne.w	87396 <strcmp+0x20a>
   871cc:	42ab      	cmp	r3, r5
   871ce:	f1a3 3c01 	sub.w	ip, r3, #16843009	; 0x1010101
   871d2:	ea2c 0c03 	bic.w	ip, ip, r3
   871d6:	f00c 3c80 	and.w	ip, ip, #2155905152	; 0x80808080
   871da:	bf08      	it	eq
   871dc:	f1bc 0f00 	cmpeq.w	ip, #0
   871e0:	f040 80d6 	bne.w	87390 <strcmp+0x204>
   871e4:	e7e2      	b.n	871ac <strcmp+0x20>
   871e6:	f010 0c03 	ands.w	ip, r0, #3
   871ea:	d021      	beq.n	87230 <strcmp+0xa4>
   871ec:	f020 0003 	bic.w	r0, r0, #3
   871f0:	f850 2b04 	ldr.w	r2, [r0], #4
   871f4:	ea5f 7ccc 	movs.w	ip, ip, lsl #31
   871f8:	d008      	beq.n	8720c <strcmp+0x80>
   871fa:	d20f      	bcs.n	8721c <strcmp+0x90>
   871fc:	f811 cb01 	ldrb.w	ip, [r1], #1
   87200:	fa5f f392 	uxtb.w	r3, r2, ror #8
   87204:	ebb3 0c0c 	subs.w	ip, r3, ip
   87208:	d110      	bne.n	8722c <strcmp+0xa0>
   8720a:	b17b      	cbz	r3, 8722c <strcmp+0xa0>
   8720c:	f811 cb01 	ldrb.w	ip, [r1], #1
   87210:	fa5f f3a2 	uxtb.w	r3, r2, ror #16
   87214:	ebb3 0c0c 	subs.w	ip, r3, ip
   87218:	d108      	bne.n	8722c <strcmp+0xa0>
   8721a:	b13b      	cbz	r3, 8722c <strcmp+0xa0>
   8721c:	f811 cb01 	ldrb.w	ip, [r1], #1
   87220:	fa5f f3b2 	uxtb.w	r3, r2, ror #24
   87224:	ebb3 0c0c 	subs.w	ip, r3, ip
   87228:	d100      	bne.n	8722c <strcmp+0xa0>
   8722a:	b90b      	cbnz	r3, 87230 <strcmp+0xa4>
   8722c:	4660      	mov	r0, ip
   8722e:	4770      	bx	lr
   87230:	f1bd 0d10 	subs.w	sp, sp, #16
   87234:	e9cd 4502 	strd	r4, r5, [sp, #8]
   87238:	e9cd 6700 	strd	r6, r7, [sp]
   8723c:	f06f 0600 	mvn.w	r6, #0
   87240:	f04f 0700 	mov.w	r7, #0
   87244:	f011 0c03 	ands.w	ip, r1, #3
   87248:	d133      	bne.n	872b2 <strcmp+0x126>
   8724a:	f010 0f04 	tst.w	r0, #4
   8724e:	d00f      	beq.n	87270 <strcmp+0xe4>
   87250:	f850 2b04 	ldr.w	r2, [r0], #4
   87254:	f851 4b04 	ldr.w	r4, [r1], #4
   87258:	42a2      	cmp	r2, r4
   8725a:	f1a2 3c01 	sub.w	ip, r2, #16843009	; 0x1010101
   8725e:	ea2c 0c02 	bic.w	ip, ip, r2
   87262:	f00c 3c80 	and.w	ip, ip, #2155905152	; 0x80808080
   87266:	bf08      	it	eq
   87268:	f1bc 0f00 	cmpeq.w	ip, #0
   8726c:	f040 8093 	bne.w	87396 <strcmp+0x20a>
   87270:	f011 0f04 	tst.w	r1, #4
   87274:	d099      	beq.n	871aa <strcmp+0x1e>
   87276:	f851 5b04 	ldr.w	r5, [r1], #4
   8727a:	bf00      	nop
   8727c:	e8f0 2302 	ldrd	r2, r3, [r0], #8
   87280:	42aa      	cmp	r2, r5
   87282:	f1a2 3c01 	sub.w	ip, r2, #16843009	; 0x1010101
   87286:	ea2c 0c02 	bic.w	ip, ip, r2
   8728a:	f00c 3c80 	and.w	ip, ip, #2155905152	; 0x80808080
   8728e:	bf08      	it	eq
   87290:	f1bc 0f00 	cmpeq.w	ip, #0
   87294:	d179      	bne.n	8738a <strcmp+0x1fe>
   87296:	e8f1 4502 	ldrd	r4, r5, [r1], #8
   8729a:	42a3      	cmp	r3, r4
   8729c:	f1a3 3c01 	sub.w	ip, r3, #16843009	; 0x1010101
   872a0:	ea2c 0c03 	bic.w	ip, ip, r3
   872a4:	f00c 3c80 	and.w	ip, ip, #2155905152	; 0x80808080
   872a8:	bf08      	it	eq
   872aa:	f1bc 0f00 	cmpeq.w	ip, #0
   872ae:	d169      	bne.n	87384 <strcmp+0x1f8>
   872b0:	e7e4      	b.n	8727c <strcmp+0xf0>
   872b2:	f021 0103 	bic.w	r1, r1, #3
   872b6:	f1bc 0f02 	cmp.w	ip, #2
   872ba:	d020      	beq.n	872fe <strcmp+0x172>
   872bc:	da3f      	bge.n	8733e <strcmp+0x1b2>
   872be:	f851 5b04 	ldr.w	r5, [r1], #4
   872c2:	bf00      	nop
   872c4:	f850 3b04 	ldr.w	r3, [r0], #4
   872c8:	ea4f 2515 	mov.w	r5, r5, lsr #8
   872cc:	f1a3 3c01 	sub.w	ip, r3, #16843009	; 0x1010101
   872d0:	ea2c 0c03 	bic.w	ip, ip, r3
   872d4:	f00c 3c80 	and.w	ip, ip, #2155905152	; 0x80808080
   872d8:	ebb7 2f0c 	cmp.w	r7, ip, lsl #8
   872dc:	ea03 2216 	and.w	r2, r3, r6, lsr #8
   872e0:	bf08      	it	eq
   872e2:	42aa      	cmpeq	r2, r5
   872e4:	d151      	bne.n	8738a <strcmp+0x1fe>
   872e6:	f851 5b04 	ldr.w	r5, [r1], #4
   872ea:	f1bc 0f00 	cmp.w	ip, #0
   872ee:	ea82 0303 	eor.w	r3, r2, r3
   872f2:	ea4f 6205 	mov.w	r2, r5, lsl #24
   872f6:	bf08      	it	eq
   872f8:	4293      	cmpeq	r3, r2
   872fa:	d140      	bne.n	8737e <strcmp+0x1f2>
   872fc:	e7e2      	b.n	872c4 <strcmp+0x138>
   872fe:	f851 5b04 	ldr.w	r5, [r1], #4
   87302:	bf00      	nop
   87304:	f850 3b04 	ldr.w	r3, [r0], #4
   87308:	ea4f 4515 	mov.w	r5, r5, lsr #16
   8730c:	f1a3 3c01 	sub.w	ip, r3, #16843009	; 0x1010101
   87310:	ea2c 0c03 	bic.w	ip, ip, r3
   87314:	f00c 3c80 	and.w	ip, ip, #2155905152	; 0x80808080
   87318:	ebb7 4f0c 	cmp.w	r7, ip, lsl #16
   8731c:	ea03 4216 	and.w	r2, r3, r6, lsr #16
   87320:	bf08      	it	eq
   87322:	42aa      	cmpeq	r2, r5
   87324:	d131      	bne.n	8738a <strcmp+0x1fe>
   87326:	f851 5b04 	ldr.w	r5, [r1], #4
   8732a:	f1bc 0f00 	cmp.w	ip, #0
   8732e:	ea82 0303 	eor.w	r3, r2, r3
   87332:	ea4f 4205 	mov.w	r2, r5, lsl #16
   87336:	bf08      	it	eq
   87338:	4293      	cmpeq	r3, r2
   8733a:	d120      	bne.n	8737e <strcmp+0x1f2>
   8733c:	e7e2      	b.n	87304 <strcmp+0x178>
   8733e:	f851 5b04 	ldr.w	r5, [r1], #4
   87342:	bf00      	nop
   87344:	f850 3b04 	ldr.w	r3, [r0], #4
   87348:	ea4f 6515 	mov.w	r5, r5, lsr #24
   8734c:	f1a3 3c01 	sub.w	ip, r3, #16843009	; 0x1010101
   87350:	ea2c 0c03 	bic.w	ip, ip, r3
   87354:	f00c 3c80 	and.w	ip, ip, #2155905152	; 0x80808080
   87358:	ebb7 6f0c 	cmp.w	r7, ip, lsl #24
   8735c:	ea03 6216 	and.w	r2, r3, r6, lsr #24
   87360:	bf08      	it	eq
   87362:	42aa      	cmpeq	r2, r5
   87364:	d111      	bne.n	8738a <strcmp+0x1fe>
   87366:	f851 5b04 	ldr.w	r5, [r1], #4
   8736a:	f1bc 0f00 	cmp.w	ip, #0
   8736e:	ea82 0303 	eor.w	r3, r2, r3
   87372:	ea4f 2205 	mov.w	r2, r5, lsl #8
   87376:	bf08      	it	eq
   87378:	4293      	cmpeq	r3, r2
   8737a:	d100      	bne.n	8737e <strcmp+0x1f2>
   8737c:	e7e2      	b.n	87344 <strcmp+0x1b8>
   8737e:	ba19      	rev	r1, r3
   87380:	ba12      	rev	r2, r2
   87382:	e00a      	b.n	8739a <strcmp+0x20e>
   87384:	ba19      	rev	r1, r3
   87386:	ba22      	rev	r2, r4
   87388:	e007      	b.n	8739a <strcmp+0x20e>
   8738a:	ba11      	rev	r1, r2
   8738c:	ba2a      	rev	r2, r5
   8738e:	e004      	b.n	8739a <strcmp+0x20e>
   87390:	ba19      	rev	r1, r3
   87392:	ba2a      	rev	r2, r5
   87394:	e001      	b.n	8739a <strcmp+0x20e>
   87396:	ba11      	rev	r1, r2
   87398:	ba22      	rev	r2, r4
   8739a:	fa9c f08c 	rev.w	r0, ip
   8739e:	e9dd 6700 	ldrd	r6, r7, [sp]
   873a2:	e9dd 4502 	ldrd	r4, r5, [sp, #8]
   873a6:	f11d 0d10 	adds.w	sp, sp, #16
   873aa:	b138      	cbz	r0, 873bc <strcmp+0x230>
   873ac:	fab0 f080 	clz	r0, r0
   873b0:	f1c0 0018 	rsb	r0, r0, #24
   873b4:	fa21 f100 	lsr.w	r1, r1, r0
   873b8:	fa22 f200 	lsr.w	r2, r2, r0
   873bc:	2001      	movs	r0, #1
   873be:	4291      	cmp	r1, r2
   873c0:	bf98      	it	ls
   873c2:	4180      	sbcls	r0, r0
   873c4:	4770      	bx	lr
   873c6:	bf00      	nop

000873c8 <strlen>:
   873c8:	f020 0103 	bic.w	r1, r0, #3
   873cc:	f010 0003 	ands.w	r0, r0, #3
   873d0:	f1c0 0000 	rsb	r0, r0, #0
   873d4:	f851 3b04 	ldr.w	r3, [r1], #4
   873d8:	f100 0c04 	add.w	ip, r0, #4
   873dc:	ea4f 0ccc 	mov.w	ip, ip, lsl #3
   873e0:	f06f 0200 	mvn.w	r2, #0
   873e4:	bf1c      	itt	ne
   873e6:	fa22 f20c 	lsrne.w	r2, r2, ip
   873ea:	4313      	orrne	r3, r2
   873ec:	f04f 0c01 	mov.w	ip, #1
   873f0:	ea4c 2c0c 	orr.w	ip, ip, ip, lsl #8
   873f4:	ea4c 4c0c 	orr.w	ip, ip, ip, lsl #16
   873f8:	eba3 020c 	sub.w	r2, r3, ip
   873fc:	ea22 0203 	bic.w	r2, r2, r3
   87400:	ea12 12cc 	ands.w	r2, r2, ip, lsl #7
   87404:	bf04      	itt	eq
   87406:	f851 3b04 	ldreq.w	r3, [r1], #4
   8740a:	3004      	addeq	r0, #4
   8740c:	d0f4      	beq.n	873f8 <strlen+0x30>
   8740e:	f013 0fff 	tst.w	r3, #255	; 0xff
   87412:	bf1f      	itttt	ne
   87414:	3001      	addne	r0, #1
   87416:	f413 4f7f 	tstne.w	r3, #65280	; 0xff00
   8741a:	3001      	addne	r0, #1
   8741c:	f413 0f7f 	tstne.w	r3, #16711680	; 0xff0000
   87420:	bf18      	it	ne
   87422:	3001      	addne	r0, #1
   87424:	4770      	bx	lr
   87426:	bf00      	nop

00087428 <__sprint_r.part.0>:
   87428:	6e4b      	ldr	r3, [r1, #100]	; 0x64
   8742a:	e92d 47f0 	stmdb	sp!, {r4, r5, r6, r7, r8, r9, sl, lr}
   8742e:	049c      	lsls	r4, r3, #18
   87430:	460e      	mov	r6, r1
   87432:	4680      	mov	r8, r0
   87434:	4691      	mov	r9, r2
   87436:	d52a      	bpl.n	8748e <__sprint_r.part.0+0x66>
   87438:	6893      	ldr	r3, [r2, #8]
   8743a:	6812      	ldr	r2, [r2, #0]
   8743c:	f102 0a08 	add.w	sl, r2, #8
   87440:	b31b      	cbz	r3, 8748a <__sprint_r.part.0+0x62>
   87442:	e91a 00a0 	ldmdb	sl, {r5, r7}
   87446:	08bf      	lsrs	r7, r7, #2
   87448:	bf1c      	itt	ne
   8744a:	3d04      	subne	r5, #4
   8744c:	2400      	movne	r4, #0
   8744e:	d102      	bne.n	87456 <__sprint_r.part.0+0x2e>
   87450:	e013      	b.n	8747a <__sprint_r.part.0+0x52>
   87452:	42a7      	cmp	r7, r4
   87454:	d00f      	beq.n	87476 <__sprint_r.part.0+0x4e>
   87456:	4640      	mov	r0, r8
   87458:	f855 1f04 	ldr.w	r1, [r5, #4]!
   8745c:	4632      	mov	r2, r6
   8745e:	3401      	adds	r4, #1
   87460:	f000 fffa 	bl	88458 <_fputwc_r>
   87464:	1c43      	adds	r3, r0, #1
   87466:	d1f4      	bne.n	87452 <__sprint_r.part.0+0x2a>
   87468:	2300      	movs	r3, #0
   8746a:	f8c9 3008 	str.w	r3, [r9, #8]
   8746e:	f8c9 3004 	str.w	r3, [r9, #4]
   87472:	e8bd 87f0 	ldmia.w	sp!, {r4, r5, r6, r7, r8, r9, sl, pc}
   87476:	f8d9 3008 	ldr.w	r3, [r9, #8]
   8747a:	eba3 0387 	sub.w	r3, r3, r7, lsl #2
   8747e:	f10a 0a08 	add.w	sl, sl, #8
   87482:	f8c9 3008 	str.w	r3, [r9, #8]
   87486:	2b00      	cmp	r3, #0
   87488:	d1db      	bne.n	87442 <__sprint_r.part.0+0x1a>
   8748a:	2000      	movs	r0, #0
   8748c:	e7ec      	b.n	87468 <__sprint_r.part.0+0x40>
   8748e:	f001 f889 	bl	885a4 <__sfvwrite_r>
   87492:	2300      	movs	r3, #0
   87494:	f8c9 3008 	str.w	r3, [r9, #8]
   87498:	f8c9 3004 	str.w	r3, [r9, #4]
   8749c:	e8bd 87f0 	ldmia.w	sp!, {r4, r5, r6, r7, r8, r9, sl, pc}

000874a0 <__sprint_r>:
   874a0:	6893      	ldr	r3, [r2, #8]
   874a2:	b410      	push	{r4}
   874a4:	b113      	cbz	r3, 874ac <__sprint_r+0xc>
   874a6:	f85d 4b04 	ldr.w	r4, [sp], #4
   874aa:	e7bd      	b.n	87428 <__sprint_r.part.0>
   874ac:	4618      	mov	r0, r3
   874ae:	6053      	str	r3, [r2, #4]
   874b0:	f85d 4b04 	ldr.w	r4, [sp], #4
   874b4:	4770      	bx	lr
   874b6:	bf00      	nop

000874b8 <_vfiprintf_r>:
   874b8:	e92d 4ff0 	stmdb	sp!, {r4, r5, r6, r7, r8, r9, sl, fp, lr}
   874bc:	b0b1      	sub	sp, #196	; 0xc4
   874be:	461c      	mov	r4, r3
   874c0:	4692      	mov	sl, r2
   874c2:	9104      	str	r1, [sp, #16]
   874c4:	930a      	str	r3, [sp, #40]	; 0x28
   874c6:	9008      	str	r0, [sp, #32]
   874c8:	b118      	cbz	r0, 874d2 <_vfiprintf_r+0x1a>
   874ca:	6983      	ldr	r3, [r0, #24]
   874cc:	2b00      	cmp	r3, #0
   874ce:	f000 8110 	beq.w	876f2 <_vfiprintf_r+0x23a>
   874d2:	f24a 12a0 	movw	r2, #41376	; 0xa1a0
   874d6:	9d04      	ldr	r5, [sp, #16]
   874d8:	f2c0 0208 	movt	r2, #8
   874dc:	4295      	cmp	r5, r2
   874de:	f000 8112 	beq.w	87706 <_vfiprintf_r+0x24e>
   874e2:	f24a 1280 	movw	r2, #41344	; 0xa180
   874e6:	9d04      	ldr	r5, [sp, #16]
   874e8:	f2c0 0208 	movt	r2, #8
   874ec:	4295      	cmp	r5, r2
   874ee:	f000 854c 	beq.w	87f8a <_vfiprintf_r+0xad2>
   874f2:	9d04      	ldr	r5, [sp, #16]
   874f4:	f24a 1260 	movw	r2, #41312	; 0xa160
   874f8:	f2c0 0208 	movt	r2, #8
   874fc:	4295      	cmp	r5, r2
   874fe:	bf02      	ittt	eq
   87500:	9d08      	ldreq	r5, [sp, #32]
   87502:	68ed      	ldreq	r5, [r5, #12]
   87504:	9504      	streq	r5, [sp, #16]
   87506:	f8dd 9010 	ldr.w	r9, [sp, #16]
   8750a:	f8b9 100c 	ldrh.w	r1, [r9, #12]
   8750e:	b28a      	uxth	r2, r1
   87510:	0490      	lsls	r0, r2, #18
   87512:	d40a      	bmi.n	8752a <_vfiprintf_r+0x72>
   87514:	f441 5200 	orr.w	r2, r1, #8192	; 0x2000
   87518:	f8d9 3064 	ldr.w	r3, [r9, #100]	; 0x64
   8751c:	f8a9 200c 	strh.w	r2, [r9, #12]
   87520:	b292      	uxth	r2, r2
   87522:	f423 5300 	bic.w	r3, r3, #8192	; 0x2000
   87526:	f8c9 3064 	str.w	r3, [r9, #100]	; 0x64
   8752a:	0711      	lsls	r1, r2, #28
   8752c:	f140 80bf 	bpl.w	876ae <_vfiprintf_r+0x1f6>
   87530:	9d04      	ldr	r5, [sp, #16]
   87532:	692b      	ldr	r3, [r5, #16]
   87534:	2b00      	cmp	r3, #0
   87536:	f000 80ba 	beq.w	876ae <_vfiprintf_r+0x1f6>
   8753a:	f002 021a 	and.w	r2, r2, #26
   8753e:	2a0a      	cmp	r2, #10
   87540:	f000 80c3 	beq.w	876ca <_vfiprintf_r+0x212>
   87544:	f24a 24f8 	movw	r4, #41720	; 0xa2f8
   87548:	f10d 0880 	add.w	r8, sp, #128	; 0x80
   8754c:	f2c0 0408 	movt	r4, #8
   87550:	4646      	mov	r6, r8
   87552:	4627      	mov	r7, r4
   87554:	f10d 097f 	add.w	r9, sp, #127	; 0x7f
   87558:	2300      	movs	r3, #0
   8755a:	ebc9 0508 	rsb	r5, r9, r8
   8755e:	930d      	str	r3, [sp, #52]	; 0x34
   87560:	f8cd 9008 	str.w	r9, [sp, #8]
   87564:	930b      	str	r3, [sp, #44]	; 0x2c
   87566:	950e      	str	r5, [sp, #56]	; 0x38
   87568:	9315      	str	r3, [sp, #84]	; 0x54
   8756a:	9314      	str	r3, [sp, #80]	; 0x50
   8756c:	f8cd 804c 	str.w	r8, [sp, #76]	; 0x4c
   87570:	f8cd a00c 	str.w	sl, [sp, #12]
   87574:	f8dd 900c 	ldr.w	r9, [sp, #12]
   87578:	f899 3000 	ldrb.w	r3, [r9]
   8757c:	2b00      	cmp	r3, #0
   8757e:	bf18      	it	ne
   87580:	2b25      	cmpne	r3, #37	; 0x25
   87582:	f000 8216 	beq.w	879b2 <_vfiprintf_r+0x4fa>
   87586:	f109 0201 	add.w	r2, r9, #1
   8758a:	4614      	mov	r4, r2
   8758c:	3201      	adds	r2, #1
   8758e:	7823      	ldrb	r3, [r4, #0]
   87590:	2b25      	cmp	r3, #37	; 0x25
   87592:	bf18      	it	ne
   87594:	2b00      	cmpne	r3, #0
   87596:	d1f8      	bne.n	8758a <_vfiprintf_r+0xd2>
   87598:	9803      	ldr	r0, [sp, #12]
   8759a:	1a25      	subs	r5, r4, r0
   8759c:	d00e      	beq.n	875bc <_vfiprintf_r+0x104>
   8759e:	9b14      	ldr	r3, [sp, #80]	; 0x50
   875a0:	9a15      	ldr	r2, [sp, #84]	; 0x54
   875a2:	3301      	adds	r3, #1
   875a4:	e886 0021 	stmia.w	r6, {r0, r5}
   875a8:	2b07      	cmp	r3, #7
   875aa:	442a      	add	r2, r5
   875ac:	9314      	str	r3, [sp, #80]	; 0x50
   875ae:	bfd8      	it	le
   875b0:	3608      	addle	r6, #8
   875b2:	9215      	str	r2, [sp, #84]	; 0x54
   875b4:	dc75      	bgt.n	876a2 <_vfiprintf_r+0x1ea>
   875b6:	990b      	ldr	r1, [sp, #44]	; 0x2c
   875b8:	4429      	add	r1, r5
   875ba:	910b      	str	r1, [sp, #44]	; 0x2c
   875bc:	7823      	ldrb	r3, [r4, #0]
   875be:	2b00      	cmp	r3, #0
   875c0:	f000 83ca 	beq.w	87d58 <_vfiprintf_r+0x8a0>
   875c4:	2300      	movs	r3, #0
   875c6:	1c65      	adds	r5, r4, #1
   875c8:	4619      	mov	r1, r3
   875ca:	f88d 3047 	strb.w	r3, [sp, #71]	; 0x47
   875ce:	9307      	str	r3, [sp, #28]
   875d0:	469c      	mov	ip, r3
   875d2:	462a      	mov	r2, r5
   875d4:	7863      	ldrb	r3, [r4, #1]
   875d6:	f04f 34ff 	mov.w	r4, #4294967295	; 0xffffffff
   875da:	9406      	str	r4, [sp, #24]
   875dc:	460c      	mov	r4, r1
   875de:	9503      	str	r5, [sp, #12]
   875e0:	3201      	adds	r2, #1
   875e2:	f1a3 0020 	sub.w	r0, r3, #32
   875e6:	2858      	cmp	r0, #88	; 0x58
   875e8:	f200 838b 	bhi.w	87d02 <_vfiprintf_r+0x84a>
   875ec:	e8df f010 	tbh	[pc, r0, lsl #1]
   875f0:	0389037f 	.word	0x0389037f
   875f4:	03850389 	.word	0x03850389
   875f8:	03890389 	.word	0x03890389
   875fc:	03890389 	.word	0x03890389
   87600:	03890389 	.word	0x03890389
   87604:	03420339 	.word	0x03420339
   87608:	00910389 	.word	0x00910389
   8760c:	03890345 	.word	0x03890345
   87610:	02450241 	.word	0x02450241
   87614:	02450245 	.word	0x02450245
   87618:	02450245 	.word	0x02450245
   8761c:	02450245 	.word	0x02450245
   87620:	02450245 	.word	0x02450245
   87624:	03890389 	.word	0x03890389
   87628:	03890389 	.word	0x03890389
   8762c:	03890389 	.word	0x03890389
   87630:	03890389 	.word	0x03890389
   87634:	03890389 	.word	0x03890389
   87638:	03890253 	.word	0x03890253
   8763c:	03890389 	.word	0x03890389
   87640:	03890389 	.word	0x03890389
   87644:	03890389 	.word	0x03890389
   87648:	03890389 	.word	0x03890389
   8764c:	02730389 	.word	0x02730389
   87650:	03890389 	.word	0x03890389
   87654:	03890389 	.word	0x03890389
   87658:	02880389 	.word	0x02880389
   8765c:	03890389 	.word	0x03890389
   87660:	0389029e 	.word	0x0389029e
   87664:	03890389 	.word	0x03890389
   87668:	03890389 	.word	0x03890389
   8766c:	03890389 	.word	0x03890389
   87670:	03890389 	.word	0x03890389
   87674:	02c70389 	.word	0x02c70389
   87678:	038902dd 	.word	0x038902dd
   8767c:	03890389 	.word	0x03890389
   87680:	02dd02f8 	.word	0x02dd02f8
   87684:	03890389 	.word	0x03890389
   87688:	038902fe 	.word	0x038902fe
   8768c:	00950309 	.word	0x00950309
   87690:	02f40363 	.word	0x02f40363
   87694:	02180389 	.word	0x02180389
   87698:	02060389 	.word	0x02060389
   8769c:	03890389 	.word	0x03890389
   876a0:	031f      	.short	0x031f
   876a2:	2a00      	cmp	r2, #0
   876a4:	f040 8466 	bne.w	87f74 <_vfiprintf_r+0xabc>
   876a8:	9214      	str	r2, [sp, #80]	; 0x50
   876aa:	4646      	mov	r6, r8
   876ac:	e783      	b.n	875b6 <_vfiprintf_r+0xfe>
   876ae:	9808      	ldr	r0, [sp, #32]
   876b0:	9904      	ldr	r1, [sp, #16]
   876b2:	f7fc ffc3 	bl	8463c <__swsetup_r>
   876b6:	b9b8      	cbnz	r0, 876e8 <_vfiprintf_r+0x230>
   876b8:	f8dd 9010 	ldr.w	r9, [sp, #16]
   876bc:	f8b9 200c 	ldrh.w	r2, [r9, #12]
   876c0:	f002 021a 	and.w	r2, r2, #26
   876c4:	2a0a      	cmp	r2, #10
   876c6:	f47f af3d 	bne.w	87544 <_vfiprintf_r+0x8c>
   876ca:	9d04      	ldr	r5, [sp, #16]
   876cc:	f9b5 300e 	ldrsh.w	r3, [r5, #14]
   876d0:	2b00      	cmp	r3, #0
   876d2:	f6ff af37 	blt.w	87544 <_vfiprintf_r+0x8c>
   876d6:	9808      	ldr	r0, [sp, #32]
   876d8:	4629      	mov	r1, r5
   876da:	4652      	mov	r2, sl
   876dc:	4623      	mov	r3, r4
   876de:	f000 fdc1 	bl	88264 <__sbprintf>
   876e2:	b031      	add	sp, #196	; 0xc4
   876e4:	e8bd 8ff0 	ldmia.w	sp!, {r4, r5, r6, r7, r8, r9, sl, fp, pc}
   876e8:	f04f 30ff 	mov.w	r0, #4294967295	; 0xffffffff
   876ec:	b031      	add	sp, #196	; 0xc4
   876ee:	e8bd 8ff0 	ldmia.w	sp!, {r4, r5, r6, r7, r8, r9, sl, fp, pc}
   876f2:	f7fe f9a7 	bl	85a44 <__sinit>
   876f6:	f24a 12a0 	movw	r2, #41376	; 0xa1a0
   876fa:	9d04      	ldr	r5, [sp, #16]
   876fc:	f2c0 0208 	movt	r2, #8
   87700:	4295      	cmp	r5, r2
   87702:	f47f aeee 	bne.w	874e2 <_vfiprintf_r+0x2a>
   87706:	9d08      	ldr	r5, [sp, #32]
   87708:	686d      	ldr	r5, [r5, #4]
   8770a:	9504      	str	r5, [sp, #16]
   8770c:	e6fb      	b.n	87506 <_vfiprintf_r+0x4e>
   8770e:	4264      	negs	r4, r4
   87710:	930a      	str	r3, [sp, #40]	; 0x28
   87712:	f04c 0c04 	orr.w	ip, ip, #4
   87716:	7813      	ldrb	r3, [r2, #0]
   87718:	e762      	b.n	875e0 <_vfiprintf_r+0x128>
   8771a:	f01c 0320 	ands.w	r3, ip, #32
   8771e:	9407      	str	r4, [sp, #28]
   87720:	9203      	str	r2, [sp, #12]
   87722:	f000 81e0 	beq.w	87ae6 <_vfiprintf_r+0x62e>
   87726:	f8dd 9028 	ldr.w	r9, [sp, #40]	; 0x28
   8772a:	2300      	movs	r3, #0
   8772c:	f109 0207 	add.w	r2, r9, #7
   87730:	f022 0207 	bic.w	r2, r2, #7
   87734:	f102 0408 	add.w	r4, r2, #8
   87738:	940a      	str	r4, [sp, #40]	; 0x28
   8773a:	e9d2 ab00 	ldrd	sl, fp, [r2]
   8773e:	2400      	movs	r4, #0
   87740:	f88d 4047 	strb.w	r4, [sp, #71]	; 0x47
   87744:	9d06      	ldr	r5, [sp, #24]
   87746:	2d00      	cmp	r5, #0
   87748:	9d06      	ldr	r5, [sp, #24]
   8774a:	bfa8      	it	ge
   8774c:	f02c 0c80 	bicge.w	ip, ip, #128	; 0x80
   87750:	ea5a 090b 	orrs.w	r9, sl, fp
   87754:	bf0c      	ite	eq
   87756:	2200      	moveq	r2, #0
   87758:	2201      	movne	r2, #1
   8775a:	2d00      	cmp	r5, #0
   8775c:	bf18      	it	ne
   8775e:	f042 0201 	orrne.w	r2, r2, #1
   87762:	2a00      	cmp	r2, #0
   87764:	f000 8379 	beq.w	87e5a <_vfiprintf_r+0x9a2>
   87768:	2b01      	cmp	r3, #1
   8776a:	f000 83e5 	beq.w	87f38 <_vfiprintf_r+0xa80>
   8776e:	2b02      	cmp	r3, #2
   87770:	f10d 027f 	add.w	r2, sp, #127	; 0x7f
   87774:	f040 811f 	bne.w	879b6 <_vfiprintf_r+0x4fe>
   87778:	f8dd 9034 	ldr.w	r9, [sp, #52]	; 0x34
   8777c:	f00a 010f 	and.w	r1, sl, #15
   87780:	ea4f 131a 	mov.w	r3, sl, lsr #4
   87784:	ea43 730b 	orr.w	r3, r3, fp, lsl #28
   87788:	ea4f 101b 	mov.w	r0, fp, lsr #4
   8778c:	f819 1001 	ldrb.w	r1, [r9, r1]
   87790:	469a      	mov	sl, r3
   87792:	4683      	mov	fp, r0
   87794:	4615      	mov	r5, r2
   87796:	ea5a 000b 	orrs.w	r0, sl, fp
   8779a:	f102 32ff 	add.w	r2, r2, #4294967295	; 0xffffffff
   8779e:	7029      	strb	r1, [r5, #0]
   877a0:	d1ec      	bne.n	8777c <_vfiprintf_r+0x2c4>
   877a2:	ebc5 0308 	rsb	r3, r5, r8
   877a6:	9309      	str	r3, [sp, #36]	; 0x24
   877a8:	9b09      	ldr	r3, [sp, #36]	; 0x24
   877aa:	9a06      	ldr	r2, [sp, #24]
   877ac:	4293      	cmp	r3, r2
   877ae:	bfb8      	it	lt
   877b0:	4613      	movlt	r3, r2
   877b2:	9305      	str	r3, [sp, #20]
   877b4:	b10c      	cbz	r4, 877ba <_vfiprintf_r+0x302>
   877b6:	3301      	adds	r3, #1
   877b8:	9305      	str	r3, [sp, #20]
   877ba:	f01c 0a02 	ands.w	sl, ip, #2
   877be:	bf1e      	ittt	ne
   877c0:	9c05      	ldrne	r4, [sp, #20]
   877c2:	3402      	addne	r4, #2
   877c4:	9405      	strne	r4, [sp, #20]
   877c6:	f01c 0984 	ands.w	r9, ip, #132	; 0x84
   877ca:	f8cd 9030 	str.w	r9, [sp, #48]	; 0x30
   877ce:	f040 82aa 	bne.w	87d26 <_vfiprintf_r+0x86e>
   877d2:	9807      	ldr	r0, [sp, #28]
   877d4:	9b05      	ldr	r3, [sp, #20]
   877d6:	1ac4      	subs	r4, r0, r3
   877d8:	2c00      	cmp	r4, #0
   877da:	f340 82a4 	ble.w	87d26 <_vfiprintf_r+0x86e>
   877de:	2c10      	cmp	r4, #16
   877e0:	f340 84ec 	ble.w	881bc <_vfiprintf_r+0xd04>
   877e4:	463b      	mov	r3, r7
   877e6:	f24a 29f8 	movw	r9, #41720	; 0xa2f8
   877ea:	4627      	mov	r7, r4
   877ec:	9a15      	ldr	r2, [sp, #84]	; 0x54
   877ee:	9814      	ldr	r0, [sp, #80]	; 0x50
   877f0:	f2c0 0908 	movt	r9, #8
   877f4:	f04f 0b10 	mov.w	fp, #16
   877f8:	f8cd c03c 	str.w	ip, [sp, #60]	; 0x3c
   877fc:	461c      	mov	r4, r3
   877fe:	e006      	b.n	8780e <_vfiprintf_r+0x356>
   87800:	4610      	mov	r0, r2
   87802:	f04f 0c01 	mov.w	ip, #1
   87806:	4646      	mov	r6, r8
   87808:	3f10      	subs	r7, #16
   8780a:	2f10      	cmp	r7, #16
   8780c:	dd1f      	ble.n	8784e <_vfiprintf_r+0x396>
   8780e:	1c41      	adds	r1, r0, #1
   87810:	3210      	adds	r2, #16
   87812:	2907      	cmp	r1, #7
   87814:	6034      	str	r4, [r6, #0]
   87816:	f100 0c02 	add.w	ip, r0, #2
   8781a:	f8c6 b004 	str.w	fp, [r6, #4]
   8781e:	9215      	str	r2, [sp, #84]	; 0x54
   87820:	4608      	mov	r0, r1
   87822:	f106 0608 	add.w	r6, r6, #8
   87826:	9114      	str	r1, [sp, #80]	; 0x50
   87828:	ddee      	ble.n	87808 <_vfiprintf_r+0x350>
   8782a:	2a00      	cmp	r2, #0
   8782c:	d0e8      	beq.n	87800 <_vfiprintf_r+0x348>
   8782e:	9808      	ldr	r0, [sp, #32]
   87830:	aa13      	add	r2, sp, #76	; 0x4c
   87832:	9904      	ldr	r1, [sp, #16]
   87834:	4646      	mov	r6, r8
   87836:	f7ff fdf7 	bl	87428 <__sprint_r.part.0>
   8783a:	2800      	cmp	r0, #0
   8783c:	f040 8293 	bne.w	87d66 <_vfiprintf_r+0x8ae>
   87840:	3f10      	subs	r7, #16
   87842:	9814      	ldr	r0, [sp, #80]	; 0x50
   87844:	2f10      	cmp	r7, #16
   87846:	9a15      	ldr	r2, [sp, #84]	; 0x54
   87848:	f100 0c01 	add.w	ip, r0, #1
   8784c:	dcdf      	bgt.n	8780e <_vfiprintf_r+0x356>
   8784e:	4621      	mov	r1, r4
   87850:	4663      	mov	r3, ip
   87852:	f8dd c03c 	ldr.w	ip, [sp, #60]	; 0x3c
   87856:	463c      	mov	r4, r7
   87858:	460f      	mov	r7, r1
   8785a:	2b07      	cmp	r3, #7
   8785c:	4422      	add	r2, r4
   8785e:	f8c6 9000 	str.w	r9, [r6]
   87862:	bfd8      	it	le
   87864:	1c59      	addle	r1, r3, #1
   87866:	6074      	str	r4, [r6, #4]
   87868:	bfd8      	it	le
   8786a:	3608      	addle	r6, #8
   8786c:	9215      	str	r2, [sp, #84]	; 0x54
   8786e:	9314      	str	r3, [sp, #80]	; 0x50
   87870:	f340 825c 	ble.w	87d2c <_vfiprintf_r+0x874>
   87874:	2a00      	cmp	r2, #0
   87876:	f040 842a 	bne.w	880ce <_vfiprintf_r+0xc16>
   8787a:	f89d 0047 	ldrb.w	r0, [sp, #71]	; 0x47
   8787e:	4613      	mov	r3, r2
   87880:	2101      	movs	r1, #1
   87882:	4646      	mov	r6, r8
   87884:	2800      	cmp	r0, #0
   87886:	f040 8256 	bne.w	87d36 <_vfiprintf_r+0x87e>
   8788a:	f1ba 0f00 	cmp.w	sl, #0
   8788e:	d00e      	beq.n	878ae <_vfiprintf_r+0x3f6>
   87890:	2907      	cmp	r1, #7
   87892:	ab12      	add	r3, sp, #72	; 0x48
   87894:	f102 0202 	add.w	r2, r2, #2
   87898:	6033      	str	r3, [r6, #0]
   8789a:	9114      	str	r1, [sp, #80]	; 0x50
   8789c:	f04f 0302 	mov.w	r3, #2
   878a0:	9215      	str	r2, [sp, #84]	; 0x54
   878a2:	6073      	str	r3, [r6, #4]
   878a4:	f300 833d 	bgt.w	87f22 <_vfiprintf_r+0xa6a>
   878a8:	460b      	mov	r3, r1
   878aa:	3608      	adds	r6, #8
   878ac:	3101      	adds	r1, #1
   878ae:	9c0c      	ldr	r4, [sp, #48]	; 0x30
   878b0:	2c80      	cmp	r4, #128	; 0x80
   878b2:	f000 82e3 	beq.w	87e7c <_vfiprintf_r+0x9c4>
   878b6:	9c06      	ldr	r4, [sp, #24]
   878b8:	9809      	ldr	r0, [sp, #36]	; 0x24
   878ba:	ebc0 0904 	rsb	r9, r0, r4
   878be:	f1b9 0f00 	cmp.w	r9, #0
   878c2:	f340 8268 	ble.w	87d96 <_vfiprintf_r+0x8de>
   878c6:	f1b9 0f10 	cmp.w	r9, #16
   878ca:	f8df a31c 	ldr.w	sl, [pc, #796]	; 87be8 <_vfiprintf_r+0x730>
   878ce:	bfc1      	itttt	gt
   878d0:	46cb      	movgt	fp, r9
   878d2:	2410      	movgt	r4, #16
   878d4:	46b9      	movgt	r9, r7
   878d6:	4667      	movgt	r7, ip
   878d8:	dc08      	bgt.n	878ec <_vfiprintf_r+0x434>
   878da:	e02e      	b.n	8793a <_vfiprintf_r+0x482>
   878dc:	4613      	mov	r3, r2
   878de:	2101      	movs	r1, #1
   878e0:	4646      	mov	r6, r8
   878e2:	f1ab 0b10 	sub.w	fp, fp, #16
   878e6:	f1bb 0f10 	cmp.w	fp, #16
   878ea:	dd23      	ble.n	87934 <_vfiprintf_r+0x47c>
   878ec:	1c58      	adds	r0, r3, #1
   878ee:	49be      	ldr	r1, [pc, #760]	; (87be8 <_vfiprintf_r+0x730>)
   878f0:	2807      	cmp	r0, #7
   878f2:	f102 0210 	add.w	r2, r2, #16
   878f6:	6074      	str	r4, [r6, #4]
   878f8:	f106 0608 	add.w	r6, r6, #8
   878fc:	f846 1c08 	str.w	r1, [r6, #-8]
   87900:	f103 0102 	add.w	r1, r3, #2
   87904:	9215      	str	r2, [sp, #84]	; 0x54
   87906:	4603      	mov	r3, r0
   87908:	9014      	str	r0, [sp, #80]	; 0x50
   8790a:	ddea      	ble.n	878e2 <_vfiprintf_r+0x42a>
   8790c:	2a00      	cmp	r2, #0
   8790e:	d0e5      	beq.n	878dc <_vfiprintf_r+0x424>
   87910:	9808      	ldr	r0, [sp, #32]
   87912:	aa13      	add	r2, sp, #76	; 0x4c
   87914:	9904      	ldr	r1, [sp, #16]
   87916:	4646      	mov	r6, r8
   87918:	f7ff fd86 	bl	87428 <__sprint_r.part.0>
   8791c:	2800      	cmp	r0, #0
   8791e:	f040 8222 	bne.w	87d66 <_vfiprintf_r+0x8ae>
   87922:	f1ab 0b10 	sub.w	fp, fp, #16
   87926:	9b14      	ldr	r3, [sp, #80]	; 0x50
   87928:	f1bb 0f10 	cmp.w	fp, #16
   8792c:	9a15      	ldr	r2, [sp, #84]	; 0x54
   8792e:	f103 0101 	add.w	r1, r3, #1
   87932:	dcdb      	bgt.n	878ec <_vfiprintf_r+0x434>
   87934:	46bc      	mov	ip, r7
   87936:	464f      	mov	r7, r9
   87938:	46d9      	mov	r9, fp
   8793a:	2907      	cmp	r1, #7
   8793c:	444a      	add	r2, r9
   8793e:	f8c6 a000 	str.w	sl, [r6]
   87942:	f8c6 9004 	str.w	r9, [r6, #4]
   87946:	bfd8      	it	le
   87948:	3608      	addle	r6, #8
   8794a:	9114      	str	r1, [sp, #80]	; 0x50
   8794c:	bfd8      	it	le
   8794e:	3101      	addle	r1, #1
   87950:	9215      	str	r2, [sp, #84]	; 0x54
   87952:	f340 8220 	ble.w	87d96 <_vfiprintf_r+0x8de>
   87956:	2a00      	cmp	r2, #0
   87958:	f040 820e 	bne.w	87d78 <_vfiprintf_r+0x8c0>
   8795c:	9a09      	ldr	r2, [sp, #36]	; 0x24
   8795e:	4646      	mov	r6, r8
   87960:	2301      	movs	r3, #1
   87962:	9520      	str	r5, [sp, #128]	; 0x80
   87964:	9314      	str	r3, [sp, #80]	; 0x50
   87966:	9221      	str	r2, [sp, #132]	; 0x84
   87968:	9215      	str	r2, [sp, #84]	; 0x54
   8796a:	f01c 0f04 	tst.w	ip, #4
   8796e:	f106 0608 	add.w	r6, r6, #8
   87972:	f040 8222 	bne.w	87dba <_vfiprintf_r+0x902>
   87976:	9c0b      	ldr	r4, [sp, #44]	; 0x2c
   87978:	f8dd 9014 	ldr.w	r9, [sp, #20]
   8797c:	9d07      	ldr	r5, [sp, #28]
   8797e:	45a9      	cmp	r9, r5
   87980:	bfac      	ite	ge
   87982:	444c      	addge	r4, r9
   87984:	1964      	addlt	r4, r4, r5
   87986:	940b      	str	r4, [sp, #44]	; 0x2c
   87988:	b13a      	cbz	r2, 8799a <_vfiprintf_r+0x4e2>
   8798a:	9808      	ldr	r0, [sp, #32]
   8798c:	aa13      	add	r2, sp, #76	; 0x4c
   8798e:	9904      	ldr	r1, [sp, #16]
   87990:	f7ff fd4a 	bl	87428 <__sprint_r.part.0>
   87994:	2800      	cmp	r0, #0
   87996:	f040 81e6 	bne.w	87d66 <_vfiprintf_r+0x8ae>
   8799a:	f8dd 900c 	ldr.w	r9, [sp, #12]
   8799e:	2300      	movs	r3, #0
   879a0:	9314      	str	r3, [sp, #80]	; 0x50
   879a2:	4646      	mov	r6, r8
   879a4:	f899 3000 	ldrb.w	r3, [r9]
   879a8:	2b00      	cmp	r3, #0
   879aa:	bf18      	it	ne
   879ac:	2b25      	cmpne	r3, #37	; 0x25
   879ae:	f47f adea 	bne.w	87586 <_vfiprintf_r+0xce>
   879b2:	9c03      	ldr	r4, [sp, #12]
   879b4:	e602      	b.n	875bc <_vfiprintf_r+0x104>
   879b6:	ea4f 03da 	mov.w	r3, sl, lsr #3
   879ba:	ea4f 01db 	mov.w	r1, fp, lsr #3
   879be:	ea43 734b 	orr.w	r3, r3, fp, lsl #29
   879c2:	4615      	mov	r5, r2
   879c4:	468b      	mov	fp, r1
   879c6:	f00a 0207 	and.w	r2, sl, #7
   879ca:	469a      	mov	sl, r3
   879cc:	f102 0330 	add.w	r3, r2, #48	; 0x30
   879d0:	ea5a 090b 	orrs.w	r9, sl, fp
   879d4:	f105 32ff 	add.w	r2, r5, #4294967295	; 0xffffffff
   879d8:	702b      	strb	r3, [r5, #0]
   879da:	d1ec      	bne.n	879b6 <_vfiprintf_r+0x4fe>
   879dc:	f01c 0f01 	tst.w	ip, #1
   879e0:	4629      	mov	r1, r5
   879e2:	f43f aede 	beq.w	877a2 <_vfiprintf_r+0x2ea>
   879e6:	2b30      	cmp	r3, #48	; 0x30
   879e8:	f43f aedb 	beq.w	877a2 <_vfiprintf_r+0x2ea>
   879ec:	2330      	movs	r3, #48	; 0x30
   879ee:	ebc2 0008 	rsb	r0, r2, r8
   879f2:	4615      	mov	r5, r2
   879f4:	9009      	str	r0, [sp, #36]	; 0x24
   879f6:	f801 3c01 	strb.w	r3, [r1, #-1]
   879fa:	e6d5      	b.n	877a8 <_vfiprintf_r+0x2f0>
   879fc:	f01c 0f20 	tst.w	ip, #32
   87a00:	9407      	str	r4, [sp, #28]
   87a02:	9203      	str	r2, [sp, #12]
   87a04:	f000 8084 	beq.w	87b10 <_vfiprintf_r+0x658>
   87a08:	9d0a      	ldr	r5, [sp, #40]	; 0x28
   87a0a:	2301      	movs	r3, #1
   87a0c:	1dea      	adds	r2, r5, #7
   87a0e:	f022 0207 	bic.w	r2, r2, #7
   87a12:	f102 0908 	add.w	r9, r2, #8
   87a16:	f8cd 9028 	str.w	r9, [sp, #40]	; 0x28
   87a1a:	e9d2 ab00 	ldrd	sl, fp, [r2]
   87a1e:	e68e      	b.n	8773e <_vfiprintf_r+0x286>
   87a20:	9407      	str	r4, [sp, #28]
   87a22:	f04f 0a00 	mov.w	sl, #0
   87a26:	9c0a      	ldr	r4, [sp, #40]	; 0x28
   87a28:	9203      	str	r2, [sp, #12]
   87a2a:	f104 0904 	add.w	r9, r4, #4
   87a2e:	f88d a047 	strb.w	sl, [sp, #71]	; 0x47
   87a32:	6825      	ldr	r5, [r4, #0]
   87a34:	2d00      	cmp	r5, #0
   87a36:	f000 83ca 	beq.w	881ce <_vfiprintf_r+0xd16>
   87a3a:	9c06      	ldr	r4, [sp, #24]
   87a3c:	4628      	mov	r0, r5
   87a3e:	2c00      	cmp	r4, #0
   87a40:	f2c0 8398 	blt.w	88174 <_vfiprintf_r+0xcbc>
   87a44:	4651      	mov	r1, sl
   87a46:	4622      	mov	r2, r4
   87a48:	f8cd c004 	str.w	ip, [sp, #4]
   87a4c:	f7fe fde2 	bl	86614 <memchr>
   87a50:	f8dd c004 	ldr.w	ip, [sp, #4]
   87a54:	2800      	cmp	r0, #0
   87a56:	f000 83da 	beq.w	8820e <_vfiprintf_r+0xd56>
   87a5a:	1b40      	subs	r0, r0, r5
   87a5c:	f8cd 9028 	str.w	r9, [sp, #40]	; 0x28
   87a60:	42a0      	cmp	r0, r4
   87a62:	bfb8      	it	lt
   87a64:	4604      	movlt	r4, r0
   87a66:	f8cd a018 	str.w	sl, [sp, #24]
   87a6a:	9409      	str	r4, [sp, #36]	; 0x24
   87a6c:	f89d 4047 	ldrb.w	r4, [sp, #71]	; 0x47
   87a70:	e69a      	b.n	877a8 <_vfiprintf_r+0x2f0>
   87a72:	f04c 0c80 	orr.w	ip, ip, #128	; 0x80
   87a76:	7813      	ldrb	r3, [r2, #0]
   87a78:	e5b2      	b.n	875e0 <_vfiprintf_r+0x128>
   87a7a:	f1a3 0030 	sub.w	r0, r3, #48	; 0x30
   87a7e:	2400      	movs	r4, #0
   87a80:	eb04 0484 	add.w	r4, r4, r4, lsl #2
   87a84:	f812 3b01 	ldrb.w	r3, [r2], #1
   87a88:	eb00 0444 	add.w	r4, r0, r4, lsl #1
   87a8c:	f1a3 0030 	sub.w	r0, r3, #48	; 0x30
   87a90:	2809      	cmp	r0, #9
   87a92:	d9f5      	bls.n	87a80 <_vfiprintf_r+0x5c8>
   87a94:	e5a5      	b.n	875e2 <_vfiprintf_r+0x12a>
   87a96:	f04c 0c10 	orr.w	ip, ip, #16
   87a9a:	9407      	str	r4, [sp, #28]
   87a9c:	f01c 0f20 	tst.w	ip, #32
   87aa0:	9203      	str	r2, [sp, #12]
   87aa2:	f88d 1047 	strb.w	r1, [sp, #71]	; 0x47
   87aa6:	f000 8088 	beq.w	87bba <_vfiprintf_r+0x702>
   87aaa:	f8dd 9028 	ldr.w	r9, [sp, #40]	; 0x28
   87aae:	f109 0307 	add.w	r3, r9, #7
   87ab2:	f023 0307 	bic.w	r3, r3, #7
   87ab6:	f103 0408 	add.w	r4, r3, #8
   87aba:	940a      	str	r4, [sp, #40]	; 0x28
   87abc:	e9d3 2300 	ldrd	r2, r3, [r3]
   87ac0:	4692      	mov	sl, r2
   87ac2:	469b      	mov	fp, r3
   87ac4:	2a00      	cmp	r2, #0
   87ac6:	f173 0500 	sbcs.w	r5, r3, #0
   87aca:	f2c0 82ab 	blt.w	88024 <_vfiprintf_r+0xb6c>
   87ace:	f89d 4047 	ldrb.w	r4, [sp, #71]	; 0x47
   87ad2:	2301      	movs	r3, #1
   87ad4:	e636      	b.n	87744 <_vfiprintf_r+0x28c>
   87ad6:	f04c 0c10 	orr.w	ip, ip, #16
   87ada:	9407      	str	r4, [sp, #28]
   87adc:	f01c 0320 	ands.w	r3, ip, #32
   87ae0:	9203      	str	r2, [sp, #12]
   87ae2:	f47f ae20 	bne.w	87726 <_vfiprintf_r+0x26e>
   87ae6:	f01c 0210 	ands.w	r2, ip, #16
   87aea:	f000 82b1 	beq.w	88050 <_vfiprintf_r+0xb98>
   87aee:	9d0a      	ldr	r5, [sp, #40]	; 0x28
   87af0:	f04f 0b00 	mov.w	fp, #0
   87af4:	3504      	adds	r5, #4
   87af6:	f855 2c04 	ldr.w	r2, [r5, #-4]
   87afa:	950a      	str	r5, [sp, #40]	; 0x28
   87afc:	4692      	mov	sl, r2
   87afe:	e61e      	b.n	8773e <_vfiprintf_r+0x286>
   87b00:	f04c 0c10 	orr.w	ip, ip, #16
   87b04:	9407      	str	r4, [sp, #28]
   87b06:	f01c 0f20 	tst.w	ip, #32
   87b0a:	9203      	str	r2, [sp, #12]
   87b0c:	f47f af7c 	bne.w	87a08 <_vfiprintf_r+0x550>
   87b10:	f01c 0f10 	tst.w	ip, #16
   87b14:	f000 82ac 	beq.w	88070 <_vfiprintf_r+0xbb8>
   87b18:	9c0a      	ldr	r4, [sp, #40]	; 0x28
   87b1a:	2301      	movs	r3, #1
   87b1c:	f04f 0b00 	mov.w	fp, #0
   87b20:	3404      	adds	r4, #4
   87b22:	f854 2c04 	ldr.w	r2, [r4, #-4]
   87b26:	940a      	str	r4, [sp, #40]	; 0x28
   87b28:	4692      	mov	sl, r2
   87b2a:	e608      	b.n	8773e <_vfiprintf_r+0x286>
   87b2c:	f01c 0f20 	tst.w	ip, #32
   87b30:	f24a 191c 	movw	r9, #41244	; 0xa11c
   87b34:	f2c0 0908 	movt	r9, #8
   87b38:	9407      	str	r4, [sp, #28]
   87b3a:	9203      	str	r2, [sp, #12]
   87b3c:	f88d 1047 	strb.w	r1, [sp, #71]	; 0x47
   87b40:	f8cd 9034 	str.w	r9, [sp, #52]	; 0x34
   87b44:	f000 8080 	beq.w	87c48 <_vfiprintf_r+0x790>
   87b48:	9d0a      	ldr	r5, [sp, #40]	; 0x28
   87b4a:	1dea      	adds	r2, r5, #7
   87b4c:	f022 0207 	bic.w	r2, r2, #7
   87b50:	f102 0908 	add.w	r9, r2, #8
   87b54:	f8cd 9028 	str.w	r9, [sp, #40]	; 0x28
   87b58:	e9d2 ab00 	ldrd	sl, fp, [r2]
   87b5c:	f01c 0f01 	tst.w	ip, #1
   87b60:	f000 81e8 	beq.w	87f34 <_vfiprintf_r+0xa7c>
   87b64:	ea5a 000b 	orrs.w	r0, sl, fp
   87b68:	f000 81e4 	beq.w	87f34 <_vfiprintf_r+0xa7c>
   87b6c:	f88d 3049 	strb.w	r3, [sp, #73]	; 0x49
   87b70:	f04c 0c02 	orr.w	ip, ip, #2
   87b74:	2330      	movs	r3, #48	; 0x30
   87b76:	f88d 3048 	strb.w	r3, [sp, #72]	; 0x48
   87b7a:	2302      	movs	r3, #2
   87b7c:	e5df      	b.n	8773e <_vfiprintf_r+0x286>
   87b7e:	9b0a      	ldr	r3, [sp, #40]	; 0x28
   87b80:	f04f 0901 	mov.w	r9, #1
   87b84:	9d0a      	ldr	r5, [sp, #40]	; 0x28
   87b86:	9203      	str	r2, [sp, #12]
   87b88:	2200      	movs	r2, #0
   87b8a:	681b      	ldr	r3, [r3, #0]
   87b8c:	3504      	adds	r5, #4
   87b8e:	950a      	str	r5, [sp, #40]	; 0x28
   87b90:	ad16      	add	r5, sp, #88	; 0x58
   87b92:	9407      	str	r4, [sp, #28]
   87b94:	f8cd 9014 	str.w	r9, [sp, #20]
   87b98:	f8cd 9024 	str.w	r9, [sp, #36]	; 0x24
   87b9c:	f88d 2047 	strb.w	r2, [sp, #71]	; 0x47
   87ba0:	f88d 3058 	strb.w	r3, [sp, #88]	; 0x58
   87ba4:	2400      	movs	r4, #0
   87ba6:	9406      	str	r4, [sp, #24]
   87ba8:	e607      	b.n	877ba <_vfiprintf_r+0x302>
   87baa:	f01c 0f20 	tst.w	ip, #32
   87bae:	9407      	str	r4, [sp, #28]
   87bb0:	9203      	str	r2, [sp, #12]
   87bb2:	f88d 1047 	strb.w	r1, [sp, #71]	; 0x47
   87bb6:	f47f af78 	bne.w	87aaa <_vfiprintf_r+0x5f2>
   87bba:	f01c 0f10 	tst.w	ip, #16
   87bbe:	f000 8276 	beq.w	880ae <_vfiprintf_r+0xbf6>
   87bc2:	9d0a      	ldr	r5, [sp, #40]	; 0x28
   87bc4:	3504      	adds	r5, #4
   87bc6:	f855 3c04 	ldr.w	r3, [r5, #-4]
   87bca:	950a      	str	r5, [sp, #40]	; 0x28
   87bcc:	469a      	mov	sl, r3
   87bce:	461a      	mov	r2, r3
   87bd0:	ea4f 7be3 	mov.w	fp, r3, asr #31
   87bd4:	465b      	mov	r3, fp
   87bd6:	e775      	b.n	87ac4 <_vfiprintf_r+0x60c>
   87bd8:	f04c 0c20 	orr.w	ip, ip, #32
   87bdc:	7813      	ldrb	r3, [r2, #0]
   87bde:	e4ff      	b.n	875e0 <_vfiprintf_r+0x128>
   87be0:	f04c 0c40 	orr.w	ip, ip, #64	; 0x40
   87be4:	7813      	ldrb	r3, [r2, #0]
   87be6:	e4fb      	b.n	875e0 <_vfiprintf_r+0x128>
   87be8:	0008a308 	.word	0x0008a308
   87bec:	7813      	ldrb	r3, [r2, #0]
   87bee:	4610      	mov	r0, r2
   87bf0:	2b6c      	cmp	r3, #108	; 0x6c
   87bf2:	bf03      	ittte	eq
   87bf4:	3201      	addeq	r2, #1
   87bf6:	f04c 0c20 	orreq.w	ip, ip, #32
   87bfa:	7843      	ldrbeq	r3, [r0, #1]
   87bfc:	f04c 0c10 	orrne.w	ip, ip, #16
   87c00:	e4ee      	b.n	875e0 <_vfiprintf_r+0x128>
   87c02:	f01c 0f20 	tst.w	ip, #32
   87c06:	9203      	str	r2, [sp, #12]
   87c08:	f88d 1047 	strb.w	r1, [sp, #71]	; 0x47
   87c0c:	f000 823d 	beq.w	8808a <_vfiprintf_r+0xbd2>
   87c10:	f8dd 9028 	ldr.w	r9, [sp, #40]	; 0x28
   87c14:	9c0b      	ldr	r4, [sp, #44]	; 0x2c
   87c16:	f109 0904 	add.w	r9, r9, #4
   87c1a:	f859 1c04 	ldr.w	r1, [r9, #-4]
   87c1e:	4622      	mov	r2, r4
   87c20:	17e5      	asrs	r5, r4, #31
   87c22:	f8cd 9028 	str.w	r9, [sp, #40]	; 0x28
   87c26:	462b      	mov	r3, r5
   87c28:	e9c1 2300 	strd	r2, r3, [r1]
   87c2c:	e4a2      	b.n	87574 <_vfiprintf_r+0xbc>
   87c2e:	f01c 0f20 	tst.w	ip, #32
   87c32:	9407      	str	r4, [sp, #28]
   87c34:	f24a 1430 	movw	r4, #41264	; 0xa130
   87c38:	9203      	str	r2, [sp, #12]
   87c3a:	f2c0 0408 	movt	r4, #8
   87c3e:	f88d 1047 	strb.w	r1, [sp, #71]	; 0x47
   87c42:	940d      	str	r4, [sp, #52]	; 0x34
   87c44:	f47f af80 	bne.w	87b48 <_vfiprintf_r+0x690>
   87c48:	f01c 0f10 	tst.w	ip, #16
   87c4c:	f000 81f4 	beq.w	88038 <_vfiprintf_r+0xb80>
   87c50:	9c0a      	ldr	r4, [sp, #40]	; 0x28
   87c52:	f04f 0b00 	mov.w	fp, #0
   87c56:	3404      	adds	r4, #4
   87c58:	f854 2c04 	ldr.w	r2, [r4, #-4]
   87c5c:	940a      	str	r4, [sp, #40]	; 0x28
   87c5e:	4692      	mov	sl, r2
   87c60:	e77c      	b.n	87b5c <_vfiprintf_r+0x6a4>
   87c62:	9d0a      	ldr	r5, [sp, #40]	; 0x28
   87c64:	1d2b      	adds	r3, r5, #4
   87c66:	682c      	ldr	r4, [r5, #0]
   87c68:	2c00      	cmp	r4, #0
   87c6a:	f6ff ad50 	blt.w	8770e <_vfiprintf_r+0x256>
   87c6e:	930a      	str	r3, [sp, #40]	; 0x28
   87c70:	7813      	ldrb	r3, [r2, #0]
   87c72:	e4b5      	b.n	875e0 <_vfiprintf_r+0x128>
   87c74:	7813      	ldrb	r3, [r2, #0]
   87c76:	212b      	movs	r1, #43	; 0x2b
   87c78:	e4b2      	b.n	875e0 <_vfiprintf_r+0x128>
   87c7a:	7813      	ldrb	r3, [r2, #0]
   87c7c:	1c55      	adds	r5, r2, #1
   87c7e:	2b2a      	cmp	r3, #42	; 0x2a
   87c80:	f000 82d0 	beq.w	88224 <_vfiprintf_r+0xd6c>
   87c84:	f1a3 0030 	sub.w	r0, r3, #48	; 0x30
   87c88:	2809      	cmp	r0, #9
   87c8a:	bf82      	ittt	hi
   87c8c:	462a      	movhi	r2, r5
   87c8e:	2500      	movhi	r5, #0
   87c90:	9506      	strhi	r5, [sp, #24]
   87c92:	f63f aca6 	bhi.w	875e2 <_vfiprintf_r+0x12a>
   87c96:	2200      	movs	r2, #0
   87c98:	eb02 0282 	add.w	r2, r2, r2, lsl #2
   87c9c:	f815 3b01 	ldrb.w	r3, [r5], #1
   87ca0:	eb00 0242 	add.w	r2, r0, r2, lsl #1
   87ca4:	f1a3 0030 	sub.w	r0, r3, #48	; 0x30
   87ca8:	2809      	cmp	r0, #9
   87caa:	d9f5      	bls.n	87c98 <_vfiprintf_r+0x7e0>
   87cac:	ea42 72e2 	orr.w	r2, r2, r2, asr #31
   87cb0:	9206      	str	r2, [sp, #24]
   87cb2:	462a      	mov	r2, r5
   87cb4:	e495      	b.n	875e2 <_vfiprintf_r+0x12a>
   87cb6:	9b0a      	ldr	r3, [sp, #40]	; 0x28
   87cb8:	f24a 1530 	movw	r5, #41264	; 0xa130
   87cbc:	f8dd 9028 	ldr.w	r9, [sp, #40]	; 0x28
   87cc0:	f2c0 0508 	movt	r5, #8
   87cc4:	9203      	str	r2, [sp, #12]
   87cc6:	f04c 0c02 	orr.w	ip, ip, #2
   87cca:	681b      	ldr	r3, [r3, #0]
   87ccc:	f109 0904 	add.w	r9, r9, #4
   87cd0:	2230      	movs	r2, #48	; 0x30
   87cd2:	9407      	str	r4, [sp, #28]
   87cd4:	469a      	mov	sl, r3
   87cd6:	f8cd 9028 	str.w	r9, [sp, #40]	; 0x28
   87cda:	2378      	movs	r3, #120	; 0x78
   87cdc:	950d      	str	r5, [sp, #52]	; 0x34
   87cde:	f88d 3049 	strb.w	r3, [sp, #73]	; 0x49
   87ce2:	f04f 0b00 	mov.w	fp, #0
   87ce6:	f88d 2048 	strb.w	r2, [sp, #72]	; 0x48
   87cea:	2302      	movs	r3, #2
   87cec:	e527      	b.n	8773e <_vfiprintf_r+0x286>
   87cee:	7813      	ldrb	r3, [r2, #0]
   87cf0:	2900      	cmp	r1, #0
   87cf2:	f47f ac75 	bne.w	875e0 <_vfiprintf_r+0x128>
   87cf6:	2120      	movs	r1, #32
   87cf8:	e472      	b.n	875e0 <_vfiprintf_r+0x128>
   87cfa:	f04c 0c01 	orr.w	ip, ip, #1
   87cfe:	7813      	ldrb	r3, [r2, #0]
   87d00:	e46e      	b.n	875e0 <_vfiprintf_r+0x128>
   87d02:	9407      	str	r4, [sp, #28]
   87d04:	9203      	str	r2, [sp, #12]
   87d06:	f88d 1047 	strb.w	r1, [sp, #71]	; 0x47
   87d0a:	b32b      	cbz	r3, 87d58 <_vfiprintf_r+0x8a0>
   87d0c:	f04f 0901 	mov.w	r9, #1
   87d10:	f88d 3058 	strb.w	r3, [sp, #88]	; 0x58
   87d14:	f8cd 9014 	str.w	r9, [sp, #20]
   87d18:	2300      	movs	r3, #0
   87d1a:	f8cd 9024 	str.w	r9, [sp, #36]	; 0x24
   87d1e:	ad16      	add	r5, sp, #88	; 0x58
   87d20:	f88d 3047 	strb.w	r3, [sp, #71]	; 0x47
   87d24:	e73e      	b.n	87ba4 <_vfiprintf_r+0x6ec>
   87d26:	9b14      	ldr	r3, [sp, #80]	; 0x50
   87d28:	9a15      	ldr	r2, [sp, #84]	; 0x54
   87d2a:	1c59      	adds	r1, r3, #1
   87d2c:	f89d 0047 	ldrb.w	r0, [sp, #71]	; 0x47
   87d30:	2800      	cmp	r0, #0
   87d32:	f43f adaa 	beq.w	8788a <_vfiprintf_r+0x3d2>
   87d36:	2907      	cmp	r1, #7
   87d38:	f10d 0347 	add.w	r3, sp, #71	; 0x47
   87d3c:	f102 0201 	add.w	r2, r2, #1
   87d40:	6033      	str	r3, [r6, #0]
   87d42:	9114      	str	r1, [sp, #80]	; 0x50
   87d44:	f04f 0301 	mov.w	r3, #1
   87d48:	9215      	str	r2, [sp, #84]	; 0x54
   87d4a:	6073      	str	r3, [r6, #4]
   87d4c:	f300 80e3 	bgt.w	87f16 <_vfiprintf_r+0xa5e>
   87d50:	460b      	mov	r3, r1
   87d52:	3608      	adds	r6, #8
   87d54:	3101      	adds	r1, #1
   87d56:	e598      	b.n	8788a <_vfiprintf_r+0x3d2>
   87d58:	9b15      	ldr	r3, [sp, #84]	; 0x54
   87d5a:	b123      	cbz	r3, 87d66 <_vfiprintf_r+0x8ae>
   87d5c:	9808      	ldr	r0, [sp, #32]
   87d5e:	aa13      	add	r2, sp, #76	; 0x4c
   87d60:	9904      	ldr	r1, [sp, #16]
   87d62:	f7ff fb61 	bl	87428 <__sprint_r.part.0>
   87d66:	9c04      	ldr	r4, [sp, #16]
   87d68:	89a3      	ldrh	r3, [r4, #12]
   87d6a:	065b      	lsls	r3, r3, #25
   87d6c:	f53f acbc 	bmi.w	876e8 <_vfiprintf_r+0x230>
   87d70:	980b      	ldr	r0, [sp, #44]	; 0x2c
   87d72:	b031      	add	sp, #196	; 0xc4
   87d74:	e8bd 8ff0 	ldmia.w	sp!, {r4, r5, r6, r7, r8, r9, sl, fp, pc}
   87d78:	9808      	ldr	r0, [sp, #32]
   87d7a:	aa13      	add	r2, sp, #76	; 0x4c
   87d7c:	9904      	ldr	r1, [sp, #16]
   87d7e:	f8cd c004 	str.w	ip, [sp, #4]
   87d82:	f7ff fb51 	bl	87428 <__sprint_r.part.0>
   87d86:	f8dd c004 	ldr.w	ip, [sp, #4]
   87d8a:	2800      	cmp	r0, #0
   87d8c:	d1eb      	bne.n	87d66 <_vfiprintf_r+0x8ae>
   87d8e:	9914      	ldr	r1, [sp, #80]	; 0x50
   87d90:	4646      	mov	r6, r8
   87d92:	9a15      	ldr	r2, [sp, #84]	; 0x54
   87d94:	3101      	adds	r1, #1
   87d96:	9b09      	ldr	r3, [sp, #36]	; 0x24
   87d98:	2907      	cmp	r1, #7
   87d9a:	6035      	str	r5, [r6, #0]
   87d9c:	441a      	add	r2, r3
   87d9e:	9114      	str	r1, [sp, #80]	; 0x50
   87da0:	9215      	str	r2, [sp, #84]	; 0x54
   87da2:	6073      	str	r3, [r6, #4]
   87da4:	f77f ade1 	ble.w	8796a <_vfiprintf_r+0x4b2>
   87da8:	2a00      	cmp	r2, #0
   87daa:	f040 80d4 	bne.w	87f56 <_vfiprintf_r+0xa9e>
   87dae:	4646      	mov	r6, r8
   87db0:	9214      	str	r2, [sp, #80]	; 0x50
   87db2:	f01c 0f04 	tst.w	ip, #4
   87db6:	f43f adde 	beq.w	87976 <_vfiprintf_r+0x4be>
   87dba:	9d07      	ldr	r5, [sp, #28]
   87dbc:	f8dd 9014 	ldr.w	r9, [sp, #20]
   87dc0:	ebc9 0405 	rsb	r4, r9, r5
   87dc4:	2c00      	cmp	r4, #0
   87dc6:	f77f add6 	ble.w	87976 <_vfiprintf_r+0x4be>
   87dca:	2c10      	cmp	r4, #16
   87dcc:	f340 8218 	ble.w	88200 <_vfiprintf_r+0xd48>
   87dd0:	f24a 29f8 	movw	r9, #41720	; 0xa2f8
   87dd4:	9914      	ldr	r1, [sp, #80]	; 0x50
   87dd6:	f2c0 0908 	movt	r9, #8
   87dda:	2510      	movs	r5, #16
   87ddc:	f8dd a020 	ldr.w	sl, [sp, #32]
   87de0:	f8dd b010 	ldr.w	fp, [sp, #16]
   87de4:	e005      	b.n	87df2 <_vfiprintf_r+0x93a>
   87de6:	4611      	mov	r1, r2
   87de8:	2001      	movs	r0, #1
   87dea:	4646      	mov	r6, r8
   87dec:	3c10      	subs	r4, #16
   87dee:	2c10      	cmp	r4, #16
   87df0:	dd1d      	ble.n	87e2e <_vfiprintf_r+0x976>
   87df2:	1c4b      	adds	r3, r1, #1
   87df4:	3210      	adds	r2, #16
   87df6:	2b07      	cmp	r3, #7
   87df8:	6037      	str	r7, [r6, #0]
   87dfa:	f101 0002 	add.w	r0, r1, #2
   87dfe:	6075      	str	r5, [r6, #4]
   87e00:	9215      	str	r2, [sp, #84]	; 0x54
   87e02:	4619      	mov	r1, r3
   87e04:	f106 0608 	add.w	r6, r6, #8
   87e08:	9314      	str	r3, [sp, #80]	; 0x50
   87e0a:	ddef      	ble.n	87dec <_vfiprintf_r+0x934>
   87e0c:	2a00      	cmp	r2, #0
   87e0e:	d0ea      	beq.n	87de6 <_vfiprintf_r+0x92e>
   87e10:	4650      	mov	r0, sl
   87e12:	4659      	mov	r1, fp
   87e14:	aa13      	add	r2, sp, #76	; 0x4c
   87e16:	4646      	mov	r6, r8
   87e18:	f7ff fb06 	bl	87428 <__sprint_r.part.0>
   87e1c:	2800      	cmp	r0, #0
   87e1e:	d1a2      	bne.n	87d66 <_vfiprintf_r+0x8ae>
   87e20:	3c10      	subs	r4, #16
   87e22:	9914      	ldr	r1, [sp, #80]	; 0x50
   87e24:	2c10      	cmp	r4, #16
   87e26:	9a15      	ldr	r2, [sp, #84]	; 0x54
   87e28:	f101 0001 	add.w	r0, r1, #1
   87e2c:	dce1      	bgt.n	87df2 <_vfiprintf_r+0x93a>
   87e2e:	2807      	cmp	r0, #7
   87e30:	4422      	add	r2, r4
   87e32:	f8c6 9000 	str.w	r9, [r6]
   87e36:	9215      	str	r2, [sp, #84]	; 0x54
   87e38:	6074      	str	r4, [r6, #4]
   87e3a:	9014      	str	r0, [sp, #80]	; 0x50
   87e3c:	f77f ad9b 	ble.w	87976 <_vfiprintf_r+0x4be>
   87e40:	2a00      	cmp	r2, #0
   87e42:	f040 818d 	bne.w	88160 <_vfiprintf_r+0xca8>
   87e46:	9c0b      	ldr	r4, [sp, #44]	; 0x2c
   87e48:	f8dd 9014 	ldr.w	r9, [sp, #20]
   87e4c:	9d07      	ldr	r5, [sp, #28]
   87e4e:	45a9      	cmp	r9, r5
   87e50:	bfac      	ite	ge
   87e52:	444c      	addge	r4, r9
   87e54:	1964      	addlt	r4, r4, r5
   87e56:	940b      	str	r4, [sp, #44]	; 0x2c
   87e58:	e59f      	b.n	8799a <_vfiprintf_r+0x4e2>
   87e5a:	2b00      	cmp	r3, #0
   87e5c:	d167      	bne.n	87f2e <_vfiprintf_r+0xa76>
   87e5e:	f01c 0f01 	tst.w	ip, #1
   87e62:	bf04      	itt	eq
   87e64:	9309      	streq	r3, [sp, #36]	; 0x24
   87e66:	4645      	moveq	r5, r8
   87e68:	f43f ac9e 	beq.w	877a8 <_vfiprintf_r+0x2f0>
   87e6c:	9d0e      	ldr	r5, [sp, #56]	; 0x38
   87e6e:	2330      	movs	r3, #48	; 0x30
   87e70:	f88d 307f 	strb.w	r3, [sp, #127]	; 0x7f
   87e74:	9509      	str	r5, [sp, #36]	; 0x24
   87e76:	f10d 057f 	add.w	r5, sp, #127	; 0x7f
   87e7a:	e495      	b.n	877a8 <_vfiprintf_r+0x2f0>
   87e7c:	9807      	ldr	r0, [sp, #28]
   87e7e:	f8dd 9014 	ldr.w	r9, [sp, #20]
   87e82:	ebc9 0400 	rsb	r4, r9, r0
   87e86:	2c00      	cmp	r4, #0
   87e88:	f77f ad15 	ble.w	878b6 <_vfiprintf_r+0x3fe>
   87e8c:	2c10      	cmp	r4, #16
   87e8e:	f8df a304 	ldr.w	sl, [pc, #772]	; 88194 <_vfiprintf_r+0xcdc>
   87e92:	f340 81c5 	ble.w	88220 <_vfiprintf_r+0xd68>
   87e96:	46a1      	mov	r9, r4
   87e98:	f04f 0b10 	mov.w	fp, #16
   87e9c:	4664      	mov	r4, ip
   87e9e:	e007      	b.n	87eb0 <_vfiprintf_r+0x9f8>
   87ea0:	4613      	mov	r3, r2
   87ea2:	2001      	movs	r0, #1
   87ea4:	4646      	mov	r6, r8
   87ea6:	f1a9 0910 	sub.w	r9, r9, #16
   87eaa:	f1b9 0f10 	cmp.w	r9, #16
   87eae:	dd24      	ble.n	87efa <_vfiprintf_r+0xa42>
   87eb0:	1c59      	adds	r1, r3, #1
   87eb2:	48b8      	ldr	r0, [pc, #736]	; (88194 <_vfiprintf_r+0xcdc>)
   87eb4:	2907      	cmp	r1, #7
   87eb6:	f102 0210 	add.w	r2, r2, #16
   87eba:	f8c6 b004 	str.w	fp, [r6, #4]
   87ebe:	f106 0608 	add.w	r6, r6, #8
   87ec2:	f846 0c08 	str.w	r0, [r6, #-8]
   87ec6:	f103 0002 	add.w	r0, r3, #2
   87eca:	9215      	str	r2, [sp, #84]	; 0x54
   87ecc:	460b      	mov	r3, r1
   87ece:	9114      	str	r1, [sp, #80]	; 0x50
   87ed0:	dde9      	ble.n	87ea6 <_vfiprintf_r+0x9ee>
   87ed2:	2a00      	cmp	r2, #0
   87ed4:	d0e4      	beq.n	87ea0 <_vfiprintf_r+0x9e8>
   87ed6:	9808      	ldr	r0, [sp, #32]
   87ed8:	aa13      	add	r2, sp, #76	; 0x4c
   87eda:	9904      	ldr	r1, [sp, #16]
   87edc:	4646      	mov	r6, r8
   87ede:	f7ff faa3 	bl	87428 <__sprint_r.part.0>
   87ee2:	2800      	cmp	r0, #0
   87ee4:	f47f af3f 	bne.w	87d66 <_vfiprintf_r+0x8ae>
   87ee8:	f1a9 0910 	sub.w	r9, r9, #16
   87eec:	9b14      	ldr	r3, [sp, #80]	; 0x50
   87eee:	f1b9 0f10 	cmp.w	r9, #16
   87ef2:	9a15      	ldr	r2, [sp, #84]	; 0x54
   87ef4:	f103 0001 	add.w	r0, r3, #1
   87ef8:	dcda      	bgt.n	87eb0 <_vfiprintf_r+0x9f8>
   87efa:	46a4      	mov	ip, r4
   87efc:	464c      	mov	r4, r9
   87efe:	2807      	cmp	r0, #7
   87f00:	4422      	add	r2, r4
   87f02:	f8c6 a000 	str.w	sl, [r6]
   87f06:	9215      	str	r2, [sp, #84]	; 0x54
   87f08:	6074      	str	r4, [r6, #4]
   87f0a:	9014      	str	r0, [sp, #80]	; 0x50
   87f0c:	dc64      	bgt.n	87fd8 <_vfiprintf_r+0xb20>
   87f0e:	3608      	adds	r6, #8
   87f10:	1c41      	adds	r1, r0, #1
   87f12:	4603      	mov	r3, r0
   87f14:	e4cf      	b.n	878b6 <_vfiprintf_r+0x3fe>
   87f16:	2a00      	cmp	r2, #0
   87f18:	d13c      	bne.n	87f94 <_vfiprintf_r+0xadc>
   87f1a:	4619      	mov	r1, r3
   87f1c:	4646      	mov	r6, r8
   87f1e:	4613      	mov	r3, r2
   87f20:	e4b3      	b.n	8788a <_vfiprintf_r+0x3d2>
   87f22:	2a00      	cmp	r2, #0
   87f24:	d147      	bne.n	87fb6 <_vfiprintf_r+0xafe>
   87f26:	4613      	mov	r3, r2
   87f28:	2101      	movs	r1, #1
   87f2a:	4646      	mov	r6, r8
   87f2c:	e4bf      	b.n	878ae <_vfiprintf_r+0x3f6>
   87f2e:	9209      	str	r2, [sp, #36]	; 0x24
   87f30:	4645      	mov	r5, r8
   87f32:	e439      	b.n	877a8 <_vfiprintf_r+0x2f0>
   87f34:	2302      	movs	r3, #2
   87f36:	e402      	b.n	8773e <_vfiprintf_r+0x286>
   87f38:	f1bb 0f00 	cmp.w	fp, #0
   87f3c:	bf08      	it	eq
   87f3e:	f1ba 0f0a 	cmpeq.w	sl, #10
   87f42:	d250      	bcs.n	87fe6 <_vfiprintf_r+0xb2e>
   87f44:	9d0e      	ldr	r5, [sp, #56]	; 0x38
   87f46:	f10a 0330 	add.w	r3, sl, #48	; 0x30
   87f4a:	f88d 307f 	strb.w	r3, [sp, #127]	; 0x7f
   87f4e:	9509      	str	r5, [sp, #36]	; 0x24
   87f50:	f10d 057f 	add.w	r5, sp, #127	; 0x7f
   87f54:	e428      	b.n	877a8 <_vfiprintf_r+0x2f0>
   87f56:	9808      	ldr	r0, [sp, #32]
   87f58:	aa13      	add	r2, sp, #76	; 0x4c
   87f5a:	9904      	ldr	r1, [sp, #16]
   87f5c:	f8cd c004 	str.w	ip, [sp, #4]
   87f60:	f7ff fa62 	bl	87428 <__sprint_r.part.0>
   87f64:	f8dd c004 	ldr.w	ip, [sp, #4]
   87f68:	2800      	cmp	r0, #0
   87f6a:	f47f aefc 	bne.w	87d66 <_vfiprintf_r+0x8ae>
   87f6e:	9a15      	ldr	r2, [sp, #84]	; 0x54
   87f70:	4646      	mov	r6, r8
   87f72:	e71e      	b.n	87db2 <_vfiprintf_r+0x8fa>
   87f74:	9808      	ldr	r0, [sp, #32]
   87f76:	aa13      	add	r2, sp, #76	; 0x4c
   87f78:	9904      	ldr	r1, [sp, #16]
   87f7a:	f7ff fa55 	bl	87428 <__sprint_r.part.0>
   87f7e:	2800      	cmp	r0, #0
   87f80:	f47f aef1 	bne.w	87d66 <_vfiprintf_r+0x8ae>
   87f84:	4646      	mov	r6, r8
   87f86:	f7ff bb16 	b.w	875b6 <_vfiprintf_r+0xfe>
   87f8a:	9d08      	ldr	r5, [sp, #32]
   87f8c:	68ad      	ldr	r5, [r5, #8]
   87f8e:	9504      	str	r5, [sp, #16]
   87f90:	f7ff bab9 	b.w	87506 <_vfiprintf_r+0x4e>
   87f94:	9808      	ldr	r0, [sp, #32]
   87f96:	aa13      	add	r2, sp, #76	; 0x4c
   87f98:	9904      	ldr	r1, [sp, #16]
   87f9a:	f8cd c004 	str.w	ip, [sp, #4]
   87f9e:	f7ff fa43 	bl	87428 <__sprint_r.part.0>
   87fa2:	f8dd c004 	ldr.w	ip, [sp, #4]
   87fa6:	2800      	cmp	r0, #0
   87fa8:	f47f aedd 	bne.w	87d66 <_vfiprintf_r+0x8ae>
   87fac:	9b14      	ldr	r3, [sp, #80]	; 0x50
   87fae:	4646      	mov	r6, r8
   87fb0:	9a15      	ldr	r2, [sp, #84]	; 0x54
   87fb2:	1c59      	adds	r1, r3, #1
   87fb4:	e469      	b.n	8788a <_vfiprintf_r+0x3d2>
   87fb6:	9808      	ldr	r0, [sp, #32]
   87fb8:	aa13      	add	r2, sp, #76	; 0x4c
   87fba:	9904      	ldr	r1, [sp, #16]
   87fbc:	f8cd c004 	str.w	ip, [sp, #4]
   87fc0:	f7ff fa32 	bl	87428 <__sprint_r.part.0>
   87fc4:	f8dd c004 	ldr.w	ip, [sp, #4]
   87fc8:	2800      	cmp	r0, #0
   87fca:	f47f aecc 	bne.w	87d66 <_vfiprintf_r+0x8ae>
   87fce:	9b14      	ldr	r3, [sp, #80]	; 0x50
   87fd0:	4646      	mov	r6, r8
   87fd2:	9a15      	ldr	r2, [sp, #84]	; 0x54
   87fd4:	1c59      	adds	r1, r3, #1
   87fd6:	e46a      	b.n	878ae <_vfiprintf_r+0x3f6>
   87fd8:	2a00      	cmp	r2, #0
   87fda:	f040 80dd 	bne.w	88198 <_vfiprintf_r+0xce0>
   87fde:	4613      	mov	r3, r2
   87fe0:	2101      	movs	r1, #1
   87fe2:	4646      	mov	r6, r8
   87fe4:	e467      	b.n	878b6 <_vfiprintf_r+0x3fe>
   87fe6:	f10d 097f 	add.w	r9, sp, #127	; 0x7f
   87fea:	4665      	mov	r5, ip
   87fec:	9405      	str	r4, [sp, #20]
   87fee:	4650      	mov	r0, sl
   87ff0:	4659      	mov	r1, fp
   87ff2:	220a      	movs	r2, #10
   87ff4:	2300      	movs	r3, #0
   87ff6:	f001 fc6f 	bl	898d8 <__aeabi_uldivmod>
   87ffa:	464c      	mov	r4, r9
   87ffc:	4650      	mov	r0, sl
   87ffe:	4659      	mov	r1, fp
   88000:	2300      	movs	r3, #0
   88002:	f109 39ff 	add.w	r9, r9, #4294967295	; 0xffffffff
   88006:	3230      	adds	r2, #48	; 0x30
   88008:	7022      	strb	r2, [r4, #0]
   8800a:	220a      	movs	r2, #10
   8800c:	f001 fc64 	bl	898d8 <__aeabi_uldivmod>
   88010:	4682      	mov	sl, r0
   88012:	468b      	mov	fp, r1
   88014:	ea5a 000b 	orrs.w	r0, sl, fp
   88018:	d1e9      	bne.n	87fee <_vfiprintf_r+0xb36>
   8801a:	46ac      	mov	ip, r5
   8801c:	4625      	mov	r5, r4
   8801e:	9c05      	ldr	r4, [sp, #20]
   88020:	f7ff bbbf 	b.w	877a2 <_vfiprintf_r+0x2ea>
   88024:	242d      	movs	r4, #45	; 0x2d
   88026:	f1da 0a00 	rsbs	sl, sl, #0
   8802a:	eb6b 0b4b 	sbc.w	fp, fp, fp, lsl #1
   8802e:	f88d 4047 	strb.w	r4, [sp, #71]	; 0x47
   88032:	2301      	movs	r3, #1
   88034:	f7ff bb86 	b.w	87744 <_vfiprintf_r+0x28c>
   88038:	f01c 0f40 	tst.w	ip, #64	; 0x40
   8803c:	f000 8084 	beq.w	88148 <_vfiprintf_r+0xc90>
   88040:	9d0a      	ldr	r5, [sp, #40]	; 0x28
   88042:	f04f 0b00 	mov.w	fp, #0
   88046:	3504      	adds	r5, #4
   88048:	f835 ac04 	ldrh.w	sl, [r5, #-4]
   8804c:	950a      	str	r5, [sp, #40]	; 0x28
   8804e:	e585      	b.n	87b5c <_vfiprintf_r+0x6a4>
   88050:	f01c 0340 	ands.w	r3, ip, #64	; 0x40
   88054:	d06e      	beq.n	88134 <_vfiprintf_r+0xc7c>
   88056:	f8dd 9028 	ldr.w	r9, [sp, #40]	; 0x28
   8805a:	4613      	mov	r3, r2
   8805c:	f04f 0b00 	mov.w	fp, #0
   88060:	f109 0904 	add.w	r9, r9, #4
   88064:	f839 ac04 	ldrh.w	sl, [r9, #-4]
   88068:	f8cd 9028 	str.w	r9, [sp, #40]	; 0x28
   8806c:	f7ff bb67 	b.w	8773e <_vfiprintf_r+0x286>
   88070:	f01c 0f40 	tst.w	ip, #64	; 0x40
   88074:	d050      	beq.n	88118 <_vfiprintf_r+0xc60>
   88076:	9d0a      	ldr	r5, [sp, #40]	; 0x28
   88078:	f04f 0b00 	mov.w	fp, #0
   8807c:	2301      	movs	r3, #1
   8807e:	3504      	adds	r5, #4
   88080:	f835 ac04 	ldrh.w	sl, [r5, #-4]
   88084:	950a      	str	r5, [sp, #40]	; 0x28
   88086:	f7ff bb5a 	b.w	8773e <_vfiprintf_r+0x286>
   8808a:	f01c 0f10 	tst.w	ip, #16
   8808e:	d13a      	bne.n	88106 <_vfiprintf_r+0xc4e>
   88090:	f01c 0f40 	tst.w	ip, #64	; 0x40
   88094:	f000 80ab 	beq.w	881ee <_vfiprintf_r+0xd36>
   88098:	9d0a      	ldr	r5, [sp, #40]	; 0x28
   8809a:	f8dd 902c 	ldr.w	r9, [sp, #44]	; 0x2c
   8809e:	3504      	adds	r5, #4
   880a0:	f855 3c04 	ldr.w	r3, [r5, #-4]
   880a4:	950a      	str	r5, [sp, #40]	; 0x28
   880a6:	f8a3 9000 	strh.w	r9, [r3]
   880aa:	f7ff ba63 	b.w	87574 <_vfiprintf_r+0xbc>
   880ae:	f01c 0f40 	tst.w	ip, #64	; 0x40
   880b2:	d01d      	beq.n	880f0 <_vfiprintf_r+0xc38>
   880b4:	f8dd 9028 	ldr.w	r9, [sp, #40]	; 0x28
   880b8:	f109 0904 	add.w	r9, r9, #4
   880bc:	f939 ac04 	ldrsh.w	sl, [r9, #-4]
   880c0:	f8cd 9028 	str.w	r9, [sp, #40]	; 0x28
   880c4:	4652      	mov	r2, sl
   880c6:	ea4f 7bea 	mov.w	fp, sl, asr #31
   880ca:	465b      	mov	r3, fp
   880cc:	e4fa      	b.n	87ac4 <_vfiprintf_r+0x60c>
   880ce:	9808      	ldr	r0, [sp, #32]
   880d0:	aa13      	add	r2, sp, #76	; 0x4c
   880d2:	9904      	ldr	r1, [sp, #16]
   880d4:	f8cd c004 	str.w	ip, [sp, #4]
   880d8:	f7ff f9a6 	bl	87428 <__sprint_r.part.0>
   880dc:	f8dd c004 	ldr.w	ip, [sp, #4]
   880e0:	2800      	cmp	r0, #0
   880e2:	f47f ae40 	bne.w	87d66 <_vfiprintf_r+0x8ae>
   880e6:	9b14      	ldr	r3, [sp, #80]	; 0x50
   880e8:	4646      	mov	r6, r8
   880ea:	9a15      	ldr	r2, [sp, #84]	; 0x54
   880ec:	1c59      	adds	r1, r3, #1
   880ee:	e61d      	b.n	87d2c <_vfiprintf_r+0x874>
   880f0:	9c0a      	ldr	r4, [sp, #40]	; 0x28
   880f2:	3404      	adds	r4, #4
   880f4:	f854 3c04 	ldr.w	r3, [r4, #-4]
   880f8:	940a      	str	r4, [sp, #40]	; 0x28
   880fa:	469a      	mov	sl, r3
   880fc:	461a      	mov	r2, r3
   880fe:	ea4f 7be3 	mov.w	fp, r3, asr #31
   88102:	465b      	mov	r3, fp
   88104:	e4de      	b.n	87ac4 <_vfiprintf_r+0x60c>
   88106:	9d0a      	ldr	r5, [sp, #40]	; 0x28
   88108:	9c0b      	ldr	r4, [sp, #44]	; 0x2c
   8810a:	3504      	adds	r5, #4
   8810c:	f855 3c04 	ldr.w	r3, [r5, #-4]
   88110:	950a      	str	r5, [sp, #40]	; 0x28
   88112:	601c      	str	r4, [r3, #0]
   88114:	f7ff ba2e 	b.w	87574 <_vfiprintf_r+0xbc>
   88118:	f8dd 9028 	ldr.w	r9, [sp, #40]	; 0x28
   8811c:	2301      	movs	r3, #1
   8811e:	f04f 0b00 	mov.w	fp, #0
   88122:	f109 0904 	add.w	r9, r9, #4
   88126:	f859 2c04 	ldr.w	r2, [r9, #-4]
   8812a:	f8cd 9028 	str.w	r9, [sp, #40]	; 0x28
   8812e:	4692      	mov	sl, r2
   88130:	f7ff bb05 	b.w	8773e <_vfiprintf_r+0x286>
   88134:	9c0a      	ldr	r4, [sp, #40]	; 0x28
   88136:	f04f 0b00 	mov.w	fp, #0
   8813a:	3404      	adds	r4, #4
   8813c:	f854 2c04 	ldr.w	r2, [r4, #-4]
   88140:	940a      	str	r4, [sp, #40]	; 0x28
   88142:	4692      	mov	sl, r2
   88144:	f7ff bafb 	b.w	8773e <_vfiprintf_r+0x286>
   88148:	f8dd 9028 	ldr.w	r9, [sp, #40]	; 0x28
   8814c:	f04f 0b00 	mov.w	fp, #0
   88150:	f109 0904 	add.w	r9, r9, #4
   88154:	f859 2c04 	ldr.w	r2, [r9, #-4]
   88158:	f8cd 9028 	str.w	r9, [sp, #40]	; 0x28
   8815c:	4692      	mov	sl, r2
   8815e:	e4fd      	b.n	87b5c <_vfiprintf_r+0x6a4>
   88160:	9808      	ldr	r0, [sp, #32]
   88162:	aa13      	add	r2, sp, #76	; 0x4c
   88164:	9904      	ldr	r1, [sp, #16]
   88166:	f7ff f95f 	bl	87428 <__sprint_r.part.0>
   8816a:	2800      	cmp	r0, #0
   8816c:	f47f adfb 	bne.w	87d66 <_vfiprintf_r+0x8ae>
   88170:	9a15      	ldr	r2, [sp, #84]	; 0x54
   88172:	e400      	b.n	87976 <_vfiprintf_r+0x4be>
   88174:	f8cd c004 	str.w	ip, [sp, #4]
   88178:	f8cd 9028 	str.w	r9, [sp, #40]	; 0x28
   8817c:	f8cd a018 	str.w	sl, [sp, #24]
   88180:	f7ff f922 	bl	873c8 <strlen>
   88184:	f89d 4047 	ldrb.w	r4, [sp, #71]	; 0x47
   88188:	f8dd c004 	ldr.w	ip, [sp, #4]
   8818c:	9009      	str	r0, [sp, #36]	; 0x24
   8818e:	f7ff bb0b 	b.w	877a8 <_vfiprintf_r+0x2f0>
   88192:	bf00      	nop
   88194:	0008a308 	.word	0x0008a308
   88198:	9808      	ldr	r0, [sp, #32]
   8819a:	aa13      	add	r2, sp, #76	; 0x4c
   8819c:	9904      	ldr	r1, [sp, #16]
   8819e:	f8cd c004 	str.w	ip, [sp, #4]
   881a2:	f7ff f941 	bl	87428 <__sprint_r.part.0>
   881a6:	f8dd c004 	ldr.w	ip, [sp, #4]
   881aa:	2800      	cmp	r0, #0
   881ac:	f47f addb 	bne.w	87d66 <_vfiprintf_r+0x8ae>
   881b0:	9b14      	ldr	r3, [sp, #80]	; 0x50
   881b2:	4646      	mov	r6, r8
   881b4:	9a15      	ldr	r2, [sp, #84]	; 0x54
   881b6:	1c59      	adds	r1, r3, #1
   881b8:	f7ff bb7d 	b.w	878b6 <_vfiprintf_r+0x3fe>
   881bc:	9b14      	ldr	r3, [sp, #80]	; 0x50
   881be:	f24a 29f8 	movw	r9, #41720	; 0xa2f8
   881c2:	f2c0 0908 	movt	r9, #8
   881c6:	9a15      	ldr	r2, [sp, #84]	; 0x54
   881c8:	3301      	adds	r3, #1
   881ca:	f7ff bb46 	b.w	8785a <_vfiprintf_r+0x3a2>
   881ce:	9d06      	ldr	r5, [sp, #24]
   881d0:	f8cd 9028 	str.w	r9, [sp, #40]	; 0x28
   881d4:	2d06      	cmp	r5, #6
   881d6:	bf28      	it	cs
   881d8:	2506      	movcs	r5, #6
   881da:	9509      	str	r5, [sp, #36]	; 0x24
   881dc:	9b09      	ldr	r3, [sp, #36]	; 0x24
   881de:	f24a 1544 	movw	r5, #41284	; 0xa144
   881e2:	f2c0 0508 	movt	r5, #8
   881e6:	ea23 73e3 	bic.w	r3, r3, r3, asr #31
   881ea:	9305      	str	r3, [sp, #20]
   881ec:	e4da      	b.n	87ba4 <_vfiprintf_r+0x6ec>
   881ee:	9c0a      	ldr	r4, [sp, #40]	; 0x28
   881f0:	9d0b      	ldr	r5, [sp, #44]	; 0x2c
   881f2:	3404      	adds	r4, #4
   881f4:	f854 3c04 	ldr.w	r3, [r4, #-4]
   881f8:	940a      	str	r4, [sp, #40]	; 0x28
   881fa:	601d      	str	r5, [r3, #0]
   881fc:	f7ff b9ba 	b.w	87574 <_vfiprintf_r+0xbc>
   88200:	9814      	ldr	r0, [sp, #80]	; 0x50
   88202:	f24a 29f8 	movw	r9, #41720	; 0xa2f8
   88206:	f2c0 0908 	movt	r9, #8
   8820a:	3001      	adds	r0, #1
   8820c:	e60f      	b.n	87e2e <_vfiprintf_r+0x976>
   8820e:	9906      	ldr	r1, [sp, #24]
   88210:	f89d 4047 	ldrb.w	r4, [sp, #71]	; 0x47
   88214:	f8cd 9028 	str.w	r9, [sp, #40]	; 0x28
   88218:	9109      	str	r1, [sp, #36]	; 0x24
   8821a:	9006      	str	r0, [sp, #24]
   8821c:	f7ff bac4 	b.w	877a8 <_vfiprintf_r+0x2f0>
   88220:	4608      	mov	r0, r1
   88222:	e66c      	b.n	87efe <_vfiprintf_r+0xa46>
   88224:	980a      	ldr	r0, [sp, #40]	; 0x28
   88226:	f8dd 9028 	ldr.w	r9, [sp, #40]	; 0x28
   8822a:	6800      	ldr	r0, [r0, #0]
   8822c:	9006      	str	r0, [sp, #24]
   8822e:	f109 0004 	add.w	r0, r9, #4
   88232:	9b06      	ldr	r3, [sp, #24]
   88234:	900a      	str	r0, [sp, #40]	; 0x28
   88236:	2b00      	cmp	r3, #0
   88238:	7853      	ldrb	r3, [r2, #1]
   8823a:	462a      	mov	r2, r5
   8823c:	bfbc      	itt	lt
   8823e:	f04f 35ff 	movlt.w	r5, #4294967295	; 0xffffffff
   88242:	9506      	strlt	r5, [sp, #24]
   88244:	f7ff b9cc 	b.w	875e0 <_vfiprintf_r+0x128>

00088248 <vfiprintf>:
   88248:	b430      	push	{r4, r5}
   8824a:	f240 0404 	movw	r4, #4
   8824e:	f2c2 0407 	movt	r4, #8199	; 0x2007
   88252:	460d      	mov	r5, r1
   88254:	4613      	mov	r3, r2
   88256:	4601      	mov	r1, r0
   88258:	462a      	mov	r2, r5
   8825a:	6820      	ldr	r0, [r4, #0]
   8825c:	bc30      	pop	{r4, r5}
   8825e:	f7ff b92b 	b.w	874b8 <_vfiprintf_r>
   88262:	bf00      	nop

00088264 <__sbprintf>:
   88264:	e92d 4ff0 	stmdb	sp!, {r4, r5, r6, r7, r8, r9, sl, fp, lr}
   88268:	4688      	mov	r8, r1
   8826a:	f2ad 4d6c 	subw	sp, sp, #1132	; 0x46c
   8826e:	f44f 6580 	mov.w	r5, #1024	; 0x400
   88272:	f8d8 7064 	ldr.w	r7, [r8, #100]	; 0x64
   88276:	4669      	mov	r1, sp
   88278:	f8b8 a00e 	ldrh.w	sl, [r8, #14]
   8827c:	ac1a      	add	r4, sp, #104	; 0x68
   8827e:	f8b8 b00c 	ldrh.w	fp, [r8, #12]
   88282:	2600      	movs	r6, #0
   88284:	9719      	str	r7, [sp, #100]	; 0x64
   88286:	4681      	mov	r9, r0
   88288:	f8d8 7020 	ldr.w	r7, [r8, #32]
   8828c:	f02b 0b02 	bic.w	fp, fp, #2
   88290:	9400      	str	r4, [sp, #0]
   88292:	9404      	str	r4, [sp, #16]
   88294:	9708      	str	r7, [sp, #32]
   88296:	f8d8 7028 	ldr.w	r7, [r8, #40]	; 0x28
   8829a:	f8ad b00c 	strh.w	fp, [sp, #12]
   8829e:	f8ad a00e 	strh.w	sl, [sp, #14]
   882a2:	970a      	str	r7, [sp, #40]	; 0x28
   882a4:	9606      	str	r6, [sp, #24]
   882a6:	9502      	str	r5, [sp, #8]
   882a8:	9505      	str	r5, [sp, #20]
   882aa:	f7ff f905 	bl	874b8 <_vfiprintf_r>
   882ae:	1e04      	subs	r4, r0, #0
   882b0:	db07      	blt.n	882c2 <__sbprintf+0x5e>
   882b2:	4648      	mov	r0, r9
   882b4:	4669      	mov	r1, sp
   882b6:	f7fd fb53 	bl	85960 <_fflush_r>
   882ba:	42b0      	cmp	r0, r6
   882bc:	bf18      	it	ne
   882be:	f04f 34ff 	movne.w	r4, #4294967295	; 0xffffffff
   882c2:	f8bd 300c 	ldrh.w	r3, [sp, #12]
   882c6:	4620      	mov	r0, r4
   882c8:	065b      	lsls	r3, r3, #25
   882ca:	bf42      	ittt	mi
   882cc:	f8b8 300c 	ldrhmi.w	r3, [r8, #12]
   882d0:	f043 0340 	orrmi.w	r3, r3, #64	; 0x40
   882d4:	f8a8 300c 	strhmi.w	r3, [r8, #12]
   882d8:	f20d 4d6c 	addw	sp, sp, #1132	; 0x46c
   882dc:	e8bd 8ff0 	ldmia.w	sp!, {r4, r5, r6, r7, r8, r9, sl, fp, pc}

000882e0 <_write_r>:
   882e0:	b538      	push	{r3, r4, r5, lr}
   882e2:	f240 54e4 	movw	r4, #1508	; 0x5e4
   882e6:	f2c2 0407 	movt	r4, #8199	; 0x2007
   882ea:	4605      	mov	r5, r0
   882ec:	4608      	mov	r0, r1
   882ee:	4611      	mov	r1, r2
   882f0:	461a      	mov	r2, r3
   882f2:	2300      	movs	r3, #0
   882f4:	6023      	str	r3, [r4, #0]
   882f6:	f7fa fda9 	bl	82e4c <_write>
   882fa:	1c43      	adds	r3, r0, #1
   882fc:	d000      	beq.n	88300 <_write_r+0x20>
   882fe:	bd38      	pop	{r3, r4, r5, pc}
   88300:	6823      	ldr	r3, [r4, #0]
   88302:	2b00      	cmp	r3, #0
   88304:	d0fb      	beq.n	882fe <_write_r+0x1e>
   88306:	602b      	str	r3, [r5, #0]
   88308:	bd38      	pop	{r3, r4, r5, pc}
   8830a:	bf00      	nop

0008830c <_calloc_r>:
   8830c:	b510      	push	{r4, lr}
   8830e:	fb02 f101 	mul.w	r1, r2, r1
   88312:	f7fd fec7 	bl	860a4 <_malloc_r>
   88316:	4604      	mov	r4, r0
   88318:	b170      	cbz	r0, 88338 <_calloc_r+0x2c>
   8831a:	f850 2c04 	ldr.w	r2, [r0, #-4]
   8831e:	f022 0203 	bic.w	r2, r2, #3
   88322:	3a04      	subs	r2, #4
   88324:	2a24      	cmp	r2, #36	; 0x24
   88326:	d81d      	bhi.n	88364 <_calloc_r+0x58>
   88328:	2a13      	cmp	r2, #19
   8832a:	bf98      	it	ls
   8832c:	4603      	movls	r3, r0
   8832e:	d805      	bhi.n	8833c <_calloc_r+0x30>
   88330:	2200      	movs	r2, #0
   88332:	601a      	str	r2, [r3, #0]
   88334:	605a      	str	r2, [r3, #4]
   88336:	609a      	str	r2, [r3, #8]
   88338:	4620      	mov	r0, r4
   8833a:	bd10      	pop	{r4, pc}
   8833c:	2a1b      	cmp	r2, #27
   8833e:	f04f 0100 	mov.w	r1, #0
   88342:	bf98      	it	ls
   88344:	f100 0308 	addls.w	r3, r0, #8
   88348:	6001      	str	r1, [r0, #0]
   8834a:	6041      	str	r1, [r0, #4]
   8834c:	d9f0      	bls.n	88330 <_calloc_r+0x24>
   8834e:	2a24      	cmp	r2, #36	; 0x24
   88350:	6081      	str	r1, [r0, #8]
   88352:	60c1      	str	r1, [r0, #12]
   88354:	bf11      	iteee	ne
   88356:	f100 0310 	addne.w	r3, r0, #16
   8835a:	6101      	streq	r1, [r0, #16]
   8835c:	f100 0318 	addeq.w	r3, r0, #24
   88360:	6141      	streq	r1, [r0, #20]
   88362:	e7e5      	b.n	88330 <_calloc_r+0x24>
   88364:	2100      	movs	r1, #0
   88366:	f7fa fca1 	bl	82cac <memset>
   8836a:	4620      	mov	r0, r4
   8836c:	bd10      	pop	{r4, pc}
   8836e:	bf00      	nop

00088370 <_close_r>:
   88370:	b538      	push	{r3, r4, r5, lr}
   88372:	f240 54e4 	movw	r4, #1508	; 0x5e4
   88376:	f2c2 0407 	movt	r4, #8199	; 0x2007
   8837a:	4605      	mov	r5, r0
   8837c:	4608      	mov	r0, r1
   8837e:	2300      	movs	r3, #0
   88380:	6023      	str	r3, [r4, #0]
   88382:	f7fa fd1f 	bl	82dc4 <_close>
   88386:	1c43      	adds	r3, r0, #1
   88388:	d000      	beq.n	8838c <_close_r+0x1c>
   8838a:	bd38      	pop	{r3, r4, r5, pc}
   8838c:	6823      	ldr	r3, [r4, #0]
   8838e:	2b00      	cmp	r3, #0
   88390:	d0fb      	beq.n	8838a <_close_r+0x1a>
   88392:	602b      	str	r3, [r5, #0]
   88394:	bd38      	pop	{r3, r4, r5, pc}
   88396:	bf00      	nop

00088398 <_fclose_r>:
   88398:	b570      	push	{r4, r5, r6, lr}
   8839a:	460c      	mov	r4, r1
   8839c:	4605      	mov	r5, r0
   8839e:	b1e9      	cbz	r1, 883dc <_fclose_r+0x44>
   883a0:	b110      	cbz	r0, 883a8 <_fclose_r+0x10>
   883a2:	6983      	ldr	r3, [r0, #24]
   883a4:	2b00      	cmp	r3, #0
   883a6:	d047      	beq.n	88438 <_fclose_r+0xa0>
   883a8:	f24a 13a0 	movw	r3, #41376	; 0xa1a0
   883ac:	f2c0 0308 	movt	r3, #8
   883b0:	429c      	cmp	r4, r3
   883b2:	bf08      	it	eq
   883b4:	686c      	ldreq	r4, [r5, #4]
   883b6:	d00e      	beq.n	883d6 <_fclose_r+0x3e>
   883b8:	f24a 1380 	movw	r3, #41344	; 0xa180
   883bc:	f2c0 0308 	movt	r3, #8
   883c0:	429c      	cmp	r4, r3
   883c2:	bf08      	it	eq
   883c4:	68ac      	ldreq	r4, [r5, #8]
   883c6:	d006      	beq.n	883d6 <_fclose_r+0x3e>
   883c8:	f24a 1360 	movw	r3, #41312	; 0xa160
   883cc:	f2c0 0308 	movt	r3, #8
   883d0:	429c      	cmp	r4, r3
   883d2:	bf08      	it	eq
   883d4:	68ec      	ldreq	r4, [r5, #12]
   883d6:	f9b4 300c 	ldrsh.w	r3, [r4, #12]
   883da:	b90b      	cbnz	r3, 883e0 <_fclose_r+0x48>
   883dc:	2000      	movs	r0, #0
   883de:	bd70      	pop	{r4, r5, r6, pc}
   883e0:	4628      	mov	r0, r5
   883e2:	4621      	mov	r1, r4
   883e4:	f7fd fabc 	bl	85960 <_fflush_r>
   883e8:	6b23      	ldr	r3, [r4, #48]	; 0x30
   883ea:	4606      	mov	r6, r0
   883ec:	b13b      	cbz	r3, 883fe <_fclose_r+0x66>
   883ee:	4628      	mov	r0, r5
   883f0:	6a21      	ldr	r1, [r4, #32]
   883f2:	4798      	blx	r3
   883f4:	ea36 0620 	bics.w	r6, r6, r0, asr #32
   883f8:	bf28      	it	cs
   883fa:	f04f 36ff 	movcs.w	r6, #4294967295	; 0xffffffff
   883fe:	89a3      	ldrh	r3, [r4, #12]
   88400:	061b      	lsls	r3, r3, #24
   88402:	d41c      	bmi.n	8843e <_fclose_r+0xa6>
   88404:	6b61      	ldr	r1, [r4, #52]	; 0x34
   88406:	b141      	cbz	r1, 8841a <_fclose_r+0x82>
   88408:	f104 0344 	add.w	r3, r4, #68	; 0x44
   8840c:	4299      	cmp	r1, r3
   8840e:	d002      	beq.n	88416 <_fclose_r+0x7e>
   88410:	4628      	mov	r0, r5
   88412:	f7fd fc5f 	bl	85cd4 <_free_r>
   88416:	2300      	movs	r3, #0
   88418:	6363      	str	r3, [r4, #52]	; 0x34
   8841a:	6ca1      	ldr	r1, [r4, #72]	; 0x48
   8841c:	b121      	cbz	r1, 88428 <_fclose_r+0x90>
   8841e:	4628      	mov	r0, r5
   88420:	f7fd fc58 	bl	85cd4 <_free_r>
   88424:	2300      	movs	r3, #0
   88426:	64a3      	str	r3, [r4, #72]	; 0x48
   88428:	f7fd fbe2 	bl	85bf0 <__sfp_lock_acquire>
   8842c:	2300      	movs	r3, #0
   8842e:	81a3      	strh	r3, [r4, #12]
   88430:	f7fd fbe0 	bl	85bf4 <__sfp_lock_release>
   88434:	4630      	mov	r0, r6
   88436:	bd70      	pop	{r4, r5, r6, pc}
   88438:	f7fd fb04 	bl	85a44 <__sinit>
   8843c:	e7b4      	b.n	883a8 <_fclose_r+0x10>
   8843e:	4628      	mov	r0, r5
   88440:	6921      	ldr	r1, [r4, #16]
   88442:	f7fd fc47 	bl	85cd4 <_free_r>
   88446:	e7dd      	b.n	88404 <_fclose_r+0x6c>

00088448 <fclose>:
   88448:	f240 0304 	movw	r3, #4
   8844c:	4601      	mov	r1, r0
   8844e:	f2c2 0307 	movt	r3, #8199	; 0x2007
   88452:	6818      	ldr	r0, [r3, #0]
   88454:	f7ff bfa0 	b.w	88398 <_fclose_r>

00088458 <_fputwc_r>:
   88458:	8993      	ldrh	r3, [r2, #12]
   8845a:	e92d 41f0 	stmdb	sp!, {r4, r5, r6, r7, r8, lr}
   8845e:	460f      	mov	r7, r1
   88460:	0499      	lsls	r1, r3, #18
   88462:	4614      	mov	r4, r2
   88464:	bf58      	it	pl
   88466:	f443 5300 	orrpl.w	r3, r3, #8192	; 0x2000
   8846a:	b082      	sub	sp, #8
   8846c:	bf58      	it	pl
   8846e:	6e52      	ldrpl	r2, [r2, #100]	; 0x64
   88470:	4680      	mov	r8, r0
   88472:	bf5e      	ittt	pl
   88474:	81a3      	strhpl	r3, [r4, #12]
   88476:	f442 5200 	orrpl.w	r2, r2, #8192	; 0x2000
   8847a:	6662      	strpl	r2, [r4, #100]	; 0x64
   8847c:	f7fd fd70 	bl	85f60 <__locale_mb_cur_max>
   88480:	2801      	cmp	r0, #1
   88482:	d041      	beq.n	88508 <_fputwc_r+0xb0>
   88484:	463a      	mov	r2, r7
   88486:	4640      	mov	r0, r8
   88488:	a901      	add	r1, sp, #4
   8848a:	f104 035c 	add.w	r3, r4, #92	; 0x5c
   8848e:	f000 fd17 	bl	88ec0 <_wcrtomb_r>
   88492:	1c42      	adds	r2, r0, #1
   88494:	4606      	mov	r6, r0
   88496:	d030      	beq.n	884fa <_fputwc_r+0xa2>
   88498:	f89d 1004 	ldrb.w	r1, [sp, #4]
   8849c:	2800      	cmp	r0, #0
   8849e:	d03b      	beq.n	88518 <_fputwc_r+0xc0>
   884a0:	2500      	movs	r5, #0
   884a2:	e00a      	b.n	884ba <_fputwc_r+0x62>
   884a4:	6823      	ldr	r3, [r4, #0]
   884a6:	7019      	strb	r1, [r3, #0]
   884a8:	6823      	ldr	r3, [r4, #0]
   884aa:	3301      	adds	r3, #1
   884ac:	6023      	str	r3, [r4, #0]
   884ae:	3501      	adds	r5, #1
   884b0:	42b5      	cmp	r5, r6
   884b2:	d231      	bcs.n	88518 <_fputwc_r+0xc0>
   884b4:	1d2b      	adds	r3, r5, #4
   884b6:	466a      	mov	r2, sp
   884b8:	5c99      	ldrb	r1, [r3, r2]
   884ba:	68a3      	ldr	r3, [r4, #8]
   884bc:	3b01      	subs	r3, #1
   884be:	60a3      	str	r3, [r4, #8]
   884c0:	2b00      	cmp	r3, #0
   884c2:	daef      	bge.n	884a4 <_fputwc_r+0x4c>
   884c4:	69a2      	ldr	r2, [r4, #24]
   884c6:	4293      	cmp	r3, r2
   884c8:	db08      	blt.n	884dc <_fputwc_r+0x84>
   884ca:	6823      	ldr	r3, [r4, #0]
   884cc:	7019      	strb	r1, [r3, #0]
   884ce:	6823      	ldr	r3, [r4, #0]
   884d0:	1c5a      	adds	r2, r3, #1
   884d2:	7819      	ldrb	r1, [r3, #0]
   884d4:	290a      	cmp	r1, #10
   884d6:	bf18      	it	ne
   884d8:	6022      	strne	r2, [r4, #0]
   884da:	d1e8      	bne.n	884ae <_fputwc_r+0x56>
   884dc:	4640      	mov	r0, r8
   884de:	4622      	mov	r2, r4
   884e0:	f000 fc7a 	bl	88dd8 <__swbuf_r>
   884e4:	f1b0 33ff 	subs.w	r3, r0, #4294967295	; 0xffffffff
   884e8:	4258      	negs	r0, r3
   884ea:	4158      	adcs	r0, r3
   884ec:	2800      	cmp	r0, #0
   884ee:	d0de      	beq.n	884ae <_fputwc_r+0x56>
   884f0:	f04f 30ff 	mov.w	r0, #4294967295	; 0xffffffff
   884f4:	b002      	add	sp, #8
   884f6:	e8bd 81f0 	ldmia.w	sp!, {r4, r5, r6, r7, r8, pc}
   884fa:	89a3      	ldrh	r3, [r4, #12]
   884fc:	f043 0340 	orr.w	r3, r3, #64	; 0x40
   88500:	81a3      	strh	r3, [r4, #12]
   88502:	b002      	add	sp, #8
   88504:	e8bd 81f0 	ldmia.w	sp!, {r4, r5, r6, r7, r8, pc}
   88508:	1e7b      	subs	r3, r7, #1
   8850a:	2bfe      	cmp	r3, #254	; 0xfe
   8850c:	d8ba      	bhi.n	88484 <_fputwc_r+0x2c>
   8850e:	b2f9      	uxtb	r1, r7
   88510:	4606      	mov	r6, r0
   88512:	f88d 1004 	strb.w	r1, [sp, #4]
   88516:	e7c3      	b.n	884a0 <_fputwc_r+0x48>
   88518:	4638      	mov	r0, r7
   8851a:	b002      	add	sp, #8
   8851c:	e8bd 81f0 	ldmia.w	sp!, {r4, r5, r6, r7, r8, pc}

00088520 <fputwc>:
   88520:	f240 0304 	movw	r3, #4
   88524:	f2c2 0307 	movt	r3, #8199	; 0x2007
   88528:	b570      	push	{r4, r5, r6, lr}
   8852a:	4606      	mov	r6, r0
   8852c:	681d      	ldr	r5, [r3, #0]
   8852e:	460c      	mov	r4, r1
   88530:	b10d      	cbz	r5, 88536 <fputwc+0x16>
   88532:	69ab      	ldr	r3, [r5, #24]
   88534:	b1eb      	cbz	r3, 88572 <fputwc+0x52>
   88536:	f24a 13a0 	movw	r3, #41376	; 0xa1a0
   8853a:	f2c0 0308 	movt	r3, #8
   8853e:	429c      	cmp	r4, r3
   88540:	bf08      	it	eq
   88542:	686c      	ldreq	r4, [r5, #4]
   88544:	d00e      	beq.n	88564 <fputwc+0x44>
   88546:	f24a 1380 	movw	r3, #41344	; 0xa180
   8854a:	f2c0 0308 	movt	r3, #8
   8854e:	429c      	cmp	r4, r3
   88550:	bf08      	it	eq
   88552:	68ac      	ldreq	r4, [r5, #8]
   88554:	d006      	beq.n	88564 <fputwc+0x44>
   88556:	f24a 1360 	movw	r3, #41312	; 0xa160
   8855a:	f2c0 0308 	movt	r3, #8
   8855e:	429c      	cmp	r4, r3
   88560:	bf08      	it	eq
   88562:	68ec      	ldreq	r4, [r5, #12]
   88564:	4628      	mov	r0, r5
   88566:	4631      	mov	r1, r6
   88568:	4622      	mov	r2, r4
   8856a:	e8bd 4070 	ldmia.w	sp!, {r4, r5, r6, lr}
   8856e:	f7ff bf73 	b.w	88458 <_fputwc_r>
   88572:	4628      	mov	r0, r5
   88574:	f7fd fa66 	bl	85a44 <__sinit>
   88578:	e7dd      	b.n	88536 <fputwc+0x16>
   8857a:	bf00      	nop

0008857c <_fstat_r>:
   8857c:	b538      	push	{r3, r4, r5, lr}
   8857e:	f240 54e4 	movw	r4, #1508	; 0x5e4
   88582:	f2c2 0407 	movt	r4, #8199	; 0x2007
   88586:	4605      	mov	r5, r0
   88588:	4608      	mov	r0, r1
   8858a:	4611      	mov	r1, r2
   8858c:	2300      	movs	r3, #0
   8858e:	6023      	str	r3, [r4, #0]
   88590:	f7fa fc24 	bl	82ddc <_fstat>
   88594:	1c43      	adds	r3, r0, #1
   88596:	d000      	beq.n	8859a <_fstat_r+0x1e>
   88598:	bd38      	pop	{r3, r4, r5, pc}
   8859a:	6823      	ldr	r3, [r4, #0]
   8859c:	2b00      	cmp	r3, #0
   8859e:	d0fb      	beq.n	88598 <_fstat_r+0x1c>
   885a0:	602b      	str	r3, [r5, #0]
   885a2:	bd38      	pop	{r3, r4, r5, pc}

000885a4 <__sfvwrite_r>:
   885a4:	6893      	ldr	r3, [r2, #8]
   885a6:	e92d 4ff0 	stmdb	sp!, {r4, r5, r6, r7, r8, r9, sl, fp, lr}
   885aa:	4616      	mov	r6, r2
   885ac:	b083      	sub	sp, #12
   885ae:	4681      	mov	r9, r0
   885b0:	460c      	mov	r4, r1
   885b2:	2b00      	cmp	r3, #0
   885b4:	d05e      	beq.n	88674 <__sfvwrite_r+0xd0>
   885b6:	898b      	ldrh	r3, [r1, #12]
   885b8:	0719      	lsls	r1, r3, #28
   885ba:	d55f      	bpl.n	8867c <__sfvwrite_r+0xd8>
   885bc:	6922      	ldr	r2, [r4, #16]
   885be:	2a00      	cmp	r2, #0
   885c0:	d05c      	beq.n	8867c <__sfvwrite_r+0xd8>
   885c2:	f003 0202 	and.w	r2, r3, #2
   885c6:	f04f 0a00 	mov.w	sl, #0
   885ca:	6835      	ldr	r5, [r6, #0]
   885cc:	46d0      	mov	r8, sl
   885ce:	b292      	uxth	r2, r2
   885d0:	2a00      	cmp	r2, #0
   885d2:	d137      	bne.n	88644 <__sfvwrite_r+0xa0>
   885d4:	f013 0a01 	ands.w	sl, r3, #1
   885d8:	d16f      	bne.n	886ba <__sfvwrite_r+0x116>
   885da:	46d0      	mov	r8, sl
   885dc:	f1b8 0f00 	cmp.w	r8, #0
   885e0:	d025      	beq.n	8862e <__sfvwrite_r+0x8a>
   885e2:	059a      	lsls	r2, r3, #22
   885e4:	68a7      	ldr	r7, [r4, #8]
   885e6:	f140 80a2 	bpl.w	8872e <__sfvwrite_r+0x18a>
   885ea:	45b8      	cmp	r8, r7
   885ec:	f0c0 80ca 	bcc.w	88784 <__sfvwrite_r+0x1e0>
   885f0:	f413 6f90 	tst.w	r3, #1152	; 0x480
   885f4:	f040 80e8 	bne.w	887c8 <__sfvwrite_r+0x224>
   885f8:	6820      	ldr	r0, [r4, #0]
   885fa:	46bb      	mov	fp, r7
   885fc:	9701      	str	r7, [sp, #4]
   885fe:	4647      	mov	r7, r8
   88600:	4651      	mov	r1, sl
   88602:	465a      	mov	r2, fp
   88604:	f000 f974 	bl	888f0 <memmove>
   88608:	68a1      	ldr	r1, [r4, #8]
   8860a:	6822      	ldr	r2, [r4, #0]
   8860c:	4643      	mov	r3, r8
   8860e:	9801      	ldr	r0, [sp, #4]
   88610:	445a      	add	r2, fp
   88612:	6022      	str	r2, [r4, #0]
   88614:	1a09      	subs	r1, r1, r0
   88616:	60a1      	str	r1, [r4, #8]
   88618:	68b2      	ldr	r2, [r6, #8]
   8861a:	449a      	add	sl, r3
   8861c:	ebc3 0808 	rsb	r8, r3, r8
   88620:	1bd7      	subs	r7, r2, r7
   88622:	60b7      	str	r7, [r6, #8]
   88624:	b337      	cbz	r7, 88674 <__sfvwrite_r+0xd0>
   88626:	89a3      	ldrh	r3, [r4, #12]
   88628:	f1b8 0f00 	cmp.w	r8, #0
   8862c:	d1d9      	bne.n	885e2 <__sfvwrite_r+0x3e>
   8862e:	f8d5 a000 	ldr.w	sl, [r5]
   88632:	3508      	adds	r5, #8
   88634:	f855 8c04 	ldr.w	r8, [r5, #-4]
   88638:	e7d0      	b.n	885dc <__sfvwrite_r+0x38>
   8863a:	f8d5 a000 	ldr.w	sl, [r5]
   8863e:	3508      	adds	r5, #8
   88640:	f855 8c04 	ldr.w	r8, [r5, #-4]
   88644:	f5b8 6f80 	cmp.w	r8, #1024	; 0x400
   88648:	bf34      	ite	cc
   8864a:	4643      	movcc	r3, r8
   8864c:	f44f 6380 	movcs.w	r3, #1024	; 0x400
   88650:	4652      	mov	r2, sl
   88652:	4648      	mov	r0, r9
   88654:	f1b8 0f00 	cmp.w	r8, #0
   88658:	d0ef      	beq.n	8863a <__sfvwrite_r+0x96>
   8865a:	6a21      	ldr	r1, [r4, #32]
   8865c:	6aa7      	ldr	r7, [r4, #40]	; 0x28
   8865e:	47b8      	blx	r7
   88660:	2800      	cmp	r0, #0
   88662:	4482      	add	sl, r0
   88664:	ebc0 0808 	rsb	r8, r0, r8
   88668:	dd1e      	ble.n	886a8 <__sfvwrite_r+0x104>
   8866a:	68b3      	ldr	r3, [r6, #8]
   8866c:	1a18      	subs	r0, r3, r0
   8866e:	60b0      	str	r0, [r6, #8]
   88670:	2800      	cmp	r0, #0
   88672:	d1e7      	bne.n	88644 <__sfvwrite_r+0xa0>
   88674:	2000      	movs	r0, #0
   88676:	b003      	add	sp, #12
   88678:	e8bd 8ff0 	ldmia.w	sp!, {r4, r5, r6, r7, r8, r9, sl, fp, pc}
   8867c:	4648      	mov	r0, r9
   8867e:	4621      	mov	r1, r4
   88680:	f7fb ffdc 	bl	8463c <__swsetup_r>
   88684:	2800      	cmp	r0, #0
   88686:	f040 8101 	bne.w	8888c <__sfvwrite_r+0x2e8>
   8868a:	89a3      	ldrh	r3, [r4, #12]
   8868c:	e799      	b.n	885c2 <__sfvwrite_r+0x1e>
   8868e:	4651      	mov	r1, sl
   88690:	463a      	mov	r2, r7
   88692:	f000 f92d 	bl	888f0 <memmove>
   88696:	6823      	ldr	r3, [r4, #0]
   88698:	4648      	mov	r0, r9
   8869a:	4621      	mov	r1, r4
   8869c:	443b      	add	r3, r7
   8869e:	6023      	str	r3, [r4, #0]
   886a0:	f7fd f95e 	bl	85960 <_fflush_r>
   886a4:	2800      	cmp	r0, #0
   886a6:	d052      	beq.n	8874e <__sfvwrite_r+0x1aa>
   886a8:	89a3      	ldrh	r3, [r4, #12]
   886aa:	f043 0340 	orr.w	r3, r3, #64	; 0x40
   886ae:	f04f 30ff 	mov.w	r0, #4294967295	; 0xffffffff
   886b2:	81a3      	strh	r3, [r4, #12]
   886b4:	b003      	add	sp, #12
   886b6:	e8bd 8ff0 	ldmia.w	sp!, {r4, r5, r6, r7, r8, r9, sl, fp, pc}
   886ba:	4692      	mov	sl, r2
   886bc:	4693      	mov	fp, r2
   886be:	4690      	mov	r8, r2
   886c0:	9201      	str	r2, [sp, #4]
   886c2:	f1b8 0f00 	cmp.w	r8, #0
   886c6:	d02a      	beq.n	8871e <__sfvwrite_r+0x17a>
   886c8:	9f01      	ldr	r7, [sp, #4]
   886ca:	2f00      	cmp	r7, #0
   886cc:	d06e      	beq.n	887ac <__sfvwrite_r+0x208>
   886ce:	6820      	ldr	r0, [r4, #0]
   886d0:	45c2      	cmp	sl, r8
   886d2:	bf34      	ite	cc
   886d4:	4653      	movcc	r3, sl
   886d6:	4643      	movcs	r3, r8
   886d8:	6921      	ldr	r1, [r4, #16]
   886da:	461f      	mov	r7, r3
   886dc:	f8d4 c008 	ldr.w	ip, [r4, #8]
   886e0:	4288      	cmp	r0, r1
   886e2:	6962      	ldr	r2, [r4, #20]
   886e4:	d903      	bls.n	886ee <__sfvwrite_r+0x14a>
   886e6:	4494      	add	ip, r2
   886e8:	4563      	cmp	r3, ip
   886ea:	f300 809f 	bgt.w	8882c <__sfvwrite_r+0x288>
   886ee:	4293      	cmp	r3, r2
   886f0:	db2f      	blt.n	88752 <__sfvwrite_r+0x1ae>
   886f2:	4613      	mov	r3, r2
   886f4:	6aa7      	ldr	r7, [r4, #40]	; 0x28
   886f6:	4648      	mov	r0, r9
   886f8:	6a21      	ldr	r1, [r4, #32]
   886fa:	465a      	mov	r2, fp
   886fc:	47b8      	blx	r7
   886fe:	1e07      	subs	r7, r0, #0
   88700:	ddd2      	ble.n	886a8 <__sfvwrite_r+0x104>
   88702:	ebba 0a07 	subs.w	sl, sl, r7
   88706:	d034      	beq.n	88772 <__sfvwrite_r+0x1ce>
   88708:	68b3      	ldr	r3, [r6, #8]
   8870a:	44bb      	add	fp, r7
   8870c:	ebc7 0808 	rsb	r8, r7, r8
   88710:	1bdf      	subs	r7, r3, r7
   88712:	60b7      	str	r7, [r6, #8]
   88714:	2f00      	cmp	r7, #0
   88716:	d0ad      	beq.n	88674 <__sfvwrite_r+0xd0>
   88718:	f1b8 0f00 	cmp.w	r8, #0
   8871c:	d1d4      	bne.n	886c8 <__sfvwrite_r+0x124>
   8871e:	f8d5 b000 	ldr.w	fp, [r5]
   88722:	2700      	movs	r7, #0
   88724:	f8d5 8004 	ldr.w	r8, [r5, #4]
   88728:	3508      	adds	r5, #8
   8872a:	9701      	str	r7, [sp, #4]
   8872c:	e7c9      	b.n	886c2 <__sfvwrite_r+0x11e>
   8872e:	6820      	ldr	r0, [r4, #0]
   88730:	6923      	ldr	r3, [r4, #16]
   88732:	4298      	cmp	r0, r3
   88734:	d901      	bls.n	8873a <__sfvwrite_r+0x196>
   88736:	45b8      	cmp	r8, r7
   88738:	d8a9      	bhi.n	8868e <__sfvwrite_r+0xea>
   8873a:	6963      	ldr	r3, [r4, #20]
   8873c:	4598      	cmp	r8, r3
   8873e:	d327      	bcc.n	88790 <__sfvwrite_r+0x1ec>
   88740:	6aa7      	ldr	r7, [r4, #40]	; 0x28
   88742:	4648      	mov	r0, r9
   88744:	6a21      	ldr	r1, [r4, #32]
   88746:	4652      	mov	r2, sl
   88748:	47b8      	blx	r7
   8874a:	1e07      	subs	r7, r0, #0
   8874c:	ddac      	ble.n	886a8 <__sfvwrite_r+0x104>
   8874e:	463b      	mov	r3, r7
   88750:	e762      	b.n	88618 <__sfvwrite_r+0x74>
   88752:	461a      	mov	r2, r3
   88754:	4659      	mov	r1, fp
   88756:	9300      	str	r3, [sp, #0]
   88758:	f000 f8ca 	bl	888f0 <memmove>
   8875c:	9b00      	ldr	r3, [sp, #0]
   8875e:	ebba 0a07 	subs.w	sl, sl, r7
   88762:	68a1      	ldr	r1, [r4, #8]
   88764:	6822      	ldr	r2, [r4, #0]
   88766:	ebc3 0101 	rsb	r1, r3, r1
   8876a:	60a1      	str	r1, [r4, #8]
   8876c:	4413      	add	r3, r2
   8876e:	6023      	str	r3, [r4, #0]
   88770:	d1ca      	bne.n	88708 <__sfvwrite_r+0x164>
   88772:	4648      	mov	r0, r9
   88774:	4621      	mov	r1, r4
   88776:	f7fd f8f3 	bl	85960 <_fflush_r>
   8877a:	2800      	cmp	r0, #0
   8877c:	d194      	bne.n	886a8 <__sfvwrite_r+0x104>
   8877e:	f8cd a004 	str.w	sl, [sp, #4]
   88782:	e7c1      	b.n	88708 <__sfvwrite_r+0x164>
   88784:	6820      	ldr	r0, [r4, #0]
   88786:	4647      	mov	r7, r8
   88788:	f8cd 8004 	str.w	r8, [sp, #4]
   8878c:	46c3      	mov	fp, r8
   8878e:	e737      	b.n	88600 <__sfvwrite_r+0x5c>
   88790:	4651      	mov	r1, sl
   88792:	4642      	mov	r2, r8
   88794:	f000 f8ac 	bl	888f0 <memmove>
   88798:	68a1      	ldr	r1, [r4, #8]
   8879a:	6822      	ldr	r2, [r4, #0]
   8879c:	4647      	mov	r7, r8
   8879e:	ebc8 0101 	rsb	r1, r8, r1
   887a2:	4643      	mov	r3, r8
   887a4:	4442      	add	r2, r8
   887a6:	60a1      	str	r1, [r4, #8]
   887a8:	6022      	str	r2, [r4, #0]
   887aa:	e735      	b.n	88618 <__sfvwrite_r+0x74>
   887ac:	4658      	mov	r0, fp
   887ae:	210a      	movs	r1, #10
   887b0:	4642      	mov	r2, r8
   887b2:	f7fd ff2f 	bl	86614 <memchr>
   887b6:	2800      	cmp	r0, #0
   887b8:	d063      	beq.n	88882 <__sfvwrite_r+0x2de>
   887ba:	f100 0a01 	add.w	sl, r0, #1
   887be:	2701      	movs	r7, #1
   887c0:	ebcb 0a0a 	rsb	sl, fp, sl
   887c4:	9701      	str	r7, [sp, #4]
   887c6:	e782      	b.n	886ce <__sfvwrite_r+0x12a>
   887c8:	6967      	ldr	r7, [r4, #20]
   887ca:	6822      	ldr	r2, [r4, #0]
   887cc:	6921      	ldr	r1, [r4, #16]
   887ce:	eb07 0747 	add.w	r7, r7, r7, lsl #1
   887d2:	ebc1 0b02 	rsb	fp, r1, r2
   887d6:	eb07 77d7 	add.w	r7, r7, r7, lsr #31
   887da:	f10b 0201 	add.w	r2, fp, #1
   887de:	4442      	add	r2, r8
   887e0:	107f      	asrs	r7, r7, #1
   887e2:	4297      	cmp	r7, r2
   887e4:	bf34      	ite	cc
   887e6:	4617      	movcc	r7, r2
   887e8:	463a      	movcs	r2, r7
   887ea:	055b      	lsls	r3, r3, #21
   887ec:	d536      	bpl.n	8885c <__sfvwrite_r+0x2b8>
   887ee:	4611      	mov	r1, r2
   887f0:	4648      	mov	r0, r9
   887f2:	f7fd fc57 	bl	860a4 <_malloc_r>
   887f6:	2800      	cmp	r0, #0
   887f8:	d04b      	beq.n	88892 <__sfvwrite_r+0x2ee>
   887fa:	6921      	ldr	r1, [r4, #16]
   887fc:	465a      	mov	r2, fp
   887fe:	9000      	str	r0, [sp, #0]
   88800:	f7fd ff50 	bl	866a4 <memcpy>
   88804:	89a2      	ldrh	r2, [r4, #12]
   88806:	9b00      	ldr	r3, [sp, #0]
   88808:	f422 6290 	bic.w	r2, r2, #1152	; 0x480
   8880c:	f042 0280 	orr.w	r2, r2, #128	; 0x80
   88810:	81a2      	strh	r2, [r4, #12]
   88812:	eb03 000b 	add.w	r0, r3, fp
   88816:	6123      	str	r3, [r4, #16]
   88818:	6167      	str	r7, [r4, #20]
   8881a:	ebcb 0307 	rsb	r3, fp, r7
   8881e:	6020      	str	r0, [r4, #0]
   88820:	4647      	mov	r7, r8
   88822:	60a3      	str	r3, [r4, #8]
   88824:	46c3      	mov	fp, r8
   88826:	f8cd 8004 	str.w	r8, [sp, #4]
   8882a:	e6e9      	b.n	88600 <__sfvwrite_r+0x5c>
   8882c:	4662      	mov	r2, ip
   8882e:	4659      	mov	r1, fp
   88830:	f8cd c000 	str.w	ip, [sp]
   88834:	f000 f85c 	bl	888f0 <memmove>
   88838:	f8dd c000 	ldr.w	ip, [sp]
   8883c:	4648      	mov	r0, r9
   8883e:	6823      	ldr	r3, [r4, #0]
   88840:	4621      	mov	r1, r4
   88842:	4463      	add	r3, ip
   88844:	6023      	str	r3, [r4, #0]
   88846:	f8cd c000 	str.w	ip, [sp]
   8884a:	f7fd f889 	bl	85960 <_fflush_r>
   8884e:	f8dd c000 	ldr.w	ip, [sp]
   88852:	2800      	cmp	r0, #0
   88854:	f47f af28 	bne.w	886a8 <__sfvwrite_r+0x104>
   88858:	4667      	mov	r7, ip
   8885a:	e752      	b.n	88702 <__sfvwrite_r+0x15e>
   8885c:	4648      	mov	r0, r9
   8885e:	f000 f8c5 	bl	889ec <_realloc_r>
   88862:	4603      	mov	r3, r0
   88864:	2800      	cmp	r0, #0
   88866:	d1d4      	bne.n	88812 <__sfvwrite_r+0x26e>
   88868:	4648      	mov	r0, r9
   8886a:	6921      	ldr	r1, [r4, #16]
   8886c:	f7fd fa32 	bl	85cd4 <_free_r>
   88870:	89a3      	ldrh	r3, [r4, #12]
   88872:	220c      	movs	r2, #12
   88874:	f8c9 2000 	str.w	r2, [r9]
   88878:	f023 0380 	bic.w	r3, r3, #128	; 0x80
   8887c:	041b      	lsls	r3, r3, #16
   8887e:	0c1b      	lsrs	r3, r3, #16
   88880:	e713      	b.n	886aa <__sfvwrite_r+0x106>
   88882:	2701      	movs	r7, #1
   88884:	f108 0a01 	add.w	sl, r8, #1
   88888:	9701      	str	r7, [sp, #4]
   8888a:	e720      	b.n	886ce <__sfvwrite_r+0x12a>
   8888c:	f04f 30ff 	mov.w	r0, #4294967295	; 0xffffffff
   88890:	e6f1      	b.n	88676 <__sfvwrite_r+0xd2>
   88892:	220c      	movs	r2, #12
   88894:	89a3      	ldrh	r3, [r4, #12]
   88896:	f8c9 2000 	str.w	r2, [r9]
   8889a:	e706      	b.n	886aa <__sfvwrite_r+0x106>

0008889c <_isatty_r>:
   8889c:	b538      	push	{r3, r4, r5, lr}
   8889e:	f240 54e4 	movw	r4, #1508	; 0x5e4
   888a2:	f2c2 0407 	movt	r4, #8199	; 0x2007
   888a6:	4605      	mov	r5, r0
   888a8:	4608      	mov	r0, r1
   888aa:	2300      	movs	r3, #0
   888ac:	6023      	str	r3, [r4, #0]
   888ae:	f7fa faa5 	bl	82dfc <_isatty>
   888b2:	1c43      	adds	r3, r0, #1
   888b4:	d000      	beq.n	888b8 <_isatty_r+0x1c>
   888b6:	bd38      	pop	{r3, r4, r5, pc}
   888b8:	6823      	ldr	r3, [r4, #0]
   888ba:	2b00      	cmp	r3, #0
   888bc:	d0fb      	beq.n	888b6 <_isatty_r+0x1a>
   888be:	602b      	str	r3, [r5, #0]
   888c0:	bd38      	pop	{r3, r4, r5, pc}
   888c2:	bf00      	nop

000888c4 <_lseek_r>:
   888c4:	b538      	push	{r3, r4, r5, lr}
   888c6:	f240 54e4 	movw	r4, #1508	; 0x5e4
   888ca:	f2c2 0407 	movt	r4, #8199	; 0x2007
   888ce:	4605      	mov	r5, r0
   888d0:	4608      	mov	r0, r1
   888d2:	4611      	mov	r1, r2
   888d4:	461a      	mov	r2, r3
   888d6:	2300      	movs	r3, #0
   888d8:	6023      	str	r3, [r4, #0]
   888da:	f7fa fa9b 	bl	82e14 <_lseek>
   888de:	1c43      	adds	r3, r0, #1
   888e0:	d000      	beq.n	888e4 <_lseek_r+0x20>
   888e2:	bd38      	pop	{r3, r4, r5, pc}
   888e4:	6823      	ldr	r3, [r4, #0]
   888e6:	2b00      	cmp	r3, #0
   888e8:	d0fb      	beq.n	888e2 <_lseek_r+0x1e>
   888ea:	602b      	str	r3, [r5, #0]
   888ec:	bd38      	pop	{r3, r4, r5, pc}
   888ee:	bf00      	nop

000888f0 <memmove>:
   888f0:	4288      	cmp	r0, r1
   888f2:	b4f0      	push	{r4, r5, r6, r7}
   888f4:	d910      	bls.n	88918 <memmove+0x28>
   888f6:	188c      	adds	r4, r1, r2
   888f8:	42a0      	cmp	r0, r4
   888fa:	d20d      	bcs.n	88918 <memmove+0x28>
   888fc:	1885      	adds	r5, r0, r2
   888fe:	1e53      	subs	r3, r2, #1
   88900:	b142      	cbz	r2, 88914 <memmove+0x24>
   88902:	4621      	mov	r1, r4
   88904:	462a      	mov	r2, r5
   88906:	f811 4d01 	ldrb.w	r4, [r1, #-1]!
   8890a:	3b01      	subs	r3, #1
   8890c:	f802 4d01 	strb.w	r4, [r2, #-1]!
   88910:	1c5c      	adds	r4, r3, #1
   88912:	d1f8      	bne.n	88906 <memmove+0x16>
   88914:	bcf0      	pop	{r4, r5, r6, r7}
   88916:	4770      	bx	lr
   88918:	2a0f      	cmp	r2, #15
   8891a:	d946      	bls.n	889aa <memmove+0xba>
   8891c:	ea40 0301 	orr.w	r3, r0, r1
   88920:	079b      	lsls	r3, r3, #30
   88922:	d146      	bne.n	889b2 <memmove+0xc2>
   88924:	f1a2 0710 	sub.w	r7, r2, #16
   88928:	460c      	mov	r4, r1
   8892a:	4603      	mov	r3, r0
   8892c:	093f      	lsrs	r7, r7, #4
   8892e:	eb00 1607 	add.w	r6, r0, r7, lsl #4
   88932:	3610      	adds	r6, #16
   88934:	6825      	ldr	r5, [r4, #0]
   88936:	3310      	adds	r3, #16
   88938:	3410      	adds	r4, #16
   8893a:	f843 5c10 	str.w	r5, [r3, #-16]
   8893e:	f854 5c0c 	ldr.w	r5, [r4, #-12]
   88942:	f843 5c0c 	str.w	r5, [r3, #-12]
   88946:	f854 5c08 	ldr.w	r5, [r4, #-8]
   8894a:	f843 5c08 	str.w	r5, [r3, #-8]
   8894e:	f854 5c04 	ldr.w	r5, [r4, #-4]
   88952:	f843 5c04 	str.w	r5, [r3, #-4]
   88956:	42b3      	cmp	r3, r6
   88958:	d1ec      	bne.n	88934 <memmove+0x44>
   8895a:	1c7b      	adds	r3, r7, #1
   8895c:	f002 0c0f 	and.w	ip, r2, #15
   88960:	f1bc 0f03 	cmp.w	ip, #3
   88964:	ea4f 1303 	mov.w	r3, r3, lsl #4
   88968:	4419      	add	r1, r3
   8896a:	4403      	add	r3, r0
   8896c:	d923      	bls.n	889b6 <memmove+0xc6>
   8896e:	460e      	mov	r6, r1
   88970:	461d      	mov	r5, r3
   88972:	4664      	mov	r4, ip
   88974:	f856 7b04 	ldr.w	r7, [r6], #4
   88978:	3c04      	subs	r4, #4
   8897a:	2c03      	cmp	r4, #3
   8897c:	f845 7b04 	str.w	r7, [r5], #4
   88980:	d8f8      	bhi.n	88974 <memmove+0x84>
   88982:	f1ac 0404 	sub.w	r4, ip, #4
   88986:	f002 0203 	and.w	r2, r2, #3
   8898a:	f024 0403 	bic.w	r4, r4, #3
   8898e:	3404      	adds	r4, #4
   88990:	4423      	add	r3, r4
   88992:	4421      	add	r1, r4
   88994:	2a00      	cmp	r2, #0
   88996:	d0bd      	beq.n	88914 <memmove+0x24>
   88998:	441a      	add	r2, r3
   8899a:	f811 4b01 	ldrb.w	r4, [r1], #1
   8899e:	f803 4b01 	strb.w	r4, [r3], #1
   889a2:	4293      	cmp	r3, r2
   889a4:	d1f9      	bne.n	8899a <memmove+0xaa>
   889a6:	bcf0      	pop	{r4, r5, r6, r7}
   889a8:	4770      	bx	lr
   889aa:	4603      	mov	r3, r0
   889ac:	2a00      	cmp	r2, #0
   889ae:	d1f3      	bne.n	88998 <memmove+0xa8>
   889b0:	e7b0      	b.n	88914 <memmove+0x24>
   889b2:	4603      	mov	r3, r0
   889b4:	e7f0      	b.n	88998 <memmove+0xa8>
   889b6:	4662      	mov	r2, ip
   889b8:	2a00      	cmp	r2, #0
   889ba:	d1ed      	bne.n	88998 <memmove+0xa8>
   889bc:	e7aa      	b.n	88914 <memmove+0x24>
   889be:	bf00      	nop

000889c0 <_read_r>:
   889c0:	b538      	push	{r3, r4, r5, lr}
   889c2:	f240 54e4 	movw	r4, #1508	; 0x5e4
   889c6:	f2c2 0407 	movt	r4, #8199	; 0x2007
   889ca:	4605      	mov	r5, r0
   889cc:	4608      	mov	r0, r1
   889ce:	4611      	mov	r1, r2
   889d0:	461a      	mov	r2, r3
   889d2:	2300      	movs	r3, #0
   889d4:	6023      	str	r3, [r4, #0]
   889d6:	f7fa fa2b 	bl	82e30 <_read>
   889da:	1c43      	adds	r3, r0, #1
   889dc:	d000      	beq.n	889e0 <_read_r+0x20>
   889de:	bd38      	pop	{r3, r4, r5, pc}
   889e0:	6823      	ldr	r3, [r4, #0]
   889e2:	2b00      	cmp	r3, #0
   889e4:	d0fb      	beq.n	889de <_read_r+0x1e>
   889e6:	602b      	str	r3, [r5, #0]
   889e8:	bd38      	pop	{r3, r4, r5, pc}
   889ea:	bf00      	nop

000889ec <_realloc_r>:
   889ec:	e92d 4ff0 	stmdb	sp!, {r4, r5, r6, r7, r8, r9, sl, fp, lr}
   889f0:	460c      	mov	r4, r1
   889f2:	b083      	sub	sp, #12
   889f4:	4690      	mov	r8, r2
   889f6:	4681      	mov	r9, r0
   889f8:	2900      	cmp	r1, #0
   889fa:	f000 8148 	beq.w	88c8e <_realloc_r+0x2a2>
   889fe:	f7fd fea5 	bl	8674c <__malloc_lock>
   88a02:	f108 060b 	add.w	r6, r8, #11
   88a06:	2e16      	cmp	r6, #22
   88a08:	f854 cc04 	ldr.w	ip, [r4, #-4]
   88a0c:	bf8d      	iteet	hi
   88a0e:	f026 0607 	bichi.w	r6, r6, #7
   88a12:	2210      	movls	r2, #16
   88a14:	2300      	movls	r3, #0
   88a16:	4632      	movhi	r2, r6
   88a18:	bf88      	it	hi
   88a1a:	0ff3      	lsrhi	r3, r6, #31
   88a1c:	f1a4 0708 	sub.w	r7, r4, #8
   88a20:	f02c 0503 	bic.w	r5, ip, #3
   88a24:	bf98      	it	ls
   88a26:	4616      	movls	r6, r2
   88a28:	4546      	cmp	r6, r8
   88a2a:	bf38      	it	cc
   88a2c:	f043 0301 	orrcc.w	r3, r3, #1
   88a30:	2b00      	cmp	r3, #0
   88a32:	f040 8132 	bne.w	88c9a <_realloc_r+0x2ae>
   88a36:	4295      	cmp	r5, r2
   88a38:	db16      	blt.n	88a68 <_realloc_r+0x7c>
   88a3a:	46a0      	mov	r8, r4
   88a3c:	4660      	mov	r0, ip
   88a3e:	1bab      	subs	r3, r5, r6
   88a40:	2b0f      	cmp	r3, #15
   88a42:	f200 80cc 	bhi.w	88bde <_realloc_r+0x1f2>
   88a46:	197b      	adds	r3, r7, r5
   88a48:	f000 0c01 	and.w	ip, r0, #1
   88a4c:	ea4c 0505 	orr.w	r5, ip, r5
   88a50:	607d      	str	r5, [r7, #4]
   88a52:	685a      	ldr	r2, [r3, #4]
   88a54:	f042 0201 	orr.w	r2, r2, #1
   88a58:	605a      	str	r2, [r3, #4]
   88a5a:	4648      	mov	r0, r9
   88a5c:	f7fd fe78 	bl	86750 <__malloc_unlock>
   88a60:	4640      	mov	r0, r8
   88a62:	b003      	add	sp, #12
   88a64:	e8bd 8ff0 	ldmia.w	sp!, {r4, r5, r6, r7, r8, r9, sl, fp, pc}
   88a68:	f240 1a74 	movw	sl, #372	; 0x174
   88a6c:	1979      	adds	r1, r7, r5
   88a6e:	f2c2 0a07 	movt	sl, #8199	; 0x2007
   88a72:	f8da 0008 	ldr.w	r0, [sl, #8]
   88a76:	4288      	cmp	r0, r1
   88a78:	f000 8114 	beq.w	88ca4 <_realloc_r+0x2b8>
   88a7c:	f8d1 e004 	ldr.w	lr, [r1, #4]
   88a80:	f02e 0b01 	bic.w	fp, lr, #1
   88a84:	448b      	add	fp, r1
   88a86:	f8db b004 	ldr.w	fp, [fp, #4]
   88a8a:	f01b 0f01 	tst.w	fp, #1
   88a8e:	bf1c      	itt	ne
   88a90:	469e      	movne	lr, r3
   88a92:	4671      	movne	r1, lr
   88a94:	d056      	beq.n	88b44 <_realloc_r+0x158>
   88a96:	f01c 0f01 	tst.w	ip, #1
   88a9a:	f040 80b3 	bne.w	88c04 <_realloc_r+0x218>
   88a9e:	f854 3c08 	ldr.w	r3, [r4, #-8]
   88aa2:	ebc3 0b07 	rsb	fp, r3, r7
   88aa6:	f8db 3004 	ldr.w	r3, [fp, #4]
   88aaa:	f023 0303 	bic.w	r3, r3, #3
   88aae:	442b      	add	r3, r5
   88ab0:	2900      	cmp	r1, #0
   88ab2:	d055      	beq.n	88b60 <_realloc_r+0x174>
   88ab4:	4281      	cmp	r1, r0
   88ab6:	f000 8121 	beq.w	88cfc <_realloc_r+0x310>
   88aba:	449e      	add	lr, r3
   88abc:	4596      	cmp	lr, r2
   88abe:	db4f      	blt.n	88b60 <_realloc_r+0x174>
   88ac0:	68cb      	ldr	r3, [r1, #12]
   88ac2:	46d8      	mov	r8, fp
   88ac4:	6889      	ldr	r1, [r1, #8]
   88ac6:	1f2a      	subs	r2, r5, #4
   88ac8:	2a24      	cmp	r2, #36	; 0x24
   88aca:	60cb      	str	r3, [r1, #12]
   88acc:	6099      	str	r1, [r3, #8]
   88ace:	f8db 300c 	ldr.w	r3, [fp, #12]
   88ad2:	f858 1f08 	ldr.w	r1, [r8, #8]!
   88ad6:	60cb      	str	r3, [r1, #12]
   88ad8:	6099      	str	r1, [r3, #8]
   88ada:	f200 816a 	bhi.w	88db2 <_realloc_r+0x3c6>
   88ade:	2a13      	cmp	r2, #19
   88ae0:	bf98      	it	ls
   88ae2:	4642      	movls	r2, r8
   88ae4:	d923      	bls.n	88b2e <_realloc_r+0x142>
   88ae6:	6823      	ldr	r3, [r4, #0]
   88ae8:	2a1b      	cmp	r2, #27
   88aea:	bf98      	it	ls
   88aec:	f10b 0210 	addls.w	r2, fp, #16
   88af0:	f8cb 3008 	str.w	r3, [fp, #8]
   88af4:	6863      	ldr	r3, [r4, #4]
   88af6:	bf98      	it	ls
   88af8:	3408      	addls	r4, #8
   88afa:	f8cb 300c 	str.w	r3, [fp, #12]
   88afe:	d916      	bls.n	88b2e <_realloc_r+0x142>
   88b00:	68a3      	ldr	r3, [r4, #8]
   88b02:	2a24      	cmp	r2, #36	; 0x24
   88b04:	bf14      	ite	ne
   88b06:	f10b 0218 	addne.w	r2, fp, #24
   88b0a:	f10b 0220 	addeq.w	r2, fp, #32
   88b0e:	f8cb 3010 	str.w	r3, [fp, #16]
   88b12:	68e3      	ldr	r3, [r4, #12]
   88b14:	bf18      	it	ne
   88b16:	3410      	addne	r4, #16
   88b18:	f8cb 3014 	str.w	r3, [fp, #20]
   88b1c:	bf01      	itttt	eq
   88b1e:	6923      	ldreq	r3, [r4, #16]
   88b20:	f8cb 3018 	streq.w	r3, [fp, #24]
   88b24:	6963      	ldreq	r3, [r4, #20]
   88b26:	3418      	addeq	r4, #24
   88b28:	bf08      	it	eq
   88b2a:	f8cb 301c 	streq.w	r3, [fp, #28]
   88b2e:	6823      	ldr	r3, [r4, #0]
   88b30:	4675      	mov	r5, lr
   88b32:	465f      	mov	r7, fp
   88b34:	6013      	str	r3, [r2, #0]
   88b36:	6863      	ldr	r3, [r4, #4]
   88b38:	6053      	str	r3, [r2, #4]
   88b3a:	68a3      	ldr	r3, [r4, #8]
   88b3c:	6093      	str	r3, [r2, #8]
   88b3e:	f8db 0004 	ldr.w	r0, [fp, #4]
   88b42:	e77c      	b.n	88a3e <_realloc_r+0x52>
   88b44:	f02e 0e03 	bic.w	lr, lr, #3
   88b48:	eb0e 0305 	add.w	r3, lr, r5
   88b4c:	4293      	cmp	r3, r2
   88b4e:	dba2      	blt.n	88a96 <_realloc_r+0xaa>
   88b50:	68ca      	ldr	r2, [r1, #12]
   88b52:	46a0      	mov	r8, r4
   88b54:	6889      	ldr	r1, [r1, #8]
   88b56:	4660      	mov	r0, ip
   88b58:	461d      	mov	r5, r3
   88b5a:	60ca      	str	r2, [r1, #12]
   88b5c:	6091      	str	r1, [r2, #8]
   88b5e:	e76e      	b.n	88a3e <_realloc_r+0x52>
   88b60:	4293      	cmp	r3, r2
   88b62:	db4f      	blt.n	88c04 <_realloc_r+0x218>
   88b64:	46d8      	mov	r8, fp
   88b66:	f8db 100c 	ldr.w	r1, [fp, #12]
   88b6a:	1f2a      	subs	r2, r5, #4
   88b6c:	f858 0f08 	ldr.w	r0, [r8, #8]!
   88b70:	2a24      	cmp	r2, #36	; 0x24
   88b72:	60c1      	str	r1, [r0, #12]
   88b74:	6088      	str	r0, [r1, #8]
   88b76:	f200 80b4 	bhi.w	88ce2 <_realloc_r+0x2f6>
   88b7a:	2a13      	cmp	r2, #19
   88b7c:	bf98      	it	ls
   88b7e:	4641      	movls	r1, r8
   88b80:	d922      	bls.n	88bc8 <_realloc_r+0x1dc>
   88b82:	6821      	ldr	r1, [r4, #0]
   88b84:	2a1b      	cmp	r2, #27
   88b86:	f8cb 1008 	str.w	r1, [fp, #8]
   88b8a:	6861      	ldr	r1, [r4, #4]
   88b8c:	bf98      	it	ls
   88b8e:	3408      	addls	r4, #8
   88b90:	f8cb 100c 	str.w	r1, [fp, #12]
   88b94:	bf98      	it	ls
   88b96:	f10b 0110 	addls.w	r1, fp, #16
   88b9a:	d915      	bls.n	88bc8 <_realloc_r+0x1dc>
   88b9c:	68a1      	ldr	r1, [r4, #8]
   88b9e:	2a24      	cmp	r2, #36	; 0x24
   88ba0:	f8cb 1010 	str.w	r1, [fp, #16]
   88ba4:	68e1      	ldr	r1, [r4, #12]
   88ba6:	bf18      	it	ne
   88ba8:	3410      	addne	r4, #16
   88baa:	f8cb 1014 	str.w	r1, [fp, #20]
   88bae:	bf11      	iteee	ne
   88bb0:	f10b 0118 	addne.w	r1, fp, #24
   88bb4:	6922      	ldreq	r2, [r4, #16]
   88bb6:	f10b 0120 	addeq.w	r1, fp, #32
   88bba:	f8cb 2018 	streq.w	r2, [fp, #24]
   88bbe:	bf02      	ittt	eq
   88bc0:	6962      	ldreq	r2, [r4, #20]
   88bc2:	3418      	addeq	r4, #24
   88bc4:	f8cb 201c 	streq.w	r2, [fp, #28]
   88bc8:	6822      	ldr	r2, [r4, #0]
   88bca:	461d      	mov	r5, r3
   88bcc:	465f      	mov	r7, fp
   88bce:	600a      	str	r2, [r1, #0]
   88bd0:	6863      	ldr	r3, [r4, #4]
   88bd2:	604b      	str	r3, [r1, #4]
   88bd4:	68a3      	ldr	r3, [r4, #8]
   88bd6:	608b      	str	r3, [r1, #8]
   88bd8:	f8db 0004 	ldr.w	r0, [fp, #4]
   88bdc:	e72f      	b.n	88a3e <_realloc_r+0x52>
   88bde:	19b9      	adds	r1, r7, r6
   88be0:	f000 0c01 	and.w	ip, r0, #1
   88be4:	18ca      	adds	r2, r1, r3
   88be6:	ea4c 0606 	orr.w	r6, ip, r6
   88bea:	f043 0301 	orr.w	r3, r3, #1
   88bee:	607e      	str	r6, [r7, #4]
   88bf0:	604b      	str	r3, [r1, #4]
   88bf2:	4648      	mov	r0, r9
   88bf4:	6853      	ldr	r3, [r2, #4]
   88bf6:	3108      	adds	r1, #8
   88bf8:	f043 0301 	orr.w	r3, r3, #1
   88bfc:	6053      	str	r3, [r2, #4]
   88bfe:	f7fd f869 	bl	85cd4 <_free_r>
   88c02:	e72a      	b.n	88a5a <_realloc_r+0x6e>
   88c04:	4641      	mov	r1, r8
   88c06:	4648      	mov	r0, r9
   88c08:	f7fd fa4c 	bl	860a4 <_malloc_r>
   88c0c:	4680      	mov	r8, r0
   88c0e:	2800      	cmp	r0, #0
   88c10:	f43f af23 	beq.w	88a5a <_realloc_r+0x6e>
   88c14:	f854 3c04 	ldr.w	r3, [r4, #-4]
   88c18:	f1a0 0108 	sub.w	r1, r0, #8
   88c1c:	f023 0201 	bic.w	r2, r3, #1
   88c20:	443a      	add	r2, r7
   88c22:	4291      	cmp	r1, r2
   88c24:	f000 80bd 	beq.w	88da2 <_realloc_r+0x3b6>
   88c28:	1f2a      	subs	r2, r5, #4
   88c2a:	2a24      	cmp	r2, #36	; 0x24
   88c2c:	d862      	bhi.n	88cf4 <_realloc_r+0x308>
   88c2e:	2a13      	cmp	r2, #19
   88c30:	bf9c      	itt	ls
   88c32:	4603      	movls	r3, r0
   88c34:	4622      	movls	r2, r4
   88c36:	d91f      	bls.n	88c78 <_realloc_r+0x28c>
   88c38:	6823      	ldr	r3, [r4, #0]
   88c3a:	2a1b      	cmp	r2, #27
   88c3c:	bf98      	it	ls
   88c3e:	f104 0208 	addls.w	r2, r4, #8
   88c42:	6003      	str	r3, [r0, #0]
   88c44:	6863      	ldr	r3, [r4, #4]
   88c46:	6043      	str	r3, [r0, #4]
   88c48:	bf98      	it	ls
   88c4a:	f100 0308 	addls.w	r3, r0, #8
   88c4e:	d913      	bls.n	88c78 <_realloc_r+0x28c>
   88c50:	68a3      	ldr	r3, [r4, #8]
   88c52:	2a24      	cmp	r2, #36	; 0x24
   88c54:	bf14      	ite	ne
   88c56:	f104 0210 	addne.w	r2, r4, #16
   88c5a:	f104 0218 	addeq.w	r2, r4, #24
   88c5e:	6083      	str	r3, [r0, #8]
   88c60:	68e3      	ldr	r3, [r4, #12]
   88c62:	60c3      	str	r3, [r0, #12]
   88c64:	bf11      	iteee	ne
   88c66:	f100 0310 	addne.w	r3, r0, #16
   88c6a:	6921      	ldreq	r1, [r4, #16]
   88c6c:	f100 0318 	addeq.w	r3, r0, #24
   88c70:	6101      	streq	r1, [r0, #16]
   88c72:	bf04      	itt	eq
   88c74:	6961      	ldreq	r1, [r4, #20]
   88c76:	6141      	streq	r1, [r0, #20]
   88c78:	6811      	ldr	r1, [r2, #0]
   88c7a:	6019      	str	r1, [r3, #0]
   88c7c:	6851      	ldr	r1, [r2, #4]
   88c7e:	6059      	str	r1, [r3, #4]
   88c80:	6892      	ldr	r2, [r2, #8]
   88c82:	609a      	str	r2, [r3, #8]
   88c84:	4621      	mov	r1, r4
   88c86:	4648      	mov	r0, r9
   88c88:	f7fd f824 	bl	85cd4 <_free_r>
   88c8c:	e6e5      	b.n	88a5a <_realloc_r+0x6e>
   88c8e:	4611      	mov	r1, r2
   88c90:	b003      	add	sp, #12
   88c92:	e8bd 4ff0 	ldmia.w	sp!, {r4, r5, r6, r7, r8, r9, sl, fp, lr}
   88c96:	f7fd ba05 	b.w	860a4 <_malloc_r>
   88c9a:	230c      	movs	r3, #12
   88c9c:	2000      	movs	r0, #0
   88c9e:	f8c9 3000 	str.w	r3, [r9]
   88ca2:	e6de      	b.n	88a62 <_realloc_r+0x76>
   88ca4:	6843      	ldr	r3, [r0, #4]
   88ca6:	f106 0110 	add.w	r1, r6, #16
   88caa:	f023 0e03 	bic.w	lr, r3, #3
   88cae:	eb0e 0305 	add.w	r3, lr, r5
   88cb2:	428b      	cmp	r3, r1
   88cb4:	bfb8      	it	lt
   88cb6:	4601      	movlt	r1, r0
   88cb8:	f6ff aeed 	blt.w	88a96 <_realloc_r+0xaa>
   88cbc:	4437      	add	r7, r6
   88cbe:	1b9b      	subs	r3, r3, r6
   88cc0:	f8ca 7008 	str.w	r7, [sl, #8]
   88cc4:	f043 0301 	orr.w	r3, r3, #1
   88cc8:	607b      	str	r3, [r7, #4]
   88cca:	4648      	mov	r0, r9
   88ccc:	f854 3c04 	ldr.w	r3, [r4, #-4]
   88cd0:	f003 0301 	and.w	r3, r3, #1
   88cd4:	431e      	orrs	r6, r3
   88cd6:	f844 6c04 	str.w	r6, [r4, #-4]
   88cda:	f7fd fd39 	bl	86750 <__malloc_unlock>
   88cde:	4620      	mov	r0, r4
   88ce0:	e6bf      	b.n	88a62 <_realloc_r+0x76>
   88ce2:	4621      	mov	r1, r4
   88ce4:	4640      	mov	r0, r8
   88ce6:	461d      	mov	r5, r3
   88ce8:	465f      	mov	r7, fp
   88cea:	f7ff fe01 	bl	888f0 <memmove>
   88cee:	f8db 0004 	ldr.w	r0, [fp, #4]
   88cf2:	e6a4      	b.n	88a3e <_realloc_r+0x52>
   88cf4:	4621      	mov	r1, r4
   88cf6:	f7ff fdfb 	bl	888f0 <memmove>
   88cfa:	e7c3      	b.n	88c84 <_realloc_r+0x298>
   88cfc:	f106 0110 	add.w	r1, r6, #16
   88d00:	eb0e 0c03 	add.w	ip, lr, r3
   88d04:	458c      	cmp	ip, r1
   88d06:	f6ff af2b 	blt.w	88b60 <_realloc_r+0x174>
   88d0a:	46d8      	mov	r8, fp
   88d0c:	f8db 300c 	ldr.w	r3, [fp, #12]
   88d10:	1f2a      	subs	r2, r5, #4
   88d12:	f858 1f08 	ldr.w	r1, [r8, #8]!
   88d16:	2a24      	cmp	r2, #36	; 0x24
   88d18:	60cb      	str	r3, [r1, #12]
   88d1a:	6099      	str	r1, [r3, #8]
   88d1c:	d852      	bhi.n	88dc4 <_realloc_r+0x3d8>
   88d1e:	2a13      	cmp	r2, #19
   88d20:	bf98      	it	ls
   88d22:	4643      	movls	r3, r8
   88d24:	d922      	bls.n	88d6c <_realloc_r+0x380>
   88d26:	6823      	ldr	r3, [r4, #0]
   88d28:	2a1b      	cmp	r2, #27
   88d2a:	f8cb 3008 	str.w	r3, [fp, #8]
   88d2e:	6863      	ldr	r3, [r4, #4]
   88d30:	bf98      	it	ls
   88d32:	3408      	addls	r4, #8
   88d34:	f8cb 300c 	str.w	r3, [fp, #12]
   88d38:	bf98      	it	ls
   88d3a:	f10b 0310 	addls.w	r3, fp, #16
   88d3e:	d915      	bls.n	88d6c <_realloc_r+0x380>
   88d40:	68a3      	ldr	r3, [r4, #8]
   88d42:	2a24      	cmp	r2, #36	; 0x24
   88d44:	f8cb 3010 	str.w	r3, [fp, #16]
   88d48:	68e3      	ldr	r3, [r4, #12]
   88d4a:	bf18      	it	ne
   88d4c:	3410      	addne	r4, #16
   88d4e:	f8cb 3014 	str.w	r3, [fp, #20]
   88d52:	bf11      	iteee	ne
   88d54:	f10b 0318 	addne.w	r3, fp, #24
   88d58:	6922      	ldreq	r2, [r4, #16]
   88d5a:	f10b 0320 	addeq.w	r3, fp, #32
   88d5e:	f8cb 2018 	streq.w	r2, [fp, #24]
   88d62:	bf02      	ittt	eq
   88d64:	6962      	ldreq	r2, [r4, #20]
   88d66:	3418      	addeq	r4, #24
   88d68:	f8cb 201c 	streq.w	r2, [fp, #28]
   88d6c:	6822      	ldr	r2, [r4, #0]
   88d6e:	601a      	str	r2, [r3, #0]
   88d70:	6862      	ldr	r2, [r4, #4]
   88d72:	605a      	str	r2, [r3, #4]
   88d74:	68a2      	ldr	r2, [r4, #8]
   88d76:	609a      	str	r2, [r3, #8]
   88d78:	eb0b 0306 	add.w	r3, fp, r6
   88d7c:	ebc6 020c 	rsb	r2, r6, ip
   88d80:	f8ca 3008 	str.w	r3, [sl, #8]
   88d84:	f042 0201 	orr.w	r2, r2, #1
   88d88:	605a      	str	r2, [r3, #4]
   88d8a:	4648      	mov	r0, r9
   88d8c:	f8db 3004 	ldr.w	r3, [fp, #4]
   88d90:	f003 0301 	and.w	r3, r3, #1
   88d94:	431e      	orrs	r6, r3
   88d96:	f8cb 6004 	str.w	r6, [fp, #4]
   88d9a:	f7fd fcd9 	bl	86750 <__malloc_unlock>
   88d9e:	4640      	mov	r0, r8
   88da0:	e65f      	b.n	88a62 <_realloc_r+0x76>
   88da2:	f850 2c04 	ldr.w	r2, [r0, #-4]
   88da6:	4618      	mov	r0, r3
   88da8:	46a0      	mov	r8, r4
   88daa:	f022 0303 	bic.w	r3, r2, #3
   88dae:	441d      	add	r5, r3
   88db0:	e645      	b.n	88a3e <_realloc_r+0x52>
   88db2:	4621      	mov	r1, r4
   88db4:	4640      	mov	r0, r8
   88db6:	4675      	mov	r5, lr
   88db8:	465f      	mov	r7, fp
   88dba:	f7ff fd99 	bl	888f0 <memmove>
   88dbe:	f8db 0004 	ldr.w	r0, [fp, #4]
   88dc2:	e63c      	b.n	88a3e <_realloc_r+0x52>
   88dc4:	4621      	mov	r1, r4
   88dc6:	4640      	mov	r0, r8
   88dc8:	f8cd c004 	str.w	ip, [sp, #4]
   88dcc:	f7ff fd90 	bl	888f0 <memmove>
   88dd0:	f8dd c004 	ldr.w	ip, [sp, #4]
   88dd4:	e7d0      	b.n	88d78 <_realloc_r+0x38c>
   88dd6:	bf00      	nop

00088dd8 <__swbuf_r>:
   88dd8:	b570      	push	{r4, r5, r6, lr}
   88dda:	460d      	mov	r5, r1
   88ddc:	4614      	mov	r4, r2
   88dde:	4606      	mov	r6, r0
   88de0:	b110      	cbz	r0, 88de8 <__swbuf_r+0x10>
   88de2:	6983      	ldr	r3, [r0, #24]
   88de4:	2b00      	cmp	r3, #0
   88de6:	d05d      	beq.n	88ea4 <__swbuf_r+0xcc>
   88de8:	f24a 13a0 	movw	r3, #41376	; 0xa1a0
   88dec:	f2c0 0308 	movt	r3, #8
   88df0:	429c      	cmp	r4, r3
   88df2:	bf08      	it	eq
   88df4:	6874      	ldreq	r4, [r6, #4]
   88df6:	d00e      	beq.n	88e16 <__swbuf_r+0x3e>
   88df8:	f24a 1380 	movw	r3, #41344	; 0xa180
   88dfc:	f2c0 0308 	movt	r3, #8
   88e00:	429c      	cmp	r4, r3
   88e02:	bf08      	it	eq
   88e04:	68b4      	ldreq	r4, [r6, #8]
   88e06:	d006      	beq.n	88e16 <__swbuf_r+0x3e>
   88e08:	f24a 1360 	movw	r3, #41312	; 0xa160
   88e0c:	f2c0 0308 	movt	r3, #8
   88e10:	429c      	cmp	r4, r3
   88e12:	bf08      	it	eq
   88e14:	68f4      	ldreq	r4, [r6, #12]
   88e16:	89a2      	ldrh	r2, [r4, #12]
   88e18:	69a0      	ldr	r0, [r4, #24]
   88e1a:	b293      	uxth	r3, r2
   88e1c:	60a0      	str	r0, [r4, #8]
   88e1e:	0718      	lsls	r0, r3, #28
   88e20:	d52d      	bpl.n	88e7e <__swbuf_r+0xa6>
   88e22:	6920      	ldr	r0, [r4, #16]
   88e24:	2800      	cmp	r0, #0
   88e26:	d02a      	beq.n	88e7e <__swbuf_r+0xa6>
   88e28:	0499      	lsls	r1, r3, #18
   88e2a:	b2ed      	uxtb	r5, r5
   88e2c:	bf5e      	ittt	pl
   88e2e:	f442 5200 	orrpl.w	r2, r2, #8192	; 0x2000
   88e32:	81a2      	strhpl	r2, [r4, #12]
   88e34:	6e63      	ldrpl	r3, [r4, #100]	; 0x64
   88e36:	6962      	ldr	r2, [r4, #20]
   88e38:	bf5c      	itt	pl
   88e3a:	f423 5300 	bicpl.w	r3, r3, #8192	; 0x2000
   88e3e:	6663      	strpl	r3, [r4, #100]	; 0x64
   88e40:	6823      	ldr	r3, [r4, #0]
   88e42:	1a18      	subs	r0, r3, r0
   88e44:	4290      	cmp	r0, r2
   88e46:	bfb8      	it	lt
   88e48:	3001      	addlt	r0, #1
   88e4a:	da22      	bge.n	88e92 <__swbuf_r+0xba>
   88e4c:	68a2      	ldr	r2, [r4, #8]
   88e4e:	1c59      	adds	r1, r3, #1
   88e50:	6021      	str	r1, [r4, #0]
   88e52:	3a01      	subs	r2, #1
   88e54:	60a2      	str	r2, [r4, #8]
   88e56:	701d      	strb	r5, [r3, #0]
   88e58:	6963      	ldr	r3, [r4, #20]
   88e5a:	4283      	cmp	r3, r0
   88e5c:	d006      	beq.n	88e6c <__swbuf_r+0x94>
   88e5e:	89a3      	ldrh	r3, [r4, #12]
   88e60:	07db      	lsls	r3, r3, #31
   88e62:	d501      	bpl.n	88e68 <__swbuf_r+0x90>
   88e64:	2d0a      	cmp	r5, #10
   88e66:	d001      	beq.n	88e6c <__swbuf_r+0x94>
   88e68:	4628      	mov	r0, r5
   88e6a:	bd70      	pop	{r4, r5, r6, pc}
   88e6c:	4630      	mov	r0, r6
   88e6e:	4621      	mov	r1, r4
   88e70:	f7fc fd76 	bl	85960 <_fflush_r>
   88e74:	2800      	cmp	r0, #0
   88e76:	d0f7      	beq.n	88e68 <__swbuf_r+0x90>
   88e78:	f04f 30ff 	mov.w	r0, #4294967295	; 0xffffffff
   88e7c:	bd70      	pop	{r4, r5, r6, pc}
   88e7e:	4630      	mov	r0, r6
   88e80:	4621      	mov	r1, r4
   88e82:	f7fb fbdb 	bl	8463c <__swsetup_r>
   88e86:	2800      	cmp	r0, #0
   88e88:	d1f6      	bne.n	88e78 <__swbuf_r+0xa0>
   88e8a:	89a2      	ldrh	r2, [r4, #12]
   88e8c:	6920      	ldr	r0, [r4, #16]
   88e8e:	b293      	uxth	r3, r2
   88e90:	e7ca      	b.n	88e28 <__swbuf_r+0x50>
   88e92:	4630      	mov	r0, r6
   88e94:	4621      	mov	r1, r4
   88e96:	f7fc fd63 	bl	85960 <_fflush_r>
   88e9a:	2800      	cmp	r0, #0
   88e9c:	d1ec      	bne.n	88e78 <__swbuf_r+0xa0>
   88e9e:	6823      	ldr	r3, [r4, #0]
   88ea0:	2001      	movs	r0, #1
   88ea2:	e7d3      	b.n	88e4c <__swbuf_r+0x74>
   88ea4:	f7fc fdce 	bl	85a44 <__sinit>
   88ea8:	e79e      	b.n	88de8 <__swbuf_r+0x10>
   88eaa:	bf00      	nop

00088eac <__swbuf>:
   88eac:	f240 0304 	movw	r3, #4
   88eb0:	460a      	mov	r2, r1
   88eb2:	f2c2 0307 	movt	r3, #8199	; 0x2007
   88eb6:	4601      	mov	r1, r0
   88eb8:	6818      	ldr	r0, [r3, #0]
   88eba:	f7ff bf8d 	b.w	88dd8 <__swbuf_r>
   88ebe:	bf00      	nop

00088ec0 <_wcrtomb_r>:
   88ec0:	e92d 41f0 	stmdb	sp!, {r4, r5, r6, r7, r8, lr}
   88ec4:	460d      	mov	r5, r1
   88ec6:	b086      	sub	sp, #24
   88ec8:	4606      	mov	r6, r0
   88eca:	4690      	mov	r8, r2
   88ecc:	461f      	mov	r7, r3
   88ece:	b1a9      	cbz	r1, 88efc <_wcrtomb_r+0x3c>
   88ed0:	f240 5484 	movw	r4, #1412	; 0x584
   88ed4:	f2c2 0407 	movt	r4, #8199	; 0x2007
   88ed8:	6824      	ldr	r4, [r4, #0]
   88eda:	f7fd f83b 	bl	85f54 <__locale_charset>
   88ede:	9700      	str	r7, [sp, #0]
   88ee0:	4629      	mov	r1, r5
   88ee2:	4642      	mov	r2, r8
   88ee4:	4603      	mov	r3, r0
   88ee6:	4630      	mov	r0, r6
   88ee8:	47a0      	blx	r4
   88eea:	1c43      	adds	r3, r0, #1
   88eec:	bf01      	itttt	eq
   88eee:	2200      	moveq	r2, #0
   88ef0:	238a      	moveq	r3, #138	; 0x8a
   88ef2:	603a      	streq	r2, [r7, #0]
   88ef4:	6033      	streq	r3, [r6, #0]
   88ef6:	b006      	add	sp, #24
   88ef8:	e8bd 81f0 	ldmia.w	sp!, {r4, r5, r6, r7, r8, pc}
   88efc:	f240 5384 	movw	r3, #1412	; 0x584
   88f00:	f2c2 0307 	movt	r3, #8199	; 0x2007
   88f04:	681c      	ldr	r4, [r3, #0]
   88f06:	f7fd f825 	bl	85f54 <__locale_charset>
   88f0a:	9700      	str	r7, [sp, #0]
   88f0c:	462a      	mov	r2, r5
   88f0e:	a903      	add	r1, sp, #12
   88f10:	4603      	mov	r3, r0
   88f12:	4630      	mov	r0, r6
   88f14:	47a0      	blx	r4
   88f16:	e7e8      	b.n	88eea <_wcrtomb_r+0x2a>

00088f18 <wcrtomb>:
   88f18:	f240 0304 	movw	r3, #4
   88f1c:	f2c2 0307 	movt	r3, #8199	; 0x2007
   88f20:	e92d 41f0 	stmdb	sp!, {r4, r5, r6, r7, r8, lr}
   88f24:	4604      	mov	r4, r0
   88f26:	681d      	ldr	r5, [r3, #0]
   88f28:	f240 5384 	movw	r3, #1412	; 0x584
   88f2c:	b086      	sub	sp, #24
   88f2e:	460f      	mov	r7, r1
   88f30:	4616      	mov	r6, r2
   88f32:	f2c2 0307 	movt	r3, #8199	; 0x2007
   88f36:	b190      	cbz	r0, 88f5e <wcrtomb+0x46>
   88f38:	f8d3 8000 	ldr.w	r8, [r3]
   88f3c:	f7fd f80a 	bl	85f54 <__locale_charset>
   88f40:	9600      	str	r6, [sp, #0]
   88f42:	4621      	mov	r1, r4
   88f44:	463a      	mov	r2, r7
   88f46:	4603      	mov	r3, r0
   88f48:	4628      	mov	r0, r5
   88f4a:	47c0      	blx	r8
   88f4c:	1c43      	adds	r3, r0, #1
   88f4e:	bf01      	itttt	eq
   88f50:	2200      	moveq	r2, #0
   88f52:	238a      	moveq	r3, #138	; 0x8a
   88f54:	6032      	streq	r2, [r6, #0]
   88f56:	602b      	streq	r3, [r5, #0]
   88f58:	b006      	add	sp, #24
   88f5a:	e8bd 81f0 	ldmia.w	sp!, {r4, r5, r6, r7, r8, pc}
   88f5e:	681f      	ldr	r7, [r3, #0]
   88f60:	f7fc fff8 	bl	85f54 <__locale_charset>
   88f64:	9600      	str	r6, [sp, #0]
   88f66:	4622      	mov	r2, r4
   88f68:	a903      	add	r1, sp, #12
   88f6a:	4603      	mov	r3, r0
   88f6c:	4628      	mov	r0, r5
   88f6e:	47b8      	blx	r7
   88f70:	e7ec      	b.n	88f4c <wcrtomb+0x34>
   88f72:	bf00      	nop

00088f74 <__ascii_wctomb>:
   88f74:	b141      	cbz	r1, 88f88 <__ascii_wctomb+0x14>
   88f76:	2aff      	cmp	r2, #255	; 0xff
   88f78:	bf95      	itete	ls
   88f7a:	700a      	strbls	r2, [r1, #0]
   88f7c:	f04f 31ff 	movhi.w	r1, #4294967295	; 0xffffffff
   88f80:	2101      	movls	r1, #1
   88f82:	238a      	movhi	r3, #138	; 0x8a
   88f84:	bf88      	it	hi
   88f86:	6003      	strhi	r3, [r0, #0]
   88f88:	4608      	mov	r0, r1
   88f8a:	4770      	bx	lr

00088f8c <_wctomb_r>:
   88f8c:	e92d 41f0 	stmdb	sp!, {r4, r5, r6, r7, r8, lr}
   88f90:	f240 5484 	movw	r4, #1412	; 0x584
   88f94:	f2c2 0407 	movt	r4, #8199	; 0x2007
   88f98:	b082      	sub	sp, #8
   88f9a:	4698      	mov	r8, r3
   88f9c:	4605      	mov	r5, r0
   88f9e:	460f      	mov	r7, r1
   88fa0:	4616      	mov	r6, r2
   88fa2:	6824      	ldr	r4, [r4, #0]
   88fa4:	f7fc ffd6 	bl	85f54 <__locale_charset>
   88fa8:	f8cd 8000 	str.w	r8, [sp]
   88fac:	4639      	mov	r1, r7
   88fae:	4632      	mov	r2, r6
   88fb0:	4603      	mov	r3, r0
   88fb2:	4628      	mov	r0, r5
   88fb4:	47a0      	blx	r4
   88fb6:	b002      	add	sp, #8
   88fb8:	e8bd 81f0 	ldmia.w	sp!, {r4, r5, r6, r7, r8, pc}

00088fbc <__aeabi_uidiv>:
   88fbc:	2900      	cmp	r1, #0
   88fbe:	d002      	beq.n	88fc6 <__aeabi_uidiv+0xa>
   88fc0:	fbb0 f0f1 	udiv	r0, r0, r1
   88fc4:	4770      	bx	lr
   88fc6:	b108      	cbz	r0, 88fcc <__aeabi_uidiv+0x10>
   88fc8:	f04f 30ff 	mov.w	r0, #4294967295	; 0xffffffff
   88fcc:	f000 b808 	b.w	88fe0 <__aeabi_idiv0>

00088fd0 <__aeabi_uidivmod>:
   88fd0:	2900      	cmp	r1, #0
   88fd2:	d0f8      	beq.n	88fc6 <__aeabi_uidiv+0xa>
   88fd4:	4602      	mov	r2, r0
   88fd6:	fbb0 f0f1 	udiv	r0, r0, r1
   88fda:	fb00 2111 	mls	r1, r0, r1, r2
   88fde:	4770      	bx	lr

00088fe0 <__aeabi_idiv0>:
   88fe0:	4770      	bx	lr
   88fe2:	bf00      	nop

00088fe4 <__aeabi_drsub>:
   88fe4:	f081 4100 	eor.w	r1, r1, #2147483648	; 0x80000000
   88fe8:	e002      	b.n	88ff0 <__adddf3>
   88fea:	bf00      	nop

00088fec <__aeabi_dsub>:
   88fec:	f083 4300 	eor.w	r3, r3, #2147483648	; 0x80000000

00088ff0 <__adddf3>:
   88ff0:	b530      	push	{r4, r5, lr}
   88ff2:	ea4f 0441 	mov.w	r4, r1, lsl #1
   88ff6:	ea4f 0543 	mov.w	r5, r3, lsl #1
   88ffa:	ea94 0f05 	teq	r4, r5
   88ffe:	bf08      	it	eq
   89000:	ea90 0f02 	teqeq	r0, r2
   89004:	bf1f      	itttt	ne
   89006:	ea54 0c00 	orrsne.w	ip, r4, r0
   8900a:	ea55 0c02 	orrsne.w	ip, r5, r2
   8900e:	ea7f 5c64 	mvnsne.w	ip, r4, asr #21
   89012:	ea7f 5c65 	mvnsne.w	ip, r5, asr #21
   89016:	f000 80e2 	beq.w	891de <__adddf3+0x1ee>
   8901a:	ea4f 5454 	mov.w	r4, r4, lsr #21
   8901e:	ebd4 5555 	rsbs	r5, r4, r5, lsr #21
   89022:	bfb8      	it	lt
   89024:	426d      	neglt	r5, r5
   89026:	dd0c      	ble.n	89042 <__adddf3+0x52>
   89028:	442c      	add	r4, r5
   8902a:	ea80 0202 	eor.w	r2, r0, r2
   8902e:	ea81 0303 	eor.w	r3, r1, r3
   89032:	ea82 0000 	eor.w	r0, r2, r0
   89036:	ea83 0101 	eor.w	r1, r3, r1
   8903a:	ea80 0202 	eor.w	r2, r0, r2
   8903e:	ea81 0303 	eor.w	r3, r1, r3
   89042:	2d36      	cmp	r5, #54	; 0x36
   89044:	bf88      	it	hi
   89046:	bd30      	pophi	{r4, r5, pc}
   89048:	f011 4f00 	tst.w	r1, #2147483648	; 0x80000000
   8904c:	ea4f 3101 	mov.w	r1, r1, lsl #12
   89050:	f44f 1c80 	mov.w	ip, #1048576	; 0x100000
   89054:	ea4c 3111 	orr.w	r1, ip, r1, lsr #12
   89058:	d002      	beq.n	89060 <__adddf3+0x70>
   8905a:	4240      	negs	r0, r0
   8905c:	eb61 0141 	sbc.w	r1, r1, r1, lsl #1
   89060:	f013 4f00 	tst.w	r3, #2147483648	; 0x80000000
   89064:	ea4f 3303 	mov.w	r3, r3, lsl #12
   89068:	ea4c 3313 	orr.w	r3, ip, r3, lsr #12
   8906c:	d002      	beq.n	89074 <__adddf3+0x84>
   8906e:	4252      	negs	r2, r2
   89070:	eb63 0343 	sbc.w	r3, r3, r3, lsl #1
   89074:	ea94 0f05 	teq	r4, r5
   89078:	f000 80a7 	beq.w	891ca <__adddf3+0x1da>
   8907c:	f1a4 0401 	sub.w	r4, r4, #1
   89080:	f1d5 0e20 	rsbs	lr, r5, #32
   89084:	db0d      	blt.n	890a2 <__adddf3+0xb2>
   89086:	fa02 fc0e 	lsl.w	ip, r2, lr
   8908a:	fa22 f205 	lsr.w	r2, r2, r5
   8908e:	1880      	adds	r0, r0, r2
   89090:	f141 0100 	adc.w	r1, r1, #0
   89094:	fa03 f20e 	lsl.w	r2, r3, lr
   89098:	1880      	adds	r0, r0, r2
   8909a:	fa43 f305 	asr.w	r3, r3, r5
   8909e:	4159      	adcs	r1, r3
   890a0:	e00e      	b.n	890c0 <__adddf3+0xd0>
   890a2:	f1a5 0520 	sub.w	r5, r5, #32
   890a6:	f10e 0e20 	add.w	lr, lr, #32
   890aa:	2a01      	cmp	r2, #1
   890ac:	fa03 fc0e 	lsl.w	ip, r3, lr
   890b0:	bf28      	it	cs
   890b2:	f04c 0c02 	orrcs.w	ip, ip, #2
   890b6:	fa43 f305 	asr.w	r3, r3, r5
   890ba:	18c0      	adds	r0, r0, r3
   890bc:	eb51 71e3 	adcs.w	r1, r1, r3, asr #31
   890c0:	f001 4500 	and.w	r5, r1, #2147483648	; 0x80000000
   890c4:	d507      	bpl.n	890d6 <__adddf3+0xe6>
   890c6:	f04f 0e00 	mov.w	lr, #0
   890ca:	f1dc 0c00 	rsbs	ip, ip, #0
   890ce:	eb7e 0000 	sbcs.w	r0, lr, r0
   890d2:	eb6e 0101 	sbc.w	r1, lr, r1
   890d6:	f5b1 1f80 	cmp.w	r1, #1048576	; 0x100000
   890da:	d31b      	bcc.n	89114 <__adddf3+0x124>
   890dc:	f5b1 1f00 	cmp.w	r1, #2097152	; 0x200000
   890e0:	d30c      	bcc.n	890fc <__adddf3+0x10c>
   890e2:	0849      	lsrs	r1, r1, #1
   890e4:	ea5f 0030 	movs.w	r0, r0, rrx
   890e8:	ea4f 0c3c 	mov.w	ip, ip, rrx
   890ec:	f104 0401 	add.w	r4, r4, #1
   890f0:	ea4f 5244 	mov.w	r2, r4, lsl #21
   890f4:	f512 0f80 	cmn.w	r2, #4194304	; 0x400000
   890f8:	f080 809a 	bcs.w	89230 <__adddf3+0x240>
   890fc:	f1bc 4f00 	cmp.w	ip, #2147483648	; 0x80000000
   89100:	bf08      	it	eq
   89102:	ea5f 0c50 	movseq.w	ip, r0, lsr #1
   89106:	f150 0000 	adcs.w	r0, r0, #0
   8910a:	eb41 5104 	adc.w	r1, r1, r4, lsl #20
   8910e:	ea41 0105 	orr.w	r1, r1, r5
   89112:	bd30      	pop	{r4, r5, pc}
   89114:	ea5f 0c4c 	movs.w	ip, ip, lsl #1
   89118:	4140      	adcs	r0, r0
   8911a:	eb41 0101 	adc.w	r1, r1, r1
   8911e:	f411 1f80 	tst.w	r1, #1048576	; 0x100000
   89122:	f1a4 0401 	sub.w	r4, r4, #1
   89126:	d1e9      	bne.n	890fc <__adddf3+0x10c>
   89128:	f091 0f00 	teq	r1, #0
   8912c:	bf04      	itt	eq
   8912e:	4601      	moveq	r1, r0
   89130:	2000      	moveq	r0, #0
   89132:	fab1 f381 	clz	r3, r1
   89136:	bf08      	it	eq
   89138:	3320      	addeq	r3, #32
   8913a:	f1a3 030b 	sub.w	r3, r3, #11
   8913e:	f1b3 0220 	subs.w	r2, r3, #32
   89142:	da0c      	bge.n	8915e <__adddf3+0x16e>
   89144:	320c      	adds	r2, #12
   89146:	dd08      	ble.n	8915a <__adddf3+0x16a>
   89148:	f102 0c14 	add.w	ip, r2, #20
   8914c:	f1c2 020c 	rsb	r2, r2, #12
   89150:	fa01 f00c 	lsl.w	r0, r1, ip
   89154:	fa21 f102 	lsr.w	r1, r1, r2
   89158:	e00c      	b.n	89174 <__adddf3+0x184>
   8915a:	f102 0214 	add.w	r2, r2, #20
   8915e:	bfd8      	it	le
   89160:	f1c2 0c20 	rsble	ip, r2, #32
   89164:	fa01 f102 	lsl.w	r1, r1, r2
   89168:	fa20 fc0c 	lsr.w	ip, r0, ip
   8916c:	bfdc      	itt	le
   8916e:	ea41 010c 	orrle.w	r1, r1, ip
   89172:	4090      	lslle	r0, r2
   89174:	1ae4      	subs	r4, r4, r3
   89176:	bfa2      	ittt	ge
   89178:	eb01 5104 	addge.w	r1, r1, r4, lsl #20
   8917c:	4329      	orrge	r1, r5
   8917e:	bd30      	popge	{r4, r5, pc}
   89180:	ea6f 0404 	mvn.w	r4, r4
   89184:	3c1f      	subs	r4, #31
   89186:	da1c      	bge.n	891c2 <__adddf3+0x1d2>
   89188:	340c      	adds	r4, #12
   8918a:	dc0e      	bgt.n	891aa <__adddf3+0x1ba>
   8918c:	f104 0414 	add.w	r4, r4, #20
   89190:	f1c4 0220 	rsb	r2, r4, #32
   89194:	fa20 f004 	lsr.w	r0, r0, r4
   89198:	fa01 f302 	lsl.w	r3, r1, r2
   8919c:	ea40 0003 	orr.w	r0, r0, r3
   891a0:	fa21 f304 	lsr.w	r3, r1, r4
   891a4:	ea45 0103 	orr.w	r1, r5, r3
   891a8:	bd30      	pop	{r4, r5, pc}
   891aa:	f1c4 040c 	rsb	r4, r4, #12
   891ae:	f1c4 0220 	rsb	r2, r4, #32
   891b2:	fa20 f002 	lsr.w	r0, r0, r2
   891b6:	fa01 f304 	lsl.w	r3, r1, r4
   891ba:	ea40 0003 	orr.w	r0, r0, r3
   891be:	4629      	mov	r1, r5
   891c0:	bd30      	pop	{r4, r5, pc}
   891c2:	fa21 f004 	lsr.w	r0, r1, r4
   891c6:	4629      	mov	r1, r5
   891c8:	bd30      	pop	{r4, r5, pc}
   891ca:	f094 0f00 	teq	r4, #0
   891ce:	f483 1380 	eor.w	r3, r3, #1048576	; 0x100000
   891d2:	bf06      	itte	eq
   891d4:	f481 1180 	eoreq.w	r1, r1, #1048576	; 0x100000
   891d8:	3401      	addeq	r4, #1
   891da:	3d01      	subne	r5, #1
   891dc:	e74e      	b.n	8907c <__adddf3+0x8c>
   891de:	ea7f 5c64 	mvns.w	ip, r4, asr #21
   891e2:	bf18      	it	ne
   891e4:	ea7f 5c65 	mvnsne.w	ip, r5, asr #21
   891e8:	d029      	beq.n	8923e <__adddf3+0x24e>
   891ea:	ea94 0f05 	teq	r4, r5
   891ee:	bf08      	it	eq
   891f0:	ea90 0f02 	teqeq	r0, r2
   891f4:	d005      	beq.n	89202 <__adddf3+0x212>
   891f6:	ea54 0c00 	orrs.w	ip, r4, r0
   891fa:	bf04      	itt	eq
   891fc:	4619      	moveq	r1, r3
   891fe:	4610      	moveq	r0, r2
   89200:	bd30      	pop	{r4, r5, pc}
   89202:	ea91 0f03 	teq	r1, r3
   89206:	bf1e      	ittt	ne
   89208:	2100      	movne	r1, #0
   8920a:	2000      	movne	r0, #0
   8920c:	bd30      	popne	{r4, r5, pc}
   8920e:	ea5f 5c54 	movs.w	ip, r4, lsr #21
   89212:	d105      	bne.n	89220 <__adddf3+0x230>
   89214:	0040      	lsls	r0, r0, #1
   89216:	4149      	adcs	r1, r1
   89218:	bf28      	it	cs
   8921a:	f041 4100 	orrcs.w	r1, r1, #2147483648	; 0x80000000
   8921e:	bd30      	pop	{r4, r5, pc}
   89220:	f514 0480 	adds.w	r4, r4, #4194304	; 0x400000
   89224:	bf3c      	itt	cc
   89226:	f501 1180 	addcc.w	r1, r1, #1048576	; 0x100000
   8922a:	bd30      	popcc	{r4, r5, pc}
   8922c:	f001 4500 	and.w	r5, r1, #2147483648	; 0x80000000
   89230:	f045 41fe 	orr.w	r1, r5, #2130706432	; 0x7f000000
   89234:	f441 0170 	orr.w	r1, r1, #15728640	; 0xf00000
   89238:	f04f 0000 	mov.w	r0, #0
   8923c:	bd30      	pop	{r4, r5, pc}
   8923e:	ea7f 5c64 	mvns.w	ip, r4, asr #21
   89242:	bf1a      	itte	ne
   89244:	4619      	movne	r1, r3
   89246:	4610      	movne	r0, r2
   89248:	ea7f 5c65 	mvnseq.w	ip, r5, asr #21
   8924c:	bf1c      	itt	ne
   8924e:	460b      	movne	r3, r1
   89250:	4602      	movne	r2, r0
   89252:	ea50 3401 	orrs.w	r4, r0, r1, lsl #12
   89256:	bf06      	itte	eq
   89258:	ea52 3503 	orrseq.w	r5, r2, r3, lsl #12
   8925c:	ea91 0f03 	teqeq	r1, r3
   89260:	f441 2100 	orrne.w	r1, r1, #524288	; 0x80000
   89264:	bd30      	pop	{r4, r5, pc}
   89266:	bf00      	nop

00089268 <__aeabi_ui2d>:
   89268:	f090 0f00 	teq	r0, #0
   8926c:	bf04      	itt	eq
   8926e:	2100      	moveq	r1, #0
   89270:	4770      	bxeq	lr
   89272:	b530      	push	{r4, r5, lr}
   89274:	f44f 6480 	mov.w	r4, #1024	; 0x400
   89278:	f104 0432 	add.w	r4, r4, #50	; 0x32
   8927c:	f04f 0500 	mov.w	r5, #0
   89280:	f04f 0100 	mov.w	r1, #0
   89284:	e750      	b.n	89128 <__adddf3+0x138>
   89286:	bf00      	nop

00089288 <__aeabi_i2d>:
   89288:	f090 0f00 	teq	r0, #0
   8928c:	bf04      	itt	eq
   8928e:	2100      	moveq	r1, #0
   89290:	4770      	bxeq	lr
   89292:	b530      	push	{r4, r5, lr}
   89294:	f44f 6480 	mov.w	r4, #1024	; 0x400
   89298:	f104 0432 	add.w	r4, r4, #50	; 0x32
   8929c:	f010 4500 	ands.w	r5, r0, #2147483648	; 0x80000000
   892a0:	bf48      	it	mi
   892a2:	4240      	negmi	r0, r0
   892a4:	f04f 0100 	mov.w	r1, #0
   892a8:	e73e      	b.n	89128 <__adddf3+0x138>
   892aa:	bf00      	nop

000892ac <__aeabi_f2d>:
   892ac:	0042      	lsls	r2, r0, #1
   892ae:	ea4f 01e2 	mov.w	r1, r2, asr #3
   892b2:	ea4f 0131 	mov.w	r1, r1, rrx
   892b6:	ea4f 7002 	mov.w	r0, r2, lsl #28
   892ba:	bf1f      	itttt	ne
   892bc:	f012 437f 	andsne.w	r3, r2, #4278190080	; 0xff000000
   892c0:	f093 4f7f 	teqne	r3, #4278190080	; 0xff000000
   892c4:	f081 5160 	eorne.w	r1, r1, #939524096	; 0x38000000
   892c8:	4770      	bxne	lr
   892ca:	f092 0f00 	teq	r2, #0
   892ce:	bf14      	ite	ne
   892d0:	f093 4f7f 	teqne	r3, #4278190080	; 0xff000000
   892d4:	4770      	bxeq	lr
   892d6:	b530      	push	{r4, r5, lr}
   892d8:	f44f 7460 	mov.w	r4, #896	; 0x380
   892dc:	f001 4500 	and.w	r5, r1, #2147483648	; 0x80000000
   892e0:	f021 4100 	bic.w	r1, r1, #2147483648	; 0x80000000
   892e4:	e720      	b.n	89128 <__adddf3+0x138>
   892e6:	bf00      	nop

000892e8 <__aeabi_ul2d>:
   892e8:	ea50 0201 	orrs.w	r2, r0, r1
   892ec:	bf08      	it	eq
   892ee:	4770      	bxeq	lr
   892f0:	b530      	push	{r4, r5, lr}
   892f2:	f04f 0500 	mov.w	r5, #0
   892f6:	e00a      	b.n	8930e <__aeabi_l2d+0x16>

000892f8 <__aeabi_l2d>:
   892f8:	ea50 0201 	orrs.w	r2, r0, r1
   892fc:	bf08      	it	eq
   892fe:	4770      	bxeq	lr
   89300:	b530      	push	{r4, r5, lr}
   89302:	f011 4500 	ands.w	r5, r1, #2147483648	; 0x80000000
   89306:	d502      	bpl.n	8930e <__aeabi_l2d+0x16>
   89308:	4240      	negs	r0, r0
   8930a:	eb61 0141 	sbc.w	r1, r1, r1, lsl #1
   8930e:	f44f 6480 	mov.w	r4, #1024	; 0x400
   89312:	f104 0432 	add.w	r4, r4, #50	; 0x32
   89316:	ea5f 5c91 	movs.w	ip, r1, lsr #22
   8931a:	f43f aedc 	beq.w	890d6 <__adddf3+0xe6>
   8931e:	f04f 0203 	mov.w	r2, #3
   89322:	ea5f 0cdc 	movs.w	ip, ip, lsr #3
   89326:	bf18      	it	ne
   89328:	3203      	addne	r2, #3
   8932a:	ea5f 0cdc 	movs.w	ip, ip, lsr #3
   8932e:	bf18      	it	ne
   89330:	3203      	addne	r2, #3
   89332:	eb02 02dc 	add.w	r2, r2, ip, lsr #3
   89336:	f1c2 0320 	rsb	r3, r2, #32
   8933a:	fa00 fc03 	lsl.w	ip, r0, r3
   8933e:	fa20 f002 	lsr.w	r0, r0, r2
   89342:	fa01 fe03 	lsl.w	lr, r1, r3
   89346:	ea40 000e 	orr.w	r0, r0, lr
   8934a:	fa21 f102 	lsr.w	r1, r1, r2
   8934e:	4414      	add	r4, r2
   89350:	e6c1      	b.n	890d6 <__adddf3+0xe6>
   89352:	bf00      	nop

00089354 <__aeabi_dmul>:
   89354:	b570      	push	{r4, r5, r6, lr}
   89356:	f04f 0cff 	mov.w	ip, #255	; 0xff
   8935a:	f44c 6ce0 	orr.w	ip, ip, #1792	; 0x700
   8935e:	ea1c 5411 	ands.w	r4, ip, r1, lsr #20
   89362:	bf1d      	ittte	ne
   89364:	ea1c 5513 	andsne.w	r5, ip, r3, lsr #20
   89368:	ea94 0f0c 	teqne	r4, ip
   8936c:	ea95 0f0c 	teqne	r5, ip
   89370:	f000 f8de 	bleq	89530 <__aeabi_dmul+0x1dc>
   89374:	442c      	add	r4, r5
   89376:	ea81 0603 	eor.w	r6, r1, r3
   8937a:	ea21 514c 	bic.w	r1, r1, ip, lsl #21
   8937e:	ea23 534c 	bic.w	r3, r3, ip, lsl #21
   89382:	ea50 3501 	orrs.w	r5, r0, r1, lsl #12
   89386:	bf18      	it	ne
   89388:	ea52 3503 	orrsne.w	r5, r2, r3, lsl #12
   8938c:	f441 1180 	orr.w	r1, r1, #1048576	; 0x100000
   89390:	f443 1380 	orr.w	r3, r3, #1048576	; 0x100000
   89394:	d038      	beq.n	89408 <__aeabi_dmul+0xb4>
   89396:	fba0 ce02 	umull	ip, lr, r0, r2
   8939a:	f04f 0500 	mov.w	r5, #0
   8939e:	fbe1 e502 	umlal	lr, r5, r1, r2
   893a2:	f006 4200 	and.w	r2, r6, #2147483648	; 0x80000000
   893a6:	fbe0 e503 	umlal	lr, r5, r0, r3
   893aa:	f04f 0600 	mov.w	r6, #0
   893ae:	fbe1 5603 	umlal	r5, r6, r1, r3
   893b2:	f09c 0f00 	teq	ip, #0
   893b6:	bf18      	it	ne
   893b8:	f04e 0e01 	orrne.w	lr, lr, #1
   893bc:	f1a4 04ff 	sub.w	r4, r4, #255	; 0xff
   893c0:	f5b6 7f00 	cmp.w	r6, #512	; 0x200
   893c4:	f564 7440 	sbc.w	r4, r4, #768	; 0x300
   893c8:	d204      	bcs.n	893d4 <__aeabi_dmul+0x80>
   893ca:	ea5f 0e4e 	movs.w	lr, lr, lsl #1
   893ce:	416d      	adcs	r5, r5
   893d0:	eb46 0606 	adc.w	r6, r6, r6
   893d4:	ea42 21c6 	orr.w	r1, r2, r6, lsl #11
   893d8:	ea41 5155 	orr.w	r1, r1, r5, lsr #21
   893dc:	ea4f 20c5 	mov.w	r0, r5, lsl #11
   893e0:	ea40 505e 	orr.w	r0, r0, lr, lsr #21
   893e4:	ea4f 2ece 	mov.w	lr, lr, lsl #11
   893e8:	f1b4 0cfd 	subs.w	ip, r4, #253	; 0xfd
   893ec:	bf88      	it	hi
   893ee:	f5bc 6fe0 	cmphi.w	ip, #1792	; 0x700
   893f2:	d81e      	bhi.n	89432 <__aeabi_dmul+0xde>
   893f4:	f1be 4f00 	cmp.w	lr, #2147483648	; 0x80000000
   893f8:	bf08      	it	eq
   893fa:	ea5f 0e50 	movseq.w	lr, r0, lsr #1
   893fe:	f150 0000 	adcs.w	r0, r0, #0
   89402:	eb41 5104 	adc.w	r1, r1, r4, lsl #20
   89406:	bd70      	pop	{r4, r5, r6, pc}
   89408:	f006 4600 	and.w	r6, r6, #2147483648	; 0x80000000
   8940c:	ea46 0101 	orr.w	r1, r6, r1
   89410:	ea40 0002 	orr.w	r0, r0, r2
   89414:	ea81 0103 	eor.w	r1, r1, r3
   89418:	ebb4 045c 	subs.w	r4, r4, ip, lsr #1
   8941c:	bfc2      	ittt	gt
   8941e:	ebd4 050c 	rsbsgt	r5, r4, ip
   89422:	ea41 5104 	orrgt.w	r1, r1, r4, lsl #20
   89426:	bd70      	popgt	{r4, r5, r6, pc}
   89428:	f441 1180 	orr.w	r1, r1, #1048576	; 0x100000
   8942c:	f04f 0e00 	mov.w	lr, #0
   89430:	3c01      	subs	r4, #1
   89432:	f300 80ab 	bgt.w	8958c <__aeabi_dmul+0x238>
   89436:	f114 0f36 	cmn.w	r4, #54	; 0x36
   8943a:	bfde      	ittt	le
   8943c:	2000      	movle	r0, #0
   8943e:	f001 4100 	andle.w	r1, r1, #2147483648	; 0x80000000
   89442:	bd70      	pople	{r4, r5, r6, pc}
   89444:	f1c4 0400 	rsb	r4, r4, #0
   89448:	3c20      	subs	r4, #32
   8944a:	da35      	bge.n	894b8 <__aeabi_dmul+0x164>
   8944c:	340c      	adds	r4, #12
   8944e:	dc1b      	bgt.n	89488 <__aeabi_dmul+0x134>
   89450:	f104 0414 	add.w	r4, r4, #20
   89454:	f1c4 0520 	rsb	r5, r4, #32
   89458:	fa00 f305 	lsl.w	r3, r0, r5
   8945c:	fa20 f004 	lsr.w	r0, r0, r4
   89460:	fa01 f205 	lsl.w	r2, r1, r5
   89464:	ea40 0002 	orr.w	r0, r0, r2
   89468:	f001 4200 	and.w	r2, r1, #2147483648	; 0x80000000
   8946c:	f021 4100 	bic.w	r1, r1, #2147483648	; 0x80000000
   89470:	eb10 70d3 	adds.w	r0, r0, r3, lsr #31
   89474:	fa21 f604 	lsr.w	r6, r1, r4
   89478:	eb42 0106 	adc.w	r1, r2, r6
   8947c:	ea5e 0e43 	orrs.w	lr, lr, r3, lsl #1
   89480:	bf08      	it	eq
   89482:	ea20 70d3 	biceq.w	r0, r0, r3, lsr #31
   89486:	bd70      	pop	{r4, r5, r6, pc}
   89488:	f1c4 040c 	rsb	r4, r4, #12
   8948c:	f1c4 0520 	rsb	r5, r4, #32
   89490:	fa00 f304 	lsl.w	r3, r0, r4
   89494:	fa20 f005 	lsr.w	r0, r0, r5
   89498:	fa01 f204 	lsl.w	r2, r1, r4
   8949c:	ea40 0002 	orr.w	r0, r0, r2
   894a0:	f001 4100 	and.w	r1, r1, #2147483648	; 0x80000000
   894a4:	eb10 70d3 	adds.w	r0, r0, r3, lsr #31
   894a8:	f141 0100 	adc.w	r1, r1, #0
   894ac:	ea5e 0e43 	orrs.w	lr, lr, r3, lsl #1
   894b0:	bf08      	it	eq
   894b2:	ea20 70d3 	biceq.w	r0, r0, r3, lsr #31
   894b6:	bd70      	pop	{r4, r5, r6, pc}
   894b8:	f1c4 0520 	rsb	r5, r4, #32
   894bc:	fa00 f205 	lsl.w	r2, r0, r5
   894c0:	ea4e 0e02 	orr.w	lr, lr, r2
   894c4:	fa20 f304 	lsr.w	r3, r0, r4
   894c8:	fa01 f205 	lsl.w	r2, r1, r5
   894cc:	ea43 0302 	orr.w	r3, r3, r2
   894d0:	fa21 f004 	lsr.w	r0, r1, r4
   894d4:	f001 4100 	and.w	r1, r1, #2147483648	; 0x80000000
   894d8:	fa21 f204 	lsr.w	r2, r1, r4
   894dc:	ea20 0002 	bic.w	r0, r0, r2
   894e0:	eb00 70d3 	add.w	r0, r0, r3, lsr #31
   894e4:	ea5e 0e43 	orrs.w	lr, lr, r3, lsl #1
   894e8:	bf08      	it	eq
   894ea:	ea20 70d3 	biceq.w	r0, r0, r3, lsr #31
   894ee:	bd70      	pop	{r4, r5, r6, pc}
   894f0:	f094 0f00 	teq	r4, #0
   894f4:	d10f      	bne.n	89516 <__aeabi_dmul+0x1c2>
   894f6:	f001 4600 	and.w	r6, r1, #2147483648	; 0x80000000
   894fa:	0040      	lsls	r0, r0, #1
   894fc:	eb41 0101 	adc.w	r1, r1, r1
   89500:	f411 1f80 	tst.w	r1, #1048576	; 0x100000
   89504:	bf08      	it	eq
   89506:	3c01      	subeq	r4, #1
   89508:	d0f7      	beq.n	894fa <__aeabi_dmul+0x1a6>
   8950a:	ea41 0106 	orr.w	r1, r1, r6
   8950e:	f095 0f00 	teq	r5, #0
   89512:	bf18      	it	ne
   89514:	4770      	bxne	lr
   89516:	f003 4600 	and.w	r6, r3, #2147483648	; 0x80000000
   8951a:	0052      	lsls	r2, r2, #1
   8951c:	eb43 0303 	adc.w	r3, r3, r3
   89520:	f413 1f80 	tst.w	r3, #1048576	; 0x100000
   89524:	bf08      	it	eq
   89526:	3d01      	subeq	r5, #1
   89528:	d0f7      	beq.n	8951a <__aeabi_dmul+0x1c6>
   8952a:	ea43 0306 	orr.w	r3, r3, r6
   8952e:	4770      	bx	lr
   89530:	ea94 0f0c 	teq	r4, ip
   89534:	ea0c 5513 	and.w	r5, ip, r3, lsr #20
   89538:	bf18      	it	ne
   8953a:	ea95 0f0c 	teqne	r5, ip
   8953e:	d00c      	beq.n	8955a <__aeabi_dmul+0x206>
   89540:	ea50 0641 	orrs.w	r6, r0, r1, lsl #1
   89544:	bf18      	it	ne
   89546:	ea52 0643 	orrsne.w	r6, r2, r3, lsl #1
   8954a:	d1d1      	bne.n	894f0 <__aeabi_dmul+0x19c>
   8954c:	ea81 0103 	eor.w	r1, r1, r3
   89550:	f001 4100 	and.w	r1, r1, #2147483648	; 0x80000000
   89554:	f04f 0000 	mov.w	r0, #0
   89558:	bd70      	pop	{r4, r5, r6, pc}
   8955a:	ea50 0641 	orrs.w	r6, r0, r1, lsl #1
   8955e:	bf06      	itte	eq
   89560:	4610      	moveq	r0, r2
   89562:	4619      	moveq	r1, r3
   89564:	ea52 0643 	orrsne.w	r6, r2, r3, lsl #1
   89568:	d019      	beq.n	8959e <__aeabi_dmul+0x24a>
   8956a:	ea94 0f0c 	teq	r4, ip
   8956e:	d102      	bne.n	89576 <__aeabi_dmul+0x222>
   89570:	ea50 3601 	orrs.w	r6, r0, r1, lsl #12
   89574:	d113      	bne.n	8959e <__aeabi_dmul+0x24a>
   89576:	ea95 0f0c 	teq	r5, ip
   8957a:	d105      	bne.n	89588 <__aeabi_dmul+0x234>
   8957c:	ea52 3603 	orrs.w	r6, r2, r3, lsl #12
   89580:	bf1c      	itt	ne
   89582:	4610      	movne	r0, r2
   89584:	4619      	movne	r1, r3
   89586:	d10a      	bne.n	8959e <__aeabi_dmul+0x24a>
   89588:	ea81 0103 	eor.w	r1, r1, r3
   8958c:	f001 4100 	and.w	r1, r1, #2147483648	; 0x80000000
   89590:	f041 41fe 	orr.w	r1, r1, #2130706432	; 0x7f000000
   89594:	f441 0170 	orr.w	r1, r1, #15728640	; 0xf00000
   89598:	f04f 0000 	mov.w	r0, #0
   8959c:	bd70      	pop	{r4, r5, r6, pc}
   8959e:	f041 41fe 	orr.w	r1, r1, #2130706432	; 0x7f000000
   895a2:	f441 0178 	orr.w	r1, r1, #16252928	; 0xf80000
   895a6:	bd70      	pop	{r4, r5, r6, pc}

000895a8 <__aeabi_ddiv>:
   895a8:	b570      	push	{r4, r5, r6, lr}
   895aa:	f04f 0cff 	mov.w	ip, #255	; 0xff
   895ae:	f44c 6ce0 	orr.w	ip, ip, #1792	; 0x700
   895b2:	ea1c 5411 	ands.w	r4, ip, r1, lsr #20
   895b6:	bf1d      	ittte	ne
   895b8:	ea1c 5513 	andsne.w	r5, ip, r3, lsr #20
   895bc:	ea94 0f0c 	teqne	r4, ip
   895c0:	ea95 0f0c 	teqne	r5, ip
   895c4:	f000 f8a7 	bleq	89716 <__aeabi_ddiv+0x16e>
   895c8:	eba4 0405 	sub.w	r4, r4, r5
   895cc:	ea81 0e03 	eor.w	lr, r1, r3
   895d0:	ea52 3503 	orrs.w	r5, r2, r3, lsl #12
   895d4:	ea4f 3101 	mov.w	r1, r1, lsl #12
   895d8:	f000 8088 	beq.w	896ec <__aeabi_ddiv+0x144>
   895dc:	ea4f 3303 	mov.w	r3, r3, lsl #12
   895e0:	f04f 5580 	mov.w	r5, #268435456	; 0x10000000
   895e4:	ea45 1313 	orr.w	r3, r5, r3, lsr #4
   895e8:	ea43 6312 	orr.w	r3, r3, r2, lsr #24
   895ec:	ea4f 2202 	mov.w	r2, r2, lsl #8
   895f0:	ea45 1511 	orr.w	r5, r5, r1, lsr #4
   895f4:	ea45 6510 	orr.w	r5, r5, r0, lsr #24
   895f8:	ea4f 2600 	mov.w	r6, r0, lsl #8
   895fc:	f00e 4100 	and.w	r1, lr, #2147483648	; 0x80000000
   89600:	429d      	cmp	r5, r3
   89602:	bf08      	it	eq
   89604:	4296      	cmpeq	r6, r2
   89606:	f144 04fd 	adc.w	r4, r4, #253	; 0xfd
   8960a:	f504 7440 	add.w	r4, r4, #768	; 0x300
   8960e:	d202      	bcs.n	89616 <__aeabi_ddiv+0x6e>
   89610:	085b      	lsrs	r3, r3, #1
   89612:	ea4f 0232 	mov.w	r2, r2, rrx
   89616:	1ab6      	subs	r6, r6, r2
   89618:	eb65 0503 	sbc.w	r5, r5, r3
   8961c:	085b      	lsrs	r3, r3, #1
   8961e:	ea4f 0232 	mov.w	r2, r2, rrx
   89622:	f44f 1080 	mov.w	r0, #1048576	; 0x100000
   89626:	f44f 2c00 	mov.w	ip, #524288	; 0x80000
   8962a:	ebb6 0e02 	subs.w	lr, r6, r2
   8962e:	eb75 0e03 	sbcs.w	lr, r5, r3
   89632:	bf22      	ittt	cs
   89634:	1ab6      	subcs	r6, r6, r2
   89636:	4675      	movcs	r5, lr
   89638:	ea40 000c 	orrcs.w	r0, r0, ip
   8963c:	085b      	lsrs	r3, r3, #1
   8963e:	ea4f 0232 	mov.w	r2, r2, rrx
   89642:	ebb6 0e02 	subs.w	lr, r6, r2
   89646:	eb75 0e03 	sbcs.w	lr, r5, r3
   8964a:	bf22      	ittt	cs
   8964c:	1ab6      	subcs	r6, r6, r2
   8964e:	4675      	movcs	r5, lr
   89650:	ea40 005c 	orrcs.w	r0, r0, ip, lsr #1
   89654:	085b      	lsrs	r3, r3, #1
   89656:	ea4f 0232 	mov.w	r2, r2, rrx
   8965a:	ebb6 0e02 	subs.w	lr, r6, r2
   8965e:	eb75 0e03 	sbcs.w	lr, r5, r3
   89662:	bf22      	ittt	cs
   89664:	1ab6      	subcs	r6, r6, r2
   89666:	4675      	movcs	r5, lr
   89668:	ea40 009c 	orrcs.w	r0, r0, ip, lsr #2
   8966c:	085b      	lsrs	r3, r3, #1
   8966e:	ea4f 0232 	mov.w	r2, r2, rrx
   89672:	ebb6 0e02 	subs.w	lr, r6, r2
   89676:	eb75 0e03 	sbcs.w	lr, r5, r3
   8967a:	bf22      	ittt	cs
   8967c:	1ab6      	subcs	r6, r6, r2
   8967e:	4675      	movcs	r5, lr
   89680:	ea40 00dc 	orrcs.w	r0, r0, ip, lsr #3
   89684:	ea55 0e06 	orrs.w	lr, r5, r6
   89688:	d018      	beq.n	896bc <__aeabi_ddiv+0x114>
   8968a:	ea4f 1505 	mov.w	r5, r5, lsl #4
   8968e:	ea45 7516 	orr.w	r5, r5, r6, lsr #28
   89692:	ea4f 1606 	mov.w	r6, r6, lsl #4
   89696:	ea4f 03c3 	mov.w	r3, r3, lsl #3
   8969a:	ea43 7352 	orr.w	r3, r3, r2, lsr #29
   8969e:	ea4f 02c2 	mov.w	r2, r2, lsl #3
   896a2:	ea5f 1c1c 	movs.w	ip, ip, lsr #4
   896a6:	d1c0      	bne.n	8962a <__aeabi_ddiv+0x82>
   896a8:	f411 1f80 	tst.w	r1, #1048576	; 0x100000
   896ac:	d10b      	bne.n	896c6 <__aeabi_ddiv+0x11e>
   896ae:	ea41 0100 	orr.w	r1, r1, r0
   896b2:	f04f 0000 	mov.w	r0, #0
   896b6:	f04f 4c00 	mov.w	ip, #2147483648	; 0x80000000
   896ba:	e7b6      	b.n	8962a <__aeabi_ddiv+0x82>
   896bc:	f411 1f80 	tst.w	r1, #1048576	; 0x100000
   896c0:	bf04      	itt	eq
   896c2:	4301      	orreq	r1, r0
   896c4:	2000      	moveq	r0, #0
   896c6:	f1b4 0cfd 	subs.w	ip, r4, #253	; 0xfd
   896ca:	bf88      	it	hi
   896cc:	f5bc 6fe0 	cmphi.w	ip, #1792	; 0x700
   896d0:	f63f aeaf 	bhi.w	89432 <__aeabi_dmul+0xde>
   896d4:	ebb5 0c03 	subs.w	ip, r5, r3
   896d8:	bf04      	itt	eq
   896da:	ebb6 0c02 	subseq.w	ip, r6, r2
   896de:	ea5f 0c50 	movseq.w	ip, r0, lsr #1
   896e2:	f150 0000 	adcs.w	r0, r0, #0
   896e6:	eb41 5104 	adc.w	r1, r1, r4, lsl #20
   896ea:	bd70      	pop	{r4, r5, r6, pc}
   896ec:	f00e 4e00 	and.w	lr, lr, #2147483648	; 0x80000000
   896f0:	ea4e 3111 	orr.w	r1, lr, r1, lsr #12
   896f4:	eb14 045c 	adds.w	r4, r4, ip, lsr #1
   896f8:	bfc2      	ittt	gt
   896fa:	ebd4 050c 	rsbsgt	r5, r4, ip
   896fe:	ea41 5104 	orrgt.w	r1, r1, r4, lsl #20
   89702:	bd70      	popgt	{r4, r5, r6, pc}
   89704:	f441 1180 	orr.w	r1, r1, #1048576	; 0x100000
   89708:	f04f 0e00 	mov.w	lr, #0
   8970c:	3c01      	subs	r4, #1
   8970e:	e690      	b.n	89432 <__aeabi_dmul+0xde>
   89710:	ea45 0e06 	orr.w	lr, r5, r6
   89714:	e68d      	b.n	89432 <__aeabi_dmul+0xde>
   89716:	ea0c 5513 	and.w	r5, ip, r3, lsr #20
   8971a:	ea94 0f0c 	teq	r4, ip
   8971e:	bf08      	it	eq
   89720:	ea95 0f0c 	teqeq	r5, ip
   89724:	f43f af3b 	beq.w	8959e <__aeabi_dmul+0x24a>
   89728:	ea94 0f0c 	teq	r4, ip
   8972c:	d10a      	bne.n	89744 <__aeabi_ddiv+0x19c>
   8972e:	ea50 3401 	orrs.w	r4, r0, r1, lsl #12
   89732:	f47f af34 	bne.w	8959e <__aeabi_dmul+0x24a>
   89736:	ea95 0f0c 	teq	r5, ip
   8973a:	f47f af25 	bne.w	89588 <__aeabi_dmul+0x234>
   8973e:	4610      	mov	r0, r2
   89740:	4619      	mov	r1, r3
   89742:	e72c      	b.n	8959e <__aeabi_dmul+0x24a>
   89744:	ea95 0f0c 	teq	r5, ip
   89748:	d106      	bne.n	89758 <__aeabi_ddiv+0x1b0>
   8974a:	ea52 3503 	orrs.w	r5, r2, r3, lsl #12
   8974e:	f43f aefd 	beq.w	8954c <__aeabi_dmul+0x1f8>
   89752:	4610      	mov	r0, r2
   89754:	4619      	mov	r1, r3
   89756:	e722      	b.n	8959e <__aeabi_dmul+0x24a>
   89758:	ea50 0641 	orrs.w	r6, r0, r1, lsl #1
   8975c:	bf18      	it	ne
   8975e:	ea52 0643 	orrsne.w	r6, r2, r3, lsl #1
   89762:	f47f aec5 	bne.w	894f0 <__aeabi_dmul+0x19c>
   89766:	ea50 0441 	orrs.w	r4, r0, r1, lsl #1
   8976a:	f47f af0d 	bne.w	89588 <__aeabi_dmul+0x234>
   8976e:	ea52 0543 	orrs.w	r5, r2, r3, lsl #1
   89772:	f47f aeeb 	bne.w	8954c <__aeabi_dmul+0x1f8>
   89776:	e712      	b.n	8959e <__aeabi_dmul+0x24a>

00089778 <__gedf2>:
   89778:	f04f 3cff 	mov.w	ip, #4294967295	; 0xffffffff
   8977c:	e006      	b.n	8978c <__cmpdf2+0x4>
   8977e:	bf00      	nop

00089780 <__ledf2>:
   89780:	f04f 0c01 	mov.w	ip, #1
   89784:	e002      	b.n	8978c <__cmpdf2+0x4>
   89786:	bf00      	nop

00089788 <__cmpdf2>:
   89788:	f04f 0c01 	mov.w	ip, #1
   8978c:	f84d cd04 	str.w	ip, [sp, #-4]!
   89790:	ea4f 0c41 	mov.w	ip, r1, lsl #1
   89794:	ea7f 5c6c 	mvns.w	ip, ip, asr #21
   89798:	ea4f 0c43 	mov.w	ip, r3, lsl #1
   8979c:	bf18      	it	ne
   8979e:	ea7f 5c6c 	mvnsne.w	ip, ip, asr #21
   897a2:	d01b      	beq.n	897dc <__cmpdf2+0x54>
   897a4:	b001      	add	sp, #4
   897a6:	ea50 0c41 	orrs.w	ip, r0, r1, lsl #1
   897aa:	bf0c      	ite	eq
   897ac:	ea52 0c43 	orrseq.w	ip, r2, r3, lsl #1
   897b0:	ea91 0f03 	teqne	r1, r3
   897b4:	bf02      	ittt	eq
   897b6:	ea90 0f02 	teqeq	r0, r2
   897ba:	2000      	moveq	r0, #0
   897bc:	4770      	bxeq	lr
   897be:	f110 0f00 	cmn.w	r0, #0
   897c2:	ea91 0f03 	teq	r1, r3
   897c6:	bf58      	it	pl
   897c8:	4299      	cmppl	r1, r3
   897ca:	bf08      	it	eq
   897cc:	4290      	cmpeq	r0, r2
   897ce:	bf2c      	ite	cs
   897d0:	17d8      	asrcs	r0, r3, #31
   897d2:	ea6f 70e3 	mvncc.w	r0, r3, asr #31
   897d6:	f040 0001 	orr.w	r0, r0, #1
   897da:	4770      	bx	lr
   897dc:	ea4f 0c41 	mov.w	ip, r1, lsl #1
   897e0:	ea7f 5c6c 	mvns.w	ip, ip, asr #21
   897e4:	d102      	bne.n	897ec <__cmpdf2+0x64>
   897e6:	ea50 3c01 	orrs.w	ip, r0, r1, lsl #12
   897ea:	d107      	bne.n	897fc <__cmpdf2+0x74>
   897ec:	ea4f 0c43 	mov.w	ip, r3, lsl #1
   897f0:	ea7f 5c6c 	mvns.w	ip, ip, asr #21
   897f4:	d1d6      	bne.n	897a4 <__cmpdf2+0x1c>
   897f6:	ea52 3c03 	orrs.w	ip, r2, r3, lsl #12
   897fa:	d0d3      	beq.n	897a4 <__cmpdf2+0x1c>
   897fc:	f85d 0b04 	ldr.w	r0, [sp], #4
   89800:	4770      	bx	lr
   89802:	bf00      	nop

00089804 <__aeabi_cdrcmple>:
   89804:	4684      	mov	ip, r0
   89806:	4610      	mov	r0, r2
   89808:	4662      	mov	r2, ip
   8980a:	468c      	mov	ip, r1
   8980c:	4619      	mov	r1, r3
   8980e:	4663      	mov	r3, ip
   89810:	e000      	b.n	89814 <__aeabi_cdcmpeq>
   89812:	bf00      	nop

00089814 <__aeabi_cdcmpeq>:
   89814:	b501      	push	{r0, lr}
   89816:	f7ff ffb7 	bl	89788 <__cmpdf2>
   8981a:	2800      	cmp	r0, #0
   8981c:	bf48      	it	mi
   8981e:	f110 0f00 	cmnmi.w	r0, #0
   89822:	bd01      	pop	{r0, pc}

00089824 <__aeabi_dcmpeq>:
   89824:	f84d ed08 	str.w	lr, [sp, #-8]!
   89828:	f7ff fff4 	bl	89814 <__aeabi_cdcmpeq>
   8982c:	bf0c      	ite	eq
   8982e:	2001      	moveq	r0, #1
   89830:	2000      	movne	r0, #0
   89832:	f85d fb08 	ldr.w	pc, [sp], #8
   89836:	bf00      	nop

00089838 <__aeabi_dcmplt>:
   89838:	f84d ed08 	str.w	lr, [sp, #-8]!
   8983c:	f7ff ffea 	bl	89814 <__aeabi_cdcmpeq>
   89840:	bf34      	ite	cc
   89842:	2001      	movcc	r0, #1
   89844:	2000      	movcs	r0, #0
   89846:	f85d fb08 	ldr.w	pc, [sp], #8
   8984a:	bf00      	nop

0008984c <__aeabi_dcmple>:
   8984c:	f84d ed08 	str.w	lr, [sp, #-8]!
   89850:	f7ff ffe0 	bl	89814 <__aeabi_cdcmpeq>
   89854:	bf94      	ite	ls
   89856:	2001      	movls	r0, #1
   89858:	2000      	movhi	r0, #0
   8985a:	f85d fb08 	ldr.w	pc, [sp], #8
   8985e:	bf00      	nop

00089860 <__aeabi_dcmpge>:
   89860:	f84d ed08 	str.w	lr, [sp, #-8]!
   89864:	f7ff ffce 	bl	89804 <__aeabi_cdrcmple>
   89868:	bf94      	ite	ls
   8986a:	2001      	movls	r0, #1
   8986c:	2000      	movhi	r0, #0
   8986e:	f85d fb08 	ldr.w	pc, [sp], #8
   89872:	bf00      	nop

00089874 <__aeabi_dcmpgt>:
   89874:	f84d ed08 	str.w	lr, [sp, #-8]!
   89878:	f7ff ffc4 	bl	89804 <__aeabi_cdrcmple>
   8987c:	bf34      	ite	cc
   8987e:	2001      	movcc	r0, #1
   89880:	2000      	movcs	r0, #0
   89882:	f85d fb08 	ldr.w	pc, [sp], #8
   89886:	bf00      	nop

00089888 <__aeabi_d2iz>:
   89888:	ea4f 0241 	mov.w	r2, r1, lsl #1
   8988c:	f512 1200 	adds.w	r2, r2, #2097152	; 0x200000
   89890:	d215      	bcs.n	898be <__aeabi_d2iz+0x36>
   89892:	d511      	bpl.n	898b8 <__aeabi_d2iz+0x30>
   89894:	f46f 7378 	mvn.w	r3, #992	; 0x3e0
   89898:	ebb3 5262 	subs.w	r2, r3, r2, asr #21
   8989c:	d912      	bls.n	898c4 <__aeabi_d2iz+0x3c>
   8989e:	ea4f 23c1 	mov.w	r3, r1, lsl #11
   898a2:	f043 4300 	orr.w	r3, r3, #2147483648	; 0x80000000
   898a6:	ea43 5350 	orr.w	r3, r3, r0, lsr #21
   898aa:	f011 4f00 	tst.w	r1, #2147483648	; 0x80000000
   898ae:	fa23 f002 	lsr.w	r0, r3, r2
   898b2:	bf18      	it	ne
   898b4:	4240      	negne	r0, r0
   898b6:	4770      	bx	lr
   898b8:	f04f 0000 	mov.w	r0, #0
   898bc:	4770      	bx	lr
   898be:	ea50 3001 	orrs.w	r0, r0, r1, lsl #12
   898c2:	d105      	bne.n	898d0 <__aeabi_d2iz+0x48>
   898c4:	f011 4000 	ands.w	r0, r1, #2147483648	; 0x80000000
   898c8:	bf08      	it	eq
   898ca:	f06f 4000 	mvneq.w	r0, #2147483648	; 0x80000000
   898ce:	4770      	bx	lr
   898d0:	f04f 0000 	mov.w	r0, #0
   898d4:	4770      	bx	lr
   898d6:	bf00      	nop

000898d8 <__aeabi_uldivmod>:
   898d8:	b953      	cbnz	r3, 898f0 <__aeabi_uldivmod+0x18>
   898da:	b94a      	cbnz	r2, 898f0 <__aeabi_uldivmod+0x18>
   898dc:	2900      	cmp	r1, #0
   898de:	bf08      	it	eq
   898e0:	2800      	cmpeq	r0, #0
   898e2:	bf1c      	itt	ne
   898e4:	f04f 31ff 	movne.w	r1, #4294967295	; 0xffffffff
   898e8:	f04f 30ff 	movne.w	r0, #4294967295	; 0xffffffff
   898ec:	f7ff bb78 	b.w	88fe0 <__aeabi_idiv0>
   898f0:	b082      	sub	sp, #8
   898f2:	46ec      	mov	ip, sp
   898f4:	e92d 5000 	stmdb	sp!, {ip, lr}
   898f8:	f000 f81e 	bl	89938 <__gnu_uldivmod_helper>
   898fc:	f8dd e004 	ldr.w	lr, [sp, #4]
   89900:	b002      	add	sp, #8
   89902:	bc0c      	pop	{r2, r3}
   89904:	4770      	bx	lr
   89906:	bf00      	nop

00089908 <__gnu_ldivmod_helper>:
   89908:	e92d 41f0 	stmdb	sp!, {r4, r5, r6, r7, r8, lr}
   8990c:	9c06      	ldr	r4, [sp, #24]
   8990e:	4690      	mov	r8, r2
   89910:	4606      	mov	r6, r0
   89912:	460f      	mov	r7, r1
   89914:	461d      	mov	r5, r3
   89916:	f000 f827 	bl	89968 <__divdi3>
   8991a:	fb08 fc01 	mul.w	ip, r8, r1
   8991e:	fba8 2300 	umull	r2, r3, r8, r0
   89922:	fb00 c505 	mla	r5, r0, r5, ip
   89926:	1ab2      	subs	r2, r6, r2
   89928:	442b      	add	r3, r5
   8992a:	eb67 0303 	sbc.w	r3, r7, r3
   8992e:	4686      	mov	lr, r0
   89930:	e9c4 2300 	strd	r2, r3, [r4]
   89934:	e8bd 81f0 	ldmia.w	sp!, {r4, r5, r6, r7, r8, pc}

00089938 <__gnu_uldivmod_helper>:
   89938:	e92d 43f8 	stmdb	sp!, {r3, r4, r5, r6, r7, r8, r9, lr}
   8993c:	9e08      	ldr	r6, [sp, #32]
   8993e:	4617      	mov	r7, r2
   89940:	4680      	mov	r8, r0
   89942:	4689      	mov	r9, r1
   89944:	461d      	mov	r5, r3
   89946:	f000 f965 	bl	89c14 <__udivdi3>
   8994a:	fb00 f305 	mul.w	r3, r0, r5
   8994e:	fba0 4507 	umull	r4, r5, r0, r7
   89952:	fb07 3701 	mla	r7, r7, r1, r3
   89956:	ebb8 0404 	subs.w	r4, r8, r4
   8995a:	443d      	add	r5, r7
   8995c:	eb69 0505 	sbc.w	r5, r9, r5
   89960:	e9c6 4500 	strd	r4, r5, [r6]
   89964:	e8bd 83f8 	ldmia.w	sp!, {r3, r4, r5, r6, r7, r8, r9, pc}

00089968 <__divdi3>:
   89968:	2900      	cmp	r1, #0
   8996a:	e92d 43f0 	stmdb	sp!, {r4, r5, r6, r7, r8, r9, lr}
   8996e:	f2c0 80a8 	blt.w	89ac2 <__divdi3+0x15a>
   89972:	2600      	movs	r6, #0
   89974:	2b00      	cmp	r3, #0
   89976:	f2c0 809e 	blt.w	89ab6 <__divdi3+0x14e>
   8997a:	4681      	mov	r9, r0
   8997c:	468e      	mov	lr, r1
   8997e:	4690      	mov	r8, r2
   89980:	469c      	mov	ip, r3
   89982:	4617      	mov	r7, r2
   89984:	4604      	mov	r4, r0
   89986:	460d      	mov	r5, r1
   89988:	2b00      	cmp	r3, #0
   8998a:	d13d      	bne.n	89a08 <__divdi3+0xa0>
   8998c:	428a      	cmp	r2, r1
   8998e:	d959      	bls.n	89a44 <__divdi3+0xdc>
   89990:	fab2 f382 	clz	r3, r2
   89994:	b13b      	cbz	r3, 899a6 <__divdi3+0x3e>
   89996:	f1c3 0220 	rsb	r2, r3, #32
   8999a:	409d      	lsls	r5, r3
   8999c:	fa20 f202 	lsr.w	r2, r0, r2
   899a0:	409f      	lsls	r7, r3
   899a2:	4315      	orrs	r5, r2
   899a4:	409c      	lsls	r4, r3
   899a6:	0c39      	lsrs	r1, r7, #16
   899a8:	fbb5 f0f1 	udiv	r0, r5, r1
   899ac:	fa1f fe87 	uxth.w	lr, r7
   899b0:	fb01 5510 	mls	r5, r1, r0, r5
   899b4:	fb0e f300 	mul.w	r3, lr, r0
   899b8:	0c22      	lsrs	r2, r4, #16
   899ba:	ea42 4505 	orr.w	r5, r2, r5, lsl #16
   899be:	42ab      	cmp	r3, r5
   899c0:	d909      	bls.n	899d6 <__divdi3+0x6e>
   899c2:	19ed      	adds	r5, r5, r7
   899c4:	f100 32ff 	add.w	r2, r0, #4294967295	; 0xffffffff
   899c8:	f080 810b 	bcs.w	89be2 <__divdi3+0x27a>
   899cc:	42ab      	cmp	r3, r5
   899ce:	f240 8108 	bls.w	89be2 <__divdi3+0x27a>
   899d2:	3802      	subs	r0, #2
   899d4:	443d      	add	r5, r7
   899d6:	1aed      	subs	r5, r5, r3
   899d8:	fbb5 f3f1 	udiv	r3, r5, r1
   899dc:	fb01 5513 	mls	r5, r1, r3, r5
   899e0:	fb0e fe03 	mul.w	lr, lr, r3
   899e4:	b2a4      	uxth	r4, r4
   899e6:	ea44 4505 	orr.w	r5, r4, r5, lsl #16
   899ea:	45ae      	cmp	lr, r5
   899ec:	d908      	bls.n	89a00 <__divdi3+0x98>
   899ee:	19ed      	adds	r5, r5, r7
   899f0:	f103 32ff 	add.w	r2, r3, #4294967295	; 0xffffffff
   899f4:	f080 80f7 	bcs.w	89be6 <__divdi3+0x27e>
   899f8:	45ae      	cmp	lr, r5
   899fa:	f240 80f4 	bls.w	89be6 <__divdi3+0x27e>
   899fe:	3b02      	subs	r3, #2
   89a00:	ea43 4300 	orr.w	r3, r3, r0, lsl #16
   89a04:	2200      	movs	r2, #0
   89a06:	e003      	b.n	89a10 <__divdi3+0xa8>
   89a08:	428b      	cmp	r3, r1
   89a0a:	d90f      	bls.n	89a2c <__divdi3+0xc4>
   89a0c:	2200      	movs	r2, #0
   89a0e:	4613      	mov	r3, r2
   89a10:	1c34      	adds	r4, r6, #0
   89a12:	bf18      	it	ne
   89a14:	2401      	movne	r4, #1
   89a16:	4260      	negs	r0, r4
   89a18:	f04f 0500 	mov.w	r5, #0
   89a1c:	eb65 0145 	sbc.w	r1, r5, r5, lsl #1
   89a20:	4058      	eors	r0, r3
   89a22:	4051      	eors	r1, r2
   89a24:	1900      	adds	r0, r0, r4
   89a26:	4169      	adcs	r1, r5
   89a28:	e8bd 83f0 	ldmia.w	sp!, {r4, r5, r6, r7, r8, r9, pc}
   89a2c:	fab3 f283 	clz	r2, r3
   89a30:	2a00      	cmp	r2, #0
   89a32:	f040 8089 	bne.w	89b48 <__divdi3+0x1e0>
   89a36:	428b      	cmp	r3, r1
   89a38:	d302      	bcc.n	89a40 <__divdi3+0xd8>
   89a3a:	4580      	cmp	r8, r0
   89a3c:	f200 80e2 	bhi.w	89c04 <__divdi3+0x29c>
   89a40:	2301      	movs	r3, #1
   89a42:	e7e5      	b.n	89a10 <__divdi3+0xa8>
   89a44:	b912      	cbnz	r2, 89a4c <__divdi3+0xe4>
   89a46:	2301      	movs	r3, #1
   89a48:	fbb3 f7f2 	udiv	r7, r3, r2
   89a4c:	fab7 f887 	clz	r8, r7
   89a50:	f1b8 0f00 	cmp.w	r8, #0
   89a54:	d13b      	bne.n	89ace <__divdi3+0x166>
   89a56:	1bed      	subs	r5, r5, r7
   89a58:	ea4f 4c17 	mov.w	ip, r7, lsr #16
   89a5c:	fa1f fe87 	uxth.w	lr, r7
   89a60:	2201      	movs	r2, #1
   89a62:	fbb5 f0fc 	udiv	r0, r5, ip
   89a66:	fb0c 5510 	mls	r5, ip, r0, r5
   89a6a:	fb0e f300 	mul.w	r3, lr, r0
   89a6e:	0c21      	lsrs	r1, r4, #16
   89a70:	ea41 4505 	orr.w	r5, r1, r5, lsl #16
   89a74:	42ab      	cmp	r3, r5
   89a76:	d907      	bls.n	89a88 <__divdi3+0x120>
   89a78:	19ed      	adds	r5, r5, r7
   89a7a:	f100 31ff 	add.w	r1, r0, #4294967295	; 0xffffffff
   89a7e:	d202      	bcs.n	89a86 <__divdi3+0x11e>
   89a80:	42ab      	cmp	r3, r5
   89a82:	f200 80c3 	bhi.w	89c0c <__divdi3+0x2a4>
   89a86:	4608      	mov	r0, r1
   89a88:	1aed      	subs	r5, r5, r3
   89a8a:	fbb5 f3fc 	udiv	r3, r5, ip
   89a8e:	fb0c 5513 	mls	r5, ip, r3, r5
   89a92:	fb0e fe03 	mul.w	lr, lr, r3
   89a96:	b2a4      	uxth	r4, r4
   89a98:	ea44 4505 	orr.w	r5, r4, r5, lsl #16
   89a9c:	45ae      	cmp	lr, r5
   89a9e:	d907      	bls.n	89ab0 <__divdi3+0x148>
   89aa0:	19ed      	adds	r5, r5, r7
   89aa2:	f103 31ff 	add.w	r1, r3, #4294967295	; 0xffffffff
   89aa6:	d202      	bcs.n	89aae <__divdi3+0x146>
   89aa8:	45ae      	cmp	lr, r5
   89aaa:	f200 80ad 	bhi.w	89c08 <__divdi3+0x2a0>
   89aae:	460b      	mov	r3, r1
   89ab0:	ea43 4300 	orr.w	r3, r3, r0, lsl #16
   89ab4:	e7ac      	b.n	89a10 <__divdi3+0xa8>
   89ab6:	4252      	negs	r2, r2
   89ab8:	ea6f 0606 	mvn.w	r6, r6
   89abc:	eb63 0343 	sbc.w	r3, r3, r3, lsl #1
   89ac0:	e75b      	b.n	8997a <__divdi3+0x12>
   89ac2:	4240      	negs	r0, r0
   89ac4:	eb61 0141 	sbc.w	r1, r1, r1, lsl #1
   89ac8:	f04f 36ff 	mov.w	r6, #4294967295	; 0xffffffff
   89acc:	e752      	b.n	89974 <__divdi3+0xc>
   89ace:	fa07 f708 	lsl.w	r7, r7, r8
   89ad2:	f1c8 0220 	rsb	r2, r8, #32
   89ad6:	fa25 f302 	lsr.w	r3, r5, r2
   89ada:	ea4f 4c17 	mov.w	ip, r7, lsr #16
   89ade:	fbb3 f1fc 	udiv	r1, r3, ip
   89ae2:	fa1f fe87 	uxth.w	lr, r7
   89ae6:	fb0c 3311 	mls	r3, ip, r1, r3
   89aea:	fa24 f202 	lsr.w	r2, r4, r2
   89aee:	fa05 f508 	lsl.w	r5, r5, r8
   89af2:	fb0e f901 	mul.w	r9, lr, r1
   89af6:	432a      	orrs	r2, r5
   89af8:	0c10      	lsrs	r0, r2, #16
   89afa:	ea40 4303 	orr.w	r3, r0, r3, lsl #16
   89afe:	4599      	cmp	r9, r3
   89b00:	fa04 f408 	lsl.w	r4, r4, r8
   89b04:	d907      	bls.n	89b16 <__divdi3+0x1ae>
   89b06:	19db      	adds	r3, r3, r7
   89b08:	f101 30ff 	add.w	r0, r1, #4294967295	; 0xffffffff
   89b0c:	d278      	bcs.n	89c00 <__divdi3+0x298>
   89b0e:	4599      	cmp	r9, r3
   89b10:	d976      	bls.n	89c00 <__divdi3+0x298>
   89b12:	3902      	subs	r1, #2
   89b14:	443b      	add	r3, r7
   89b16:	ebc9 0303 	rsb	r3, r9, r3
   89b1a:	fbb3 f0fc 	udiv	r0, r3, ip
   89b1e:	fb0c 3310 	mls	r3, ip, r0, r3
   89b22:	fb0e f500 	mul.w	r5, lr, r0
   89b26:	b292      	uxth	r2, r2
   89b28:	ea42 4303 	orr.w	r3, r2, r3, lsl #16
   89b2c:	429d      	cmp	r5, r3
   89b2e:	d907      	bls.n	89b40 <__divdi3+0x1d8>
   89b30:	19db      	adds	r3, r3, r7
   89b32:	f100 32ff 	add.w	r2, r0, #4294967295	; 0xffffffff
   89b36:	d25f      	bcs.n	89bf8 <__divdi3+0x290>
   89b38:	429d      	cmp	r5, r3
   89b3a:	d95d      	bls.n	89bf8 <__divdi3+0x290>
   89b3c:	3802      	subs	r0, #2
   89b3e:	443b      	add	r3, r7
   89b40:	1b5d      	subs	r5, r3, r5
   89b42:	ea40 4201 	orr.w	r2, r0, r1, lsl #16
   89b46:	e78c      	b.n	89a62 <__divdi3+0xfa>
   89b48:	f1c2 0320 	rsb	r3, r2, #32
   89b4c:	fa28 f103 	lsr.w	r1, r8, r3
   89b50:	fa0c fc02 	lsl.w	ip, ip, r2
   89b54:	ea41 0c0c 	orr.w	ip, r1, ip
   89b58:	ea4f 401c 	mov.w	r0, ip, lsr #16
   89b5c:	fa2e f103 	lsr.w	r1, lr, r3
   89b60:	fbb1 f5f0 	udiv	r5, r1, r0
   89b64:	fa1f f78c 	uxth.w	r7, ip
   89b68:	fb00 1115 	mls	r1, r0, r5, r1
   89b6c:	fa29 f303 	lsr.w	r3, r9, r3
   89b70:	fa0e fe02 	lsl.w	lr, lr, r2
   89b74:	fb07 f905 	mul.w	r9, r7, r5
   89b78:	ea43 0e0e 	orr.w	lr, r3, lr
   89b7c:	ea4f 431e 	mov.w	r3, lr, lsr #16
   89b80:	ea43 4101 	orr.w	r1, r3, r1, lsl #16
   89b84:	4589      	cmp	r9, r1
   89b86:	fa08 f802 	lsl.w	r8, r8, r2
   89b8a:	d908      	bls.n	89b9e <__divdi3+0x236>
   89b8c:	eb11 010c 	adds.w	r1, r1, ip
   89b90:	f105 33ff 	add.w	r3, r5, #4294967295	; 0xffffffff
   89b94:	d232      	bcs.n	89bfc <__divdi3+0x294>
   89b96:	4589      	cmp	r9, r1
   89b98:	d930      	bls.n	89bfc <__divdi3+0x294>
   89b9a:	3d02      	subs	r5, #2
   89b9c:	4461      	add	r1, ip
   89b9e:	ebc9 0101 	rsb	r1, r9, r1
   89ba2:	fbb1 f3f0 	udiv	r3, r1, r0
   89ba6:	fb00 1113 	mls	r1, r0, r3, r1
   89baa:	fb07 f703 	mul.w	r7, r7, r3
   89bae:	fa1f fe8e 	uxth.w	lr, lr
   89bb2:	ea4e 4e01 	orr.w	lr, lr, r1, lsl #16
   89bb6:	4577      	cmp	r7, lr
   89bb8:	d908      	bls.n	89bcc <__divdi3+0x264>
   89bba:	eb1e 0e0c 	adds.w	lr, lr, ip
   89bbe:	f103 31ff 	add.w	r1, r3, #4294967295	; 0xffffffff
   89bc2:	d217      	bcs.n	89bf4 <__divdi3+0x28c>
   89bc4:	4577      	cmp	r7, lr
   89bc6:	d915      	bls.n	89bf4 <__divdi3+0x28c>
   89bc8:	3b02      	subs	r3, #2
   89bca:	44e6      	add	lr, ip
   89bcc:	ea43 4305 	orr.w	r3, r3, r5, lsl #16
   89bd0:	fba3 8908 	umull	r8, r9, r3, r8
   89bd4:	ebc7 0e0e 	rsb	lr, r7, lr
   89bd8:	45ce      	cmp	lr, r9
   89bda:	d309      	bcc.n	89bf0 <__divdi3+0x288>
   89bdc:	d005      	beq.n	89bea <__divdi3+0x282>
   89bde:	2200      	movs	r2, #0
   89be0:	e716      	b.n	89a10 <__divdi3+0xa8>
   89be2:	4610      	mov	r0, r2
   89be4:	e6f7      	b.n	899d6 <__divdi3+0x6e>
   89be6:	4613      	mov	r3, r2
   89be8:	e70a      	b.n	89a00 <__divdi3+0x98>
   89bea:	4094      	lsls	r4, r2
   89bec:	4544      	cmp	r4, r8
   89bee:	d2f6      	bcs.n	89bde <__divdi3+0x276>
   89bf0:	3b01      	subs	r3, #1
   89bf2:	e7f4      	b.n	89bde <__divdi3+0x276>
   89bf4:	460b      	mov	r3, r1
   89bf6:	e7e9      	b.n	89bcc <__divdi3+0x264>
   89bf8:	4610      	mov	r0, r2
   89bfa:	e7a1      	b.n	89b40 <__divdi3+0x1d8>
   89bfc:	461d      	mov	r5, r3
   89bfe:	e7ce      	b.n	89b9e <__divdi3+0x236>
   89c00:	4601      	mov	r1, r0
   89c02:	e788      	b.n	89b16 <__divdi3+0x1ae>
   89c04:	4613      	mov	r3, r2
   89c06:	e703      	b.n	89a10 <__divdi3+0xa8>
   89c08:	3b02      	subs	r3, #2
   89c0a:	e751      	b.n	89ab0 <__divdi3+0x148>
   89c0c:	3802      	subs	r0, #2
   89c0e:	443d      	add	r5, r7
   89c10:	e73a      	b.n	89a88 <__divdi3+0x120>
   89c12:	bf00      	nop

00089c14 <__udivdi3>:
   89c14:	e92d 43f0 	stmdb	sp!, {r4, r5, r6, r7, r8, r9, lr}
   89c18:	2b00      	cmp	r3, #0
   89c1a:	d144      	bne.n	89ca6 <__udivdi3+0x92>
   89c1c:	428a      	cmp	r2, r1
   89c1e:	4615      	mov	r5, r2
   89c20:	4604      	mov	r4, r0
   89c22:	d94f      	bls.n	89cc4 <__udivdi3+0xb0>
   89c24:	fab2 f782 	clz	r7, r2
   89c28:	460e      	mov	r6, r1
   89c2a:	b14f      	cbz	r7, 89c40 <__udivdi3+0x2c>
   89c2c:	f1c7 0320 	rsb	r3, r7, #32
   89c30:	40b9      	lsls	r1, r7
   89c32:	fa20 f603 	lsr.w	r6, r0, r3
   89c36:	fa02 f507 	lsl.w	r5, r2, r7
   89c3a:	430e      	orrs	r6, r1
   89c3c:	fa00 f407 	lsl.w	r4, r0, r7
   89c40:	0c2f      	lsrs	r7, r5, #16
   89c42:	fbb6 f0f7 	udiv	r0, r6, r7
   89c46:	fa1f fe85 	uxth.w	lr, r5
   89c4a:	fb07 6210 	mls	r2, r7, r0, r6
   89c4e:	fb0e f100 	mul.w	r1, lr, r0
   89c52:	0c26      	lsrs	r6, r4, #16
   89c54:	ea46 4302 	orr.w	r3, r6, r2, lsl #16
   89c58:	4299      	cmp	r1, r3
   89c5a:	d909      	bls.n	89c70 <__udivdi3+0x5c>
   89c5c:	195b      	adds	r3, r3, r5
   89c5e:	f100 32ff 	add.w	r2, r0, #4294967295	; 0xffffffff
   89c62:	f080 80ee 	bcs.w	89e42 <__udivdi3+0x22e>
   89c66:	4299      	cmp	r1, r3
   89c68:	f240 80eb 	bls.w	89e42 <__udivdi3+0x22e>
   89c6c:	3802      	subs	r0, #2
   89c6e:	442b      	add	r3, r5
   89c70:	1a59      	subs	r1, r3, r1
   89c72:	fbb1 f3f7 	udiv	r3, r1, r7
   89c76:	fb07 1113 	mls	r1, r7, r3, r1
   89c7a:	fb0e fe03 	mul.w	lr, lr, r3
   89c7e:	b2a4      	uxth	r4, r4
   89c80:	ea44 4101 	orr.w	r1, r4, r1, lsl #16
   89c84:	458e      	cmp	lr, r1
   89c86:	d908      	bls.n	89c9a <__udivdi3+0x86>
   89c88:	1949      	adds	r1, r1, r5
   89c8a:	f103 32ff 	add.w	r2, r3, #4294967295	; 0xffffffff
   89c8e:	f080 80da 	bcs.w	89e46 <__udivdi3+0x232>
   89c92:	458e      	cmp	lr, r1
   89c94:	f240 80d7 	bls.w	89e46 <__udivdi3+0x232>
   89c98:	3b02      	subs	r3, #2
   89c9a:	ea43 4000 	orr.w	r0, r3, r0, lsl #16
   89c9e:	2600      	movs	r6, #0
   89ca0:	4631      	mov	r1, r6
   89ca2:	e8bd 83f0 	ldmia.w	sp!, {r4, r5, r6, r7, r8, r9, pc}
   89ca6:	428b      	cmp	r3, r1
   89ca8:	d847      	bhi.n	89d3a <__udivdi3+0x126>
   89caa:	fab3 f683 	clz	r6, r3
   89cae:	2e00      	cmp	r6, #0
   89cb0:	d148      	bne.n	89d44 <__udivdi3+0x130>
   89cb2:	428b      	cmp	r3, r1
   89cb4:	d302      	bcc.n	89cbc <__udivdi3+0xa8>
   89cb6:	4282      	cmp	r2, r0
   89cb8:	f200 80cf 	bhi.w	89e5a <__udivdi3+0x246>
   89cbc:	2001      	movs	r0, #1
   89cbe:	4631      	mov	r1, r6
   89cc0:	e8bd 83f0 	ldmia.w	sp!, {r4, r5, r6, r7, r8, r9, pc}
   89cc4:	b912      	cbnz	r2, 89ccc <__udivdi3+0xb8>
   89cc6:	2501      	movs	r5, #1
   89cc8:	fbb5 f5f2 	udiv	r5, r5, r2
   89ccc:	fab5 fc85 	clz	ip, r5
   89cd0:	f1bc 0f00 	cmp.w	ip, #0
   89cd4:	d178      	bne.n	89dc8 <__udivdi3+0x1b4>
   89cd6:	1b49      	subs	r1, r1, r5
   89cd8:	0c2f      	lsrs	r7, r5, #16
   89cda:	fa1f fe85 	uxth.w	lr, r5
   89cde:	2601      	movs	r6, #1
   89ce0:	fbb1 f0f7 	udiv	r0, r1, r7
   89ce4:	fb07 1110 	mls	r1, r7, r0, r1
   89ce8:	fb0e f200 	mul.w	r2, lr, r0
   89cec:	0c23      	lsrs	r3, r4, #16
   89cee:	ea43 4101 	orr.w	r1, r3, r1, lsl #16
   89cf2:	428a      	cmp	r2, r1
   89cf4:	d907      	bls.n	89d06 <__udivdi3+0xf2>
   89cf6:	1949      	adds	r1, r1, r5
   89cf8:	f100 33ff 	add.w	r3, r0, #4294967295	; 0xffffffff
   89cfc:	d202      	bcs.n	89d04 <__udivdi3+0xf0>
   89cfe:	428a      	cmp	r2, r1
   89d00:	f200 80bc 	bhi.w	89e7c <__udivdi3+0x268>
   89d04:	4618      	mov	r0, r3
   89d06:	1a89      	subs	r1, r1, r2
   89d08:	fbb1 f3f7 	udiv	r3, r1, r7
   89d0c:	fb07 1113 	mls	r1, r7, r3, r1
   89d10:	fb0e fe03 	mul.w	lr, lr, r3
   89d14:	b2a4      	uxth	r4, r4
   89d16:	ea44 4201 	orr.w	r2, r4, r1, lsl #16
   89d1a:	4596      	cmp	lr, r2
   89d1c:	d908      	bls.n	89d30 <__udivdi3+0x11c>
   89d1e:	1952      	adds	r2, r2, r5
   89d20:	f103 31ff 	add.w	r1, r3, #4294967295	; 0xffffffff
   89d24:	f080 8091 	bcs.w	89e4a <__udivdi3+0x236>
   89d28:	4596      	cmp	lr, r2
   89d2a:	f240 808e 	bls.w	89e4a <__udivdi3+0x236>
   89d2e:	3b02      	subs	r3, #2
   89d30:	ea43 4000 	orr.w	r0, r3, r0, lsl #16
   89d34:	4631      	mov	r1, r6
   89d36:	e8bd 83f0 	ldmia.w	sp!, {r4, r5, r6, r7, r8, r9, pc}
   89d3a:	2600      	movs	r6, #0
   89d3c:	4630      	mov	r0, r6
   89d3e:	4631      	mov	r1, r6
   89d40:	e8bd 83f0 	ldmia.w	sp!, {r4, r5, r6, r7, r8, r9, pc}
   89d44:	f1c6 0420 	rsb	r4, r6, #32
   89d48:	fa22 f504 	lsr.w	r5, r2, r4
   89d4c:	40b3      	lsls	r3, r6
   89d4e:	432b      	orrs	r3, r5
   89d50:	fa21 f704 	lsr.w	r7, r1, r4
   89d54:	ea4f 4813 	mov.w	r8, r3, lsr #16
   89d58:	fbb7 fcf8 	udiv	ip, r7, r8
   89d5c:	fa1f f983 	uxth.w	r9, r3
   89d60:	fb08 771c 	mls	r7, r8, ip, r7
   89d64:	fa20 fe04 	lsr.w	lr, r0, r4
   89d68:	fa01 f506 	lsl.w	r5, r1, r6
   89d6c:	fb09 f40c 	mul.w	r4, r9, ip
   89d70:	ea4e 0505 	orr.w	r5, lr, r5
   89d74:	ea4f 4e15 	mov.w	lr, r5, lsr #16
   89d78:	ea4e 4707 	orr.w	r7, lr, r7, lsl #16
   89d7c:	42bc      	cmp	r4, r7
   89d7e:	fa02 f206 	lsl.w	r2, r2, r6
   89d82:	d904      	bls.n	89d8e <__udivdi3+0x17a>
   89d84:	18ff      	adds	r7, r7, r3
   89d86:	f10c 31ff 	add.w	r1, ip, #4294967295	; 0xffffffff
   89d8a:	d368      	bcc.n	89e5e <__udivdi3+0x24a>
   89d8c:	468c      	mov	ip, r1
   89d8e:	1b3f      	subs	r7, r7, r4
   89d90:	fbb7 f4f8 	udiv	r4, r7, r8
   89d94:	fb08 7714 	mls	r7, r8, r4, r7
   89d98:	fb09 f904 	mul.w	r9, r9, r4
   89d9c:	b2ad      	uxth	r5, r5
   89d9e:	ea45 4107 	orr.w	r1, r5, r7, lsl #16
   89da2:	4589      	cmp	r9, r1
   89da4:	d904      	bls.n	89db0 <__udivdi3+0x19c>
   89da6:	18c9      	adds	r1, r1, r3
   89da8:	f104 35ff 	add.w	r5, r4, #4294967295	; 0xffffffff
   89dac:	d35d      	bcc.n	89e6a <__udivdi3+0x256>
   89dae:	462c      	mov	r4, r5
   89db0:	ea44 440c 	orr.w	r4, r4, ip, lsl #16
   89db4:	fba4 2302 	umull	r2, r3, r4, r2
   89db8:	ebc9 0101 	rsb	r1, r9, r1
   89dbc:	4299      	cmp	r1, r3
   89dbe:	d349      	bcc.n	89e54 <__udivdi3+0x240>
   89dc0:	d045      	beq.n	89e4e <__udivdi3+0x23a>
   89dc2:	4620      	mov	r0, r4
   89dc4:	2600      	movs	r6, #0
   89dc6:	e76b      	b.n	89ca0 <__udivdi3+0x8c>
   89dc8:	f1cc 0420 	rsb	r4, ip, #32
   89dcc:	fa05 f50c 	lsl.w	r5, r5, ip
   89dd0:	fa21 f304 	lsr.w	r3, r1, r4
   89dd4:	0c2a      	lsrs	r2, r5, #16
   89dd6:	fbb3 f6f2 	udiv	r6, r3, r2
   89dda:	fa1f fe85 	uxth.w	lr, r5
   89dde:	fb02 3816 	mls	r8, r2, r6, r3
   89de2:	fa20 f704 	lsr.w	r7, r0, r4
   89de6:	fa01 f10c 	lsl.w	r1, r1, ip
   89dea:	fb0e f906 	mul.w	r9, lr, r6
   89dee:	430f      	orrs	r7, r1
   89df0:	0c3c      	lsrs	r4, r7, #16
   89df2:	ea44 4308 	orr.w	r3, r4, r8, lsl #16
   89df6:	4599      	cmp	r9, r3
   89df8:	fa00 f40c 	lsl.w	r4, r0, ip
   89dfc:	d907      	bls.n	89e0e <__udivdi3+0x1fa>
   89dfe:	195b      	adds	r3, r3, r5
   89e00:	f106 31ff 	add.w	r1, r6, #4294967295	; 0xffffffff
   89e04:	d238      	bcs.n	89e78 <__udivdi3+0x264>
   89e06:	4599      	cmp	r9, r3
   89e08:	d936      	bls.n	89e78 <__udivdi3+0x264>
   89e0a:	3e02      	subs	r6, #2
   89e0c:	442b      	add	r3, r5
   89e0e:	ebc9 0303 	rsb	r3, r9, r3
   89e12:	fbb3 f0f2 	udiv	r0, r3, r2
   89e16:	fb02 3310 	mls	r3, r2, r0, r3
   89e1a:	fb0e f100 	mul.w	r1, lr, r0
   89e1e:	b2bf      	uxth	r7, r7
   89e20:	ea47 4303 	orr.w	r3, r7, r3, lsl #16
   89e24:	4299      	cmp	r1, r3
   89e26:	d907      	bls.n	89e38 <__udivdi3+0x224>
   89e28:	195b      	adds	r3, r3, r5
   89e2a:	f100 37ff 	add.w	r7, r0, #4294967295	; 0xffffffff
   89e2e:	d221      	bcs.n	89e74 <__udivdi3+0x260>
   89e30:	4299      	cmp	r1, r3
   89e32:	d91f      	bls.n	89e74 <__udivdi3+0x260>
   89e34:	3802      	subs	r0, #2
   89e36:	442b      	add	r3, r5
   89e38:	4617      	mov	r7, r2
   89e3a:	1a59      	subs	r1, r3, r1
   89e3c:	ea40 4606 	orr.w	r6, r0, r6, lsl #16
   89e40:	e74e      	b.n	89ce0 <__udivdi3+0xcc>
   89e42:	4610      	mov	r0, r2
   89e44:	e714      	b.n	89c70 <__udivdi3+0x5c>
   89e46:	4613      	mov	r3, r2
   89e48:	e727      	b.n	89c9a <__udivdi3+0x86>
   89e4a:	460b      	mov	r3, r1
   89e4c:	e770      	b.n	89d30 <__udivdi3+0x11c>
   89e4e:	40b0      	lsls	r0, r6
   89e50:	4290      	cmp	r0, r2
   89e52:	d2b6      	bcs.n	89dc2 <__udivdi3+0x1ae>
   89e54:	1e60      	subs	r0, r4, #1
   89e56:	2600      	movs	r6, #0
   89e58:	e722      	b.n	89ca0 <__udivdi3+0x8c>
   89e5a:	4630      	mov	r0, r6
   89e5c:	e720      	b.n	89ca0 <__udivdi3+0x8c>
   89e5e:	42bc      	cmp	r4, r7
   89e60:	d994      	bls.n	89d8c <__udivdi3+0x178>
   89e62:	f1ac 0c02 	sub.w	ip, ip, #2
   89e66:	441f      	add	r7, r3
   89e68:	e791      	b.n	89d8e <__udivdi3+0x17a>
   89e6a:	4589      	cmp	r9, r1
   89e6c:	d99f      	bls.n	89dae <__udivdi3+0x19a>
   89e6e:	3c02      	subs	r4, #2
   89e70:	4419      	add	r1, r3
   89e72:	e79d      	b.n	89db0 <__udivdi3+0x19c>
   89e74:	4638      	mov	r0, r7
   89e76:	e7df      	b.n	89e38 <__udivdi3+0x224>
   89e78:	460e      	mov	r6, r1
   89e7a:	e7c8      	b.n	89e0e <__udivdi3+0x1fa>
   89e7c:	3802      	subs	r0, #2
   89e7e:	4429      	add	r1, r5
   89e80:	e741      	b.n	89d06 <__udivdi3+0xf2>
   89e82:	bf00      	nop
   89e84:	0000      	movs	r0, r0
	...

00089e88 <INV_SBOX>:
   89e88:	3433 3836 3a3c 3e31 3239 3735 3b30 3f3d     3468<:1>92570;=?
   89e98:	4443 4846 4a4c 4e41 4249 4745 4b40 4f4d     CDFHLJANIBEG@KMO
   89ea8:	6463 6866 6a6c 6e61 6269 6765 6b60 6f6d     cdfhljanibeg`kmo
   89eb8:	8483 8886 8a8c 8e81 8289 8785 8b80 8f8d     ................
   89ec8:	c4c3 c8c6 cacc cec1 c2c9 c7c5 cbc0 cfcd     ................
   89ed8:	a4a3 a8a6 aaac aea1 a2a9 a7a5 aba0 afad     ................
   89ee8:	1413 1816 1a1c 1e11 1219 1715 1b10 1f1d     ................
   89ef8:	e4e3 e8e6 eaec eee1 e2e9 e7e5 ebe0 efed     ................
   89f08:	9493 9896 9a9c 9e91 9299 9795 9b90 9f9d     ................
   89f18:	2423 2826 2a2c 2e21 2229 2725 2b20 2f2d     #$&(,*!.)"%' +-/
   89f28:	5453 5856 5a5c 5e51 5259 5755 5b50 5f5d     STVX\ZQ^YRUWP[]_
   89f38:	7473 7876 7a7c 7e71 7279 7775 7b70 7f7d     stvx|zq~yruwp{}.
   89f48:	0403 0806 0a0c 0e01 0209 0705 0b00 0f0d     ................
   89f58:	b4b3 b8b6 babc beb1 b2b9 b7b5 bbb0 bfbd     ................
   89f68:	d4d3 d8d6 dadc ded1 d2d9 d7d5 dbd0 dfdd     ................
   89f78:	f4f3 f8f6 fafc fef1 f2f9 f7f5 fbf0 fffd     ................

00089f88 <SBOX>:
   89f88:	c6cc c0c9 cac1 cbc2 c8c3 cdc5 cec4 cfc7     ................
   89f98:	666c 6069 6a61 6b62 6863 6d65 6e64 6f67     lfi`ajbkchemdngo
   89fa8:	969c 9099 9a91 9b92 9893 9d95 9e94 9f97     ................
   89fb8:	060c 0009 0a01 0b02 0803 0d05 0e04 0f07     ................
   89fc8:	161c 1019 1a11 1b12 1813 1d15 1e14 1f17     ................
   89fd8:	a6ac a0a9 aaa1 aba2 a8a3 ada5 aea4 afa7     ................
   89fe8:	262c 2029 2a21 2b22 2823 2d25 2e24 2f27     ,&) !*"+#(%-$.'/
   89ff8:	b6bc b0b9 bab1 bbb2 b8b3 bdb5 beb4 bfb7     ................
   8a008:	363c 3039 3a31 3b32 3833 3d35 3e34 3f37     <6901:2;385=4>7?
   8a018:	868c 8089 8a81 8b82 8883 8d85 8e84 8f87     ................
   8a028:	565c 5059 5a51 5b52 5853 5d55 5e54 5f57     \VYPQZR[SXU]T^W_
   8a038:	d6dc d0d9 dad1 dbd2 d8d3 ddd5 ded4 dfd7     ................
   8a048:	464c 4049 4a41 4b42 4843 4d45 4e44 4f47     LFI@AJBKCHEMDNGO
   8a058:	e6ec e0e9 eae1 ebe2 e8e3 ede5 eee4 efe7     ................
   8a068:	767c 7079 7a71 7b72 7873 7d75 7e74 7f77     |vypqzr{sxu}t~w.
   8a078:	f6fc f0f9 faf1 fbf2 f8f3 fdf5 fef4 fff7     ................

0008a088 <RC>:
   8a088:	0301 0f07 3e1f 3b3d 2f37 3c1e 3339 0e27     .....>=;7/.<93'.
   8a098:	3a1d 2b35 2c16 3018 0221 0b05 2e17 381c     .:5+.,.0!......8
   8a0a8:	2331 0d06                                   1#..

0008a0ac <expectedKey>:
   8a0ac:	b99e 4036 88d0 63da a376 1c9d ea8b e171     ..6@...cv.....q.
   8a0bc:	bd00 0501 c200 0001 0800 0000               ............

0008a0c8 <_global_impure_ptr>:
   8a0c8:	0008 2007 0043 0000 7845 7469 6e69 2067     ... C...Exiting 
   8a0d8:	6977 6874 7320 6174 7574 2073 6425 0a2e     with status %d..
   8a0e8:	0000 0000                                   ....

0008a0ec <blanks.6767>:
   8a0ec:	2020 2020 2020 2020 2020 2020 2020 2020                     

0008a0fc <zeroes.6768>:
   8a0fc:	3030 3030 3030 3030 3030 3030 3030 3030     0000000000000000
   8a10c:	4e49 0046 6e69 0066 414e 004e 616e 006e     INF.inf.NAN.nan.
   8a11c:	3130 3332 3534 3736 3938 4241 4443 4645     0123456789ABCDEF
   8a12c:	0000 0000 3130 3332 3534 3736 3938 6261     ....0123456789ab
   8a13c:	6463 6665 0000 0000 6e28 6c75 296c 0000     cdef....(null)..
   8a14c:	0030 0000 6e49 6966 696e 7974 0000 0000     0...Infinity....
   8a15c:	614e 004e                                   NaN.

0008a160 <__sf_fake_stderr>:
	...

0008a180 <__sf_fake_stdout>:
	...

0008a1a0 <__sf_fake_stdin>:
	...
   8a1c0:	4f50 4953 0058 0000 002e 0000 0000 0000     POSIX...........

0008a1d0 <p05.5301>:
   8a1d0:	0005 0000 0019 0000 007d 0000 0000 0000     ........}.......

0008a1e0 <__mprec_tens>:
   8a1e0:	0000 0000 0000 3ff0 0000 0000 0000 4024     .......?......$@
   8a1f0:	0000 0000 0000 4059 0000 0000 4000 408f     ......Y@.....@.@
   8a200:	0000 0000 8800 40c3 0000 0000 6a00 40f8     .......@.....j.@
   8a210:	0000 0000 8480 412e 0000 0000 12d0 4163     .......A......cA
   8a220:	0000 0000 d784 4197 0000 0000 cd65 41cd     .......A....e..A
   8a230:	0000 2000 a05f 4202 0000 e800 4876 4237     ... _..B....vH7B
   8a240:	0000 a200 1a94 426d 0000 e540 309c 42a2     ......mB..@..0.B
   8a250:	0000 1e90 bcc4 42d6 0000 2634 6bf5 430c     .......B..4&.k.C
   8a260:	8000 37e0 c379 4341 a000 85d8 3457 4376     ...7y.AC....W4vC
   8a270:	c800 674e c16d 43ab 3d00 6091 58e4 43e1     ..Ngm..C.=.`.X.C
   8a280:	8c40 78b5 af1d 4415 ef50 d6e2 1ae4 444b     @..x...DP.....KD
   8a290:	d592 064d f0cf 4480 4af6 c7e1 2d02 44b5     ..M....D.J...-.D
   8a2a0:	9db4 79d9 7843 44ea                         ...yCx.D

0008a2a8 <__mprec_tinytens>:
   8a2a8:	89bc 97d8 d2b2 3c9c a733 d5a8 f623 3949     .......<3...#.I9
   8a2b8:	a73d 44f4 0ffd 32a5 979d cf8c ba08 255b     =..D...2......[%
   8a2c8:	6f43 64ac 0628 0ac8                         Co.d(...

0008a2d0 <__mprec_bigtens>:
   8a2d0:	8000 37e0 c379 4341 6e17 b505 b8b5 4693     ...7y.AC.n.....F
   8a2e0:	f9f5 e93f 4f03 4d38 1d32 f930 7748 5a82     ..?..O8M2.0.Hw.Z
   8a2f0:	bf3c 7f73 4fdd 7515                         <.s..O.u

0008a2f8 <blanks.6710>:
   8a2f8:	2020 2020 2020 2020 2020 2020 2020 2020                     

0008a308 <zeroes.6711>:
   8a308:	3030 3030 3030 3030 3030 3030 3030 3030     0000000000000000

0008a318 <_init>:
   8a318:	b5f8      	push	{r3, r4, r5, r6, r7, lr}
   8a31a:	bf00      	nop
   8a31c:	bcf8      	pop	{r3, r4, r5, r6, r7}
   8a31e:	bc08      	pop	{r3}
   8a320:	469e      	mov	lr, r3
   8a322:	4770      	bx	lr

0008a324 <__init_array_start>:
   8a324:	00082fcd 	.word	0x00082fcd

0008a328 <__frame_dummy_init_array_entry>:
   8a328:	00080161                                a...

0008a32c <_fini>:
   8a32c:	b5f8      	push	{r3, r4, r5, r6, r7, lr}
   8a32e:	bf00      	nop
   8a330:	bcf8      	pop	{r3, r4, r5, r6, r7}
   8a332:	bc08      	pop	{r3}
   8a334:	469e      	mov	lr, r3
   8a336:	4770      	bx	lr

0008a338 <__fini_array_start>:
   8a338:	00080139 	.word	0x00080139
