
./../build/scenario1.elf:     file format elf32-littlearm


Disassembly of section .text:

00080000 <_sfixed>:
   80000:	20088000 	.word	0x20088000
   80004:	00080729 	.word	0x00080729
   80008:	000807e1 	.word	0x000807e1
   8000c:	000807e1 	.word	0x000807e1
   80010:	000807e1 	.word	0x000807e1
   80014:	000807e1 	.word	0x000807e1
   80018:	000807e1 	.word	0x000807e1
	...
   8002c:	000807e1 	.word	0x000807e1
   80030:	000807e1 	.word	0x000807e1
   80034:	00000000 	.word	0x00000000
   80038:	000807e1 	.word	0x000807e1
   8003c:	000807e1 	.word	0x000807e1
   80040:	000807e1 	.word	0x000807e1
   80044:	000807e1 	.word	0x000807e1
   80048:	000807e1 	.word	0x000807e1
   8004c:	000807e1 	.word	0x000807e1
   80050:	000807e1 	.word	0x000807e1
   80054:	000807e1 	.word	0x000807e1
   80058:	000807e1 	.word	0x000807e1
   8005c:	000807e1 	.word	0x000807e1
   80060:	000807e1 	.word	0x000807e1
   80064:	000807e1 	.word	0x000807e1
   80068:	00000000 	.word	0x00000000
   8006c:	000807e1 	.word	0x000807e1
   80070:	000807e1 	.word	0x000807e1
   80074:	000807e1 	.word	0x000807e1
   80078:	000807e1 	.word	0x000807e1
	...
   80084:	000807e1 	.word	0x000807e1
   80088:	000807e1 	.word	0x000807e1
   8008c:	000807e1 	.word	0x000807e1
   80090:	000807e1 	.word	0x000807e1
   80094:	000807e1 	.word	0x000807e1
   80098:	000807e1 	.word	0x000807e1
   8009c:	000807e1 	.word	0x000807e1
   800a0:	000807e1 	.word	0x000807e1
   800a4:	00000000 	.word	0x00000000
   800a8:	000807e1 	.word	0x000807e1
   800ac:	000807e1 	.word	0x000807e1
   800b0:	000807e1 	.word	0x000807e1
   800b4:	000807e1 	.word	0x000807e1
   800b8:	000807e1 	.word	0x000807e1
   800bc:	000807e1 	.word	0x000807e1
   800c0:	000807e1 	.word	0x000807e1
   800c4:	000807e1 	.word	0x000807e1
   800c8:	000807e1 	.word	0x000807e1
   800cc:	000807e1 	.word	0x000807e1
   800d0:	000807e1 	.word	0x000807e1
   800d4:	000807e1 	.word	0x000807e1
   800d8:	000807e1 	.word	0x000807e1
   800dc:	000807e1 	.word	0x000807e1
   800e0:	000807e1 	.word	0x000807e1
   800e4:	000807e1 	.word	0x000807e1
   800e8:	000807e1 	.word	0x000807e1
   800ec:	000807e1 	.word	0x000807e1
   800f0:	000807e1 	.word	0x000807e1

000800f4 <deregister_tm_clones>:
   800f4:	4b04      	ldr	r3, [pc, #16]	; (80108 <deregister_tm_clones+0x14>)
   800f6:	4805      	ldr	r0, [pc, #20]	; (8010c <deregister_tm_clones+0x18>)
   800f8:	1a1b      	subs	r3, r3, r0
   800fa:	2b06      	cmp	r3, #6
   800fc:	d902      	bls.n	80104 <deregister_tm_clones+0x10>
   800fe:	4b04      	ldr	r3, [pc, #16]	; (80110 <deregister_tm_clones+0x1c>)
   80100:	b103      	cbz	r3, 80104 <deregister_tm_clones+0x10>
   80102:	4718      	bx	r3
   80104:	4770      	bx	lr
   80106:	bf00      	nop
   80108:	0008a347 	.word	0x0008a347
   8010c:	0008a344 	.word	0x0008a344
   80110:	00000000 	.word	0x00000000

00080114 <register_tm_clones>:
   80114:	4905      	ldr	r1, [pc, #20]	; (8012c <register_tm_clones+0x18>)
   80116:	4806      	ldr	r0, [pc, #24]	; (80130 <register_tm_clones+0x1c>)
   80118:	1a09      	subs	r1, r1, r0
   8011a:	1089      	asrs	r1, r1, #2
   8011c:	eb01 71d1 	add.w	r1, r1, r1, lsr #31
   80120:	1049      	asrs	r1, r1, #1
   80122:	d002      	beq.n	8012a <register_tm_clones+0x16>
   80124:	4b03      	ldr	r3, [pc, #12]	; (80134 <register_tm_clones+0x20>)
   80126:	b103      	cbz	r3, 8012a <register_tm_clones+0x16>
   80128:	4718      	bx	r3
   8012a:	4770      	bx	lr
   8012c:	0008a344 	.word	0x0008a344
   80130:	0008a344 	.word	0x0008a344
   80134:	00000000 	.word	0x00000000

00080138 <__do_global_dtors_aux>:
   80138:	b510      	push	{r4, lr}
   8013a:	4c06      	ldr	r4, [pc, #24]	; (80154 <__do_global_dtors_aux+0x1c>)
   8013c:	7823      	ldrb	r3, [r4, #0]
   8013e:	b943      	cbnz	r3, 80152 <__do_global_dtors_aux+0x1a>
   80140:	f7ff ffd8 	bl	800f4 <deregister_tm_clones>
   80144:	4b04      	ldr	r3, [pc, #16]	; (80158 <__do_global_dtors_aux+0x20>)
   80146:	b113      	cbz	r3, 8014e <__do_global_dtors_aux+0x16>
   80148:	4804      	ldr	r0, [pc, #16]	; (8015c <__do_global_dtors_aux+0x24>)
   8014a:	f3af 8000 	nop.w
   8014e:	2301      	movs	r3, #1
   80150:	7023      	strb	r3, [r4, #0]
   80152:	bd10      	pop	{r4, pc}
   80154:	20070588 	.word	0x20070588
   80158:	00000000 	.word	0x00000000
   8015c:	0008a344 	.word	0x0008a344

00080160 <frame_dummy>:
   80160:	b508      	push	{r3, lr}
   80162:	4b08      	ldr	r3, [pc, #32]	; (80184 <frame_dummy+0x24>)
   80164:	b11b      	cbz	r3, 8016e <frame_dummy+0xe>
   80166:	4808      	ldr	r0, [pc, #32]	; (80188 <frame_dummy+0x28>)
   80168:	4908      	ldr	r1, [pc, #32]	; (8018c <frame_dummy+0x2c>)
   8016a:	f3af 8000 	nop.w
   8016e:	4808      	ldr	r0, [pc, #32]	; (80190 <frame_dummy+0x30>)
   80170:	6803      	ldr	r3, [r0, #0]
   80172:	b913      	cbnz	r3, 8017a <frame_dummy+0x1a>
   80174:	e8bd 4008 	ldmia.w	sp!, {r3, lr}
   80178:	e7cc      	b.n	80114 <register_tm_clones>
   8017a:	4b06      	ldr	r3, [pc, #24]	; (80194 <frame_dummy+0x34>)
   8017c:	2b00      	cmp	r3, #0
   8017e:	d0f9      	beq.n	80174 <frame_dummy+0x14>
   80180:	4798      	blx	r3
   80182:	e7f7      	b.n	80174 <frame_dummy+0x14>
   80184:	00000000 	.word	0x00000000
   80188:	0008a344 	.word	0x0008a344
   8018c:	2007058c 	.word	0x2007058c
   80190:	0008a344 	.word	0x0008a344
   80194:	00000000 	.word	0x00000000

00080198 <Encrypt>:
    // r2-r5 : cipher state
    // r6-r7 : temp use
    // r8    : loop control
    // r9    : points to SBOX
    // r10   : 0xff
    asm volatile(
   80198:	e92d 07fc 	stmdb	sp!, {r2, r3, r4, r5, r6, r7, r8, r9, sl}
   8019c:	f04f 0824 	mov.w	r8, #36	; 0x24
   801a0:	f8df 90b0 	ldr.w	r9, [pc, #176]	; 80254 <enc_loop+0xa0>
   801a4:	f04f 0aff 	mov.w	sl, #255	; 0xff
   801a8:	e9d0 2400 	ldrd	r2, r4, [r0]
   801ac:	ea4f 4312 	mov.w	r3, r2, lsr #16
   801b0:	ea4f 4514 	mov.w	r5, r4, lsr #16

000801b4 <enc_loop>:
   801b4:	f002 06ff 	and.w	r6, r2, #255	; 0xff
   801b8:	f819 6006 	ldrb.w	r6, [r9, r6]
   801bc:	f366 0207 	bfi	r2, r6, #0, #8
   801c0:	ea0a 2612 	and.w	r6, sl, r2, lsr #8
   801c4:	f819 6006 	ldrb.w	r6, [r9, r6]
   801c8:	f366 220f 	bfi	r2, r6, #8, #8
   801cc:	f003 06ff 	and.w	r6, r3, #255	; 0xff
   801d0:	f819 6006 	ldrb.w	r6, [r9, r6]
   801d4:	f366 0307 	bfi	r3, r6, #0, #8
   801d8:	ea0a 2613 	and.w	r6, sl, r3, lsr #8
   801dc:	f819 6006 	ldrb.w	r6, [r9, r6]
   801e0:	f366 230f 	bfi	r3, r6, #8, #8
   801e4:	f004 06ff 	and.w	r6, r4, #255	; 0xff
   801e8:	f819 6006 	ldrb.w	r6, [r9, r6]
   801ec:	f366 0407 	bfi	r4, r6, #0, #8
   801f0:	ea0a 2614 	and.w	r6, sl, r4, lsr #8
   801f4:	f819 6006 	ldrb.w	r6, [r9, r6]
   801f8:	f366 240f 	bfi	r4, r6, #8, #8
   801fc:	f005 06ff 	and.w	r6, r5, #255	; 0xff
   80200:	f819 6006 	ldrb.w	r6, [r9, r6]
   80204:	f366 0507 	bfi	r5, r6, #0, #8
   80208:	ea0a 2615 	and.w	r6, sl, r5, lsr #8
   8020c:	f819 6006 	ldrb.w	r6, [r9, r6]
   80210:	f366 250f 	bfi	r5, r6, #8, #8
   80214:	c940      	ldmia	r1!, {r6}
   80216:	4072      	eors	r2, r6
   80218:	ea93 4316 	eors.w	r3, r3, r6, lsr #16
   8021c:	f094 0420 	eors.w	r4, r4, #32
   80220:	4616      	mov	r6, r2
   80222:	f365 451b 	bfi	r5, r5, #16, #12
   80226:	ea4f 3215 	mov.w	r2, r5, lsr #12
   8022a:	ba65      	rev16	r5, r4
   8022c:	f363 4313 	bfi	r3, r3, #16, #4
   80230:	ea4f 1413 	mov.w	r4, r3, lsr #4
   80234:	4633      	mov	r3, r6
   80236:	406c      	eors	r4, r5
   80238:	405d      	eors	r5, r3
   8023a:	406a      	eors	r2, r5
   8023c:	f1b8 0801 	subs.w	r8, r8, #1
   80240:	d1b8      	bne.n	801b4 <enc_loop>
   80242:	f363 421f 	bfi	r2, r3, #16, #16
   80246:	f365 441f 	bfi	r4, r5, #16, #16
   8024a:	e9c0 2400 	strd	r2, r4, [r0]
   8024e:	e8bd 07fc 	ldmia.w	sp!, {r2, r3, r4, r5, r6, r7, r8, r9, sl}
   80252:	4770      	bx	lr
   80254:	00089f88 	.word	0x00089f88

00080258 <RunDecryptionKeySchedule>:
#include "cipher.h"
#include "constants.h"


void RunDecryptionKeySchedule(uint8_t *key, uint8_t *roundKeys)
{
   80258:	4770      	bx	lr
   8025a:	bf00      	nop

0008025c <RunEncryptionKeySchedule>:
    // r6-r7 : temp use
    // r8    : loop control
    // r9    : points to RC
    // r10   : 0xf00f0
    // r11   : 0xf00f0f
    asm volatile(
   8025c:	e92d 0ffc 	stmdb	sp!, {r2, r3, r4, r5, r6, r7, r8, r9, sl, fp}
   80260:	f04f 0824 	mov.w	r8, #36	; 0x24
   80264:	f8df 90a8 	ldr.w	r9, [pc, #168]	; 80310 <key_loop+0x90>
   80268:	f04f 0a0f 	mov.w	sl, #15
   8026c:	ea4f 4a0a 	mov.w	sl, sl, lsl #16
   80270:	f09a 0af0 	eors.w	sl, sl, #240	; 0xf0
   80274:	ea4f 1b0a 	mov.w	fp, sl, lsl #4
   80278:	f09b 0b0f 	eors.w	fp, fp, #15
   8027c:	e890 003c 	ldmia.w	r0, {r2, r3, r4, r5}

00080280 <key_loop>:
   80280:	f899 6000 	ldrb.w	r6, [r9]
   80284:	f119 0901 	adds.w	r9, r9, #1
   80288:	ea4f 4706 	mov.w	r7, r6, lsl #16
   8028c:	f006 060f 	and.w	r6, r6, #15
   80290:	ea92 1606 	eors.w	r6, r2, r6, lsl #4
   80294:	f407 1740 	and.w	r7, r7, #3145728	; 0x300000
   80298:	407e      	eors	r6, r7
   8029a:	4066      	eors	r6, r4
   8029c:	600e      	str	r6, [r1, #0]
   8029e:	3104      	adds	r1, #4
   802a0:	461e      	mov	r6, r3
   802a2:	4613      	mov	r3, r2
   802a4:	ba32      	rev	r2, r6
   802a6:	ea12 020b 	ands.w	r2, r2, fp
   802aa:	ea4f 2706 	mov.w	r7, r6, lsl #8
   802ae:	f007 27f0 	and.w	r7, r7, #4026593280	; 0xf000f000
   802b2:	407a      	eors	r2, r7
   802b4:	ba77      	rev16	r7, r6
   802b6:	ea0a 1717 	and.w	r7, sl, r7, lsr #4
   802ba:	407a      	eors	r2, r7
   802bc:	f406 6670 	and.w	r6, r6, #3840	; 0xf00
   802c0:	ea92 4206 	eors.w	r2, r2, r6, lsl #16
   802c4:	462e      	mov	r6, r5
   802c6:	4625      	mov	r5, r4
   802c8:	ba34      	rev	r4, r6
   802ca:	ea14 040b 	ands.w	r4, r4, fp
   802ce:	ea4f 2706 	mov.w	r7, r6, lsl #8
   802d2:	f007 27f0 	and.w	r7, r7, #4026593280	; 0xf000f000
   802d6:	407c      	eors	r4, r7
   802d8:	ba77      	rev16	r7, r6
   802da:	ea0a 1717 	and.w	r7, sl, r7, lsr #4
   802de:	407c      	eors	r4, r7
   802e0:	f406 6670 	and.w	r6, r6, #3840	; 0xf00
   802e4:	ea94 4406 	eors.w	r4, r4, r6, lsl #16
   802e8:	4626      	mov	r6, r4
   802ea:	4627      	mov	r7, r4
   802ec:	ea86 0657 	eor.w	r6, r6, r7, lsr #1
   802f0:	ea4f 0696 	mov.w	r6, r6, lsr #2
   802f4:	f006 3611 	and.w	r6, r6, #286331153	; 0x11111111
   802f8:	ea4f 0444 	mov.w	r4, r4, lsl #1
   802fc:	f004 34ee 	and.w	r4, r4, #4008636142	; 0xeeeeeeee
   80300:	4074      	eors	r4, r6
   80302:	f1b8 0801 	subs.w	r8, r8, #1
   80306:	d1bb      	bne.n	80280 <key_loop>
   80308:	e8bd 0ffc 	ldmia.w	sp!, {r2, r3, r4, r5, r6, r7, r8, r9, sl, fp}
   8030c:	4770      	bx	lr
   8030e:	0000      	.short	0x0000
   80310:	0008a088 	.word	0x0008a088

00080314 <Decrypt>:
    // r2-r5 : cipher state
    // r6-r7 : temp use
    // r8    : loop control
    // r9    : points to INV_SBOX
    // r10   : 0xff
    asm volatile(
   80314:	e92d 07fc 	stmdb	sp!, {r2, r3, r4, r5, r6, r7, r8, r9, sl}
   80318:	f04f 0824 	mov.w	r8, #36	; 0x24
   8031c:	f8df 90b4 	ldr.w	r9, [pc, #180]	; 803d4 <enc_loop+0xa2>
   80320:	f04f 0aff 	mov.w	sl, #255	; 0xff
   80324:	318c      	adds	r1, #140	; 0x8c
   80326:	e9d0 2400 	ldrd	r2, r4, [r0]
   8032a:	ea4f 4312 	mov.w	r3, r2, lsr #16
   8032e:	ea4f 4514 	mov.w	r5, r4, lsr #16

00080332 <enc_loop>:
   80332:	406a      	eors	r2, r5
   80334:	405d      	eors	r5, r3
   80336:	406c      	eors	r4, r5
   80338:	f364 441b 	bfi	r4, r4, #16, #12
   8033c:	ea4f 3414 	mov.w	r4, r4, lsr #12
   80340:	ba6d      	rev16	r5, r5
   80342:	f362 4213 	bfi	r2, r2, #16, #4
   80346:	ea4f 1212 	mov.w	r2, r2, lsr #4
   8034a:	680e      	ldr	r6, [r1, #0]
   8034c:	3904      	subs	r1, #4
   8034e:	4073      	eors	r3, r6
   80350:	ea94 4416 	eors.w	r4, r4, r6, lsr #16
   80354:	f095 0520 	eors.w	r5, r5, #32
   80358:	f002 06ff 	and.w	r6, r2, #255	; 0xff
   8035c:	f819 6006 	ldrb.w	r6, [r9, r6]
   80360:	f366 0707 	bfi	r7, r6, #0, #8
   80364:	ea0a 2612 	and.w	r6, sl, r2, lsr #8
   80368:	f819 6006 	ldrb.w	r6, [r9, r6]
   8036c:	f366 270f 	bfi	r7, r6, #8, #8
   80370:	f003 06ff 	and.w	r6, r3, #255	; 0xff
   80374:	f819 6006 	ldrb.w	r6, [r9, r6]
   80378:	f366 0207 	bfi	r2, r6, #0, #8
   8037c:	ea0a 2613 	and.w	r6, sl, r3, lsr #8
   80380:	f819 6006 	ldrb.w	r6, [r9, r6]
   80384:	f366 220f 	bfi	r2, r6, #8, #8
   80388:	f004 06ff 	and.w	r6, r4, #255	; 0xff
   8038c:	f819 6006 	ldrb.w	r6, [r9, r6]
   80390:	f366 0307 	bfi	r3, r6, #0, #8
   80394:	ea0a 2614 	and.w	r6, sl, r4, lsr #8
   80398:	f819 6006 	ldrb.w	r6, [r9, r6]
   8039c:	f366 230f 	bfi	r3, r6, #8, #8
   803a0:	f005 06ff 	and.w	r6, r5, #255	; 0xff
   803a4:	f819 6006 	ldrb.w	r6, [r9, r6]
   803a8:	f366 0407 	bfi	r4, r6, #0, #8
   803ac:	ea0a 2615 	and.w	r6, sl, r5, lsr #8
   803b0:	f819 6006 	ldrb.w	r6, [r9, r6]
   803b4:	f366 240f 	bfi	r4, r6, #8, #8
   803b8:	463d      	mov	r5, r7
   803ba:	f1b8 0801 	subs.w	r8, r8, #1
   803be:	d1b8      	bne.n	80332 <enc_loop>
   803c0:	f363 421f 	bfi	r2, r3, #16, #16
   803c4:	f365 441f 	bfi	r4, r5, #16, #16
   803c8:	e9c0 2400 	strd	r2, r4, [r0]
   803cc:	e8bd 07fc 	ldmia.w	sp!, {r2, r3, r4, r5, r6, r7, r8, r9, sl}
   803d0:	4770      	bx	lr
   803d2:	0000      	.short	0x0000
   803d4:	00089e88 	.word	0x00089e88

000803d8 <main>:
 *
 * Entry point into program
 *
 */
int main()
{
   803d8:	b500      	push	{lr}
   803da:	b0cb      	sub	sp, #300	; 0x12c

    RAM_DATA_BYTE key[KEY_SIZE];
    RAM_DATA_BYTE roundKeys[ROUND_KEYS_SIZE];


    InitializeDevice();
   803dc:	f000 f96c 	bl	806b8 <InitializeDevice>


    InitializeData(data, DATA_SIZE);
   803e0:	2180      	movs	r1, #128	; 0x80
   803e2:	a806      	add	r0, sp, #24
   803e4:	f000 f97c 	bl	806e0 <InitializeData>
#if defined(DEBUG) && (DEBUG_LOW == (DEBUG_LOW & DEBUG))
    DisplayData(data, DATA_SIZE, PLAINTEXT_NAME);
#endif


    InitializeIV(iv);
   803e8:	4668      	mov	r0, sp
   803ea:	f000 f989 	bl	80700 <InitializeIV>


    InitializeKey(key);
   803ee:	a802      	add	r0, sp, #8
   803f0:	f000 f966 	bl	806c0 <InitializeKey>
#if defined(DEBUG) && (DEBUG_MEDIUM == (DEBUG_MEDIUM & DEBUG))
    DisplayData(key, KEY_SIZE, KEY_NAME);
#endif


    BEGIN_ENCRYPTION_KEY_SCHEDULE();
   803f4:	f000 f950 	bl	80698 <BeginEncryptionKeySchedule>
    RunEncryptionKeySchedule(key, roundKeys);
   803f8:	a802      	add	r0, sp, #8
   803fa:	a926      	add	r1, sp, #152	; 0x98
   803fc:	f7ff ff2e 	bl	8025c <RunEncryptionKeySchedule>
    END_ENCRYPTION_KEY_SCHEDULE();
   80400:	f000 f94c 	bl	8069c <EndEncryptionKeySchedule>

#if defined(DEBUG) && (DEBUG_LOW == (DEBUG_LOW & DEBUG))
    DisplayData(data, DATA_SIZE, PLAINTEXT_NAME);
#endif

    BEGIN_ENCRYPTION();
   80404:	f000 f94c 	bl	806a0 <BeginEncryption>
    EncryptScenario1(data, roundKeys, iv);
   80408:	466a      	mov	r2, sp
   8040a:	a806      	add	r0, sp, #24
   8040c:	a926      	add	r1, sp, #152	; 0x98
   8040e:	f000 f819 	bl	80444 <EncryptScenario1>
    END_ENCRYPTION();
   80412:	f000 f947 	bl	806a4 <EndEncryption>
#if defined(DEBUG) && (DEBUG_LOW == (DEBUG_LOW & DEBUG))
    DisplayData(data, DATA_SIZE, CIPHERTEXT_NAME);
#endif


    BEGIN_DECRYPTION_KEY_SCHEDULE();
   80416:	f000 f947 	bl	806a8 <BeginDecryptionKeySchedule>
    RunDecryptionKeySchedule(key, roundKeys);
   8041a:	a802      	add	r0, sp, #8
   8041c:	a926      	add	r1, sp, #152	; 0x98
   8041e:	f7ff ff1b 	bl	80258 <RunDecryptionKeySchedule>
    END_DECRYPTION_KEY_SCHEDULE();
   80422:	f000 f943 	bl	806ac <EndDecryptionKeySchedule>

#if defined(DEBUG) && (DEBUG_LOW == (DEBUG_LOW & DEBUG))
    DisplayData(data, DATA_SIZE, CIPHERTEXT_NAME);
#endif

    BEGIN_DECRYPTION();
   80426:	f000 f943 	bl	806b0 <BeginDecryption>
    DecryptScenario1(data, roundKeys, iv);
   8042a:	a806      	add	r0, sp, #24
   8042c:	a926      	add	r1, sp, #152	; 0x98
   8042e:	466a      	mov	r2, sp
   80430:	f000 f884 	bl	8053c <DecryptScenario1>
    END_DECRYPTION();
   80434:	f000 f93e 	bl	806b4 <EndDecryption>


    DONE();


    StopDevice();
   80438:	f000 f940 	bl	806bc <StopDevice>


    return 0;
}
   8043c:	2000      	movs	r0, #0
   8043e:	b04b      	add	sp, #300	; 0x12c
   80440:	f85d fb04 	ldr.w	pc, [sp], #4

00080444 <EncryptScenario1>:
#include "scenario1.h"
#include "cipher.h"


void EncryptScenario1(uint8_t *data, uint8_t *roundKeys, uint8_t *iv)
{
   80444:	e92d 4ff8 	stmdb	sp!, {r3, r4, r5, r6, r7, r8, r9, sl, fp, lr}
   80448:	ea42 0300 	orr.w	r3, r2, r0
   8044c:	079b      	lsls	r3, r3, #30
   8044e:	4604      	mov	r4, r0
   80450:	460d      	mov	r5, r1
   80452:	d152      	bne.n	804fa <EncryptScenario1+0xb6>
   80454:	1d03      	adds	r3, r0, #4
   80456:	1d11      	adds	r1, r2, #4
   80458:	4288      	cmp	r0, r1
   8045a:	bf38      	it	cc
   8045c:	429a      	cmpcc	r2, r3
   8045e:	d34c      	bcc.n	804fa <EncryptScenario1+0xb6>


    /* Encrypt first data block */
    for(i = 0; i < BLOCK_SIZE; i++)
    {
        data[i] ^= iv[i];
   80460:	6803      	ldr	r3, [r0, #0]
   80462:	6811      	ldr	r1, [r2, #0]
   80464:	6840      	ldr	r0, [r0, #4]
   80466:	4059      	eors	r1, r3
   80468:	6021      	str	r1, [r4, #0]
   8046a:	6853      	ldr	r3, [r2, #4]
   8046c:	4043      	eors	r3, r0
   8046e:	6063      	str	r3, [r4, #4]
    }

    Encrypt(&data[0], roundKeys);
   80470:	4620      	mov	r0, r4
   80472:	46a0      	mov	r8, r4
   80474:	4629      	mov	r1, r5
   80476:	f7ff fe8f 	bl	80198 <Encrypt>
   8047a:	3408      	adds	r4, #8
   8047c:	f108 0680 	add.w	r6, r8, #128	; 0x80
    for(i = BLOCK_SIZE; i < DATA_SIZE; i += BLOCK_SIZE)
    {
        for(j = 0; j < BLOCK_SIZE; j++)
        {
            int16_t index = i + j;
            data[index] ^= data[index - BLOCK_SIZE];
   80480:	f898 3008 	ldrb.w	r3, [r8, #8]
   80484:	f814 2c08 	ldrb.w	r2, [r4, #-8]
        }

        Encrypt(&data[i], roundKeys);
   80488:	4620      	mov	r0, r4
    for(i = BLOCK_SIZE; i < DATA_SIZE; i += BLOCK_SIZE)
    {
        for(j = 0; j < BLOCK_SIZE; j++)
        {
            int16_t index = i + j;
            data[index] ^= data[index - BLOCK_SIZE];
   8048a:	4053      	eors	r3, r2
   8048c:	f808 3f08 	strb.w	r3, [r8, #8]!
   80490:	7863      	ldrb	r3, [r4, #1]
   80492:	f814 9c07 	ldrb.w	r9, [r4, #-7]
   80496:	78e2      	ldrb	r2, [r4, #3]
   80498:	f814 bc06 	ldrb.w	fp, [r4, #-6]
   8049c:	f894 c002 	ldrb.w	ip, [r4, #2]
   804a0:	f814 ac04 	ldrb.w	sl, [r4, #-4]
   804a4:	7927      	ldrb	r7, [r4, #4]
   804a6:	f814 ec05 	ldrb.w	lr, [r4, #-5]
   804aa:	f814 1c03 	ldrb.w	r1, [r4, #-3]
   804ae:	ea89 0903 	eor.w	r9, r9, r3
   804b2:	7963      	ldrb	r3, [r4, #5]
   804b4:	ea8b 0c0c 	eor.w	ip, fp, ip
   804b8:	ea8e 0e02 	eor.w	lr, lr, r2
   804bc:	f814 bc02 	ldrb.w	fp, [r4, #-2]
   804c0:	79a2      	ldrb	r2, [r4, #6]
   804c2:	4059      	eors	r1, r3
   804c4:	ea8a 0707 	eor.w	r7, sl, r7
   804c8:	79e3      	ldrb	r3, [r4, #7]
   804ca:	f814 ac01 	ldrb.w	sl, [r4, #-1]
   804ce:	ea8b 0202 	eor.w	r2, fp, r2
   804d2:	ea8a 0303 	eor.w	r3, sl, r3
   804d6:	7161      	strb	r1, [r4, #5]
   804d8:	f884 9001 	strb.w	r9, [r4, #1]
   804dc:	f884 c002 	strb.w	ip, [r4, #2]
   804e0:	f884 e003 	strb.w	lr, [r4, #3]
   804e4:	7127      	strb	r7, [r4, #4]
   804e6:	71a2      	strb	r2, [r4, #6]
   804e8:	71e3      	strb	r3, [r4, #7]
        }

        Encrypt(&data[i], roundKeys);
   804ea:	4629      	mov	r1, r5
   804ec:	3408      	adds	r4, #8
   804ee:	f7ff fe53 	bl	80198 <Encrypt>

    Encrypt(&data[0], roundKeys);


    /* Encrypt the remaining data blocks */
    for(i = BLOCK_SIZE; i < DATA_SIZE; i += BLOCK_SIZE)
   804f2:	42b4      	cmp	r4, r6
   804f4:	d1c4      	bne.n	80480 <EncryptScenario1+0x3c>
            data[index] ^= data[index - BLOCK_SIZE];
        }

        Encrypt(&data[i], roundKeys);
    }
}
   804f6:	e8bd 8ff8 	ldmia.w	sp!, {r3, r4, r5, r6, r7, r8, r9, sl, fp, pc}


    /* Encrypt first data block */
    for(i = 0; i < BLOCK_SIZE; i++)
    {
        data[i] ^= iv[i];
   804fa:	7810      	ldrb	r0, [r2, #0]
   804fc:	7821      	ldrb	r1, [r4, #0]
   804fe:	7863      	ldrb	r3, [r4, #1]
   80500:	4041      	eors	r1, r0
   80502:	7021      	strb	r1, [r4, #0]
   80504:	7850      	ldrb	r0, [r2, #1]
   80506:	78a1      	ldrb	r1, [r4, #2]
   80508:	4043      	eors	r3, r0
   8050a:	7063      	strb	r3, [r4, #1]
   8050c:	7890      	ldrb	r0, [r2, #2]
   8050e:	78e3      	ldrb	r3, [r4, #3]
   80510:	4041      	eors	r1, r0
   80512:	70a1      	strb	r1, [r4, #2]
   80514:	78d0      	ldrb	r0, [r2, #3]
   80516:	7921      	ldrb	r1, [r4, #4]
   80518:	4043      	eors	r3, r0
   8051a:	70e3      	strb	r3, [r4, #3]
   8051c:	7910      	ldrb	r0, [r2, #4]
   8051e:	7963      	ldrb	r3, [r4, #5]
   80520:	4041      	eors	r1, r0
   80522:	7121      	strb	r1, [r4, #4]
   80524:	7950      	ldrb	r0, [r2, #5]
   80526:	79a1      	ldrb	r1, [r4, #6]
   80528:	4043      	eors	r3, r0
   8052a:	7163      	strb	r3, [r4, #5]
   8052c:	7990      	ldrb	r0, [r2, #6]
   8052e:	79e3      	ldrb	r3, [r4, #7]
   80530:	4041      	eors	r1, r0
   80532:	71a1      	strb	r1, [r4, #6]
   80534:	79d2      	ldrb	r2, [r2, #7]
   80536:	4053      	eors	r3, r2
   80538:	71e3      	strb	r3, [r4, #7]
   8053a:	e799      	b.n	80470 <EncryptScenario1+0x2c>

0008053c <DecryptScenario1>:
#include "scenario1.h"
#include "cipher.h"


void DecryptScenario1(uint8_t *data, uint8_t *roundKeys, uint8_t *iv)
{
   8053c:	e92d 4ff0 	stmdb	sp!, {r4, r5, r6, r7, r8, r9, sl, fp, lr}
   80540:	4604      	mov	r4, r0
   80542:	460f      	mov	r7, r1
   80544:	4615      	mov	r5, r2
   80546:	6800      	ldr	r0, [r0, #0]
   80548:	6861      	ldr	r1, [r4, #4]
   8054a:	b087      	sub	sp, #28
   8054c:	ab02      	add	r3, sp, #8
   8054e:	c303      	stmia	r3!, {r0, r1}
    for(i = 0; i < BLOCK_SIZE; i++)
    {
        previous[0][i] = data[i];
    }

    Decrypt(&data[0], roundKeys);
   80550:	4620      	mov	r0, r4
   80552:	4639      	mov	r1, r7
   80554:	f7ff fede 	bl	80314 <Decrypt>
   80558:	ea44 0305 	orr.w	r3, r4, r5
   8055c:	079b      	lsls	r3, r3, #30
   8055e:	d179      	bne.n	80654 <DecryptScenario1+0x118>
   80560:	1d23      	adds	r3, r4, #4
   80562:	1d2a      	adds	r2, r5, #4
   80564:	4294      	cmp	r4, r2
   80566:	bf38      	it	cc
   80568:	429d      	cmpcc	r5, r3
   8056a:	d373      	bcc.n	80654 <DecryptScenario1+0x118>

    for(i = 0; i < BLOCK_SIZE; i++)
    {
        data[i] ^= iv[i];
   8056c:	6823      	ldr	r3, [r4, #0]
   8056e:	682a      	ldr	r2, [r5, #0]
   80570:	6861      	ldr	r1, [r4, #4]
   80572:	405a      	eors	r2, r3
   80574:	6022      	str	r2, [r4, #0]
   80576:	686b      	ldr	r3, [r5, #4]
   80578:	404b      	eors	r3, r1
   8057a:	6063      	str	r3, [r4, #4]
   8057c:	f104 0378 	add.w	r3, r4, #120	; 0x78
#include "scenario1.h"
#include "cipher.h"


void DecryptScenario1(uint8_t *data, uint8_t *roundKeys, uint8_t *iv)
{
   80580:	2501      	movs	r5, #1
   80582:	9301      	str	r3, [sp, #4]
    /* Decrypt the remaining data blocks */
    for(i = BLOCK_SIZE; i < DATA_SIZE; i += BLOCK_SIZE)
    {
        for(j = 0; j < BLOCK_SIZE; j++)
        {
            previous[k][j] = data[i + j];
   80584:	7a22      	ldrb	r2, [r4, #8]
   80586:	ab06      	add	r3, sp, #24
   80588:	eb03 03c5 	add.w	r3, r3, r5, lsl #3
   8058c:	7a61      	ldrb	r1, [r4, #9]
   8058e:	f894 a00a 	ldrb.w	sl, [r4, #10]
   80592:	f894 900b 	ldrb.w	r9, [r4, #11]
   80596:	f894 c00c 	ldrb.w	ip, [r4, #12]
   8059a:	f894 e00d 	ldrb.w	lr, [r4, #13]
   8059e:	7ba6      	ldrb	r6, [r4, #14]
   805a0:	f104 0808 	add.w	r8, r4, #8
   805a4:	f803 2c10 	strb.w	r2, [r3, #-16]
   805a8:	7be2      	ldrb	r2, [r4, #15]
   805aa:	f803 1c0f 	strb.w	r1, [r3, #-15]
        }
        k = (k + 1) % 2;

        Decrypt(&data[i], roundKeys);
   805ae:	4640      	mov	r0, r8
   805b0:	4639      	mov	r1, r7
    /* Decrypt the remaining data blocks */
    for(i = BLOCK_SIZE; i < DATA_SIZE; i += BLOCK_SIZE)
    {
        for(j = 0; j < BLOCK_SIZE; j++)
        {
            previous[k][j] = data[i + j];
   805b2:	f803 ac0e 	strb.w	sl, [r3, #-14]
   805b6:	f803 9c0d 	strb.w	r9, [r3, #-13]
   805ba:	f803 cc0c 	strb.w	ip, [r3, #-12]
   805be:	f803 ec0b 	strb.w	lr, [r3, #-11]
   805c2:	f803 6c0a 	strb.w	r6, [r3, #-10]
   805c6:	f803 2c09 	strb.w	r2, [r3, #-9]
        }
        k = (k + 1) % 2;
   805ca:	f085 0501 	eor.w	r5, r5, #1

        Decrypt(&data[i], roundKeys);
   805ce:	f7ff fea1 	bl	80314 <Decrypt>

        for(j = 0; j < BLOCK_SIZE; j++)
        {
            data[i + j] ^= previous[k][j];
   805d2:	ab06      	add	r3, sp, #24
   805d4:	eb03 03c5 	add.w	r3, r3, r5, lsl #3
   805d8:	f894 a009 	ldrb.w	sl, [r4, #9]
   805dc:	f813 0c10 	ldrb.w	r0, [r3, #-16]
   805e0:	f894 9008 	ldrb.w	r9, [r4, #8]
   805e4:	f813 cc0f 	ldrb.w	ip, [r3, #-15]
   805e8:	f813 2c0e 	ldrb.w	r2, [r3, #-14]
   805ec:	f894 e00a 	ldrb.w	lr, [r4, #10]
   805f0:	ea89 0900 	eor.w	r9, r9, r0
   805f4:	ea8a 0c0c 	eor.w	ip, sl, ip
   805f8:	f813 0c0c 	ldrb.w	r0, [r3, #-12]
   805fc:	f894 a00c 	ldrb.w	sl, [r4, #12]
   80600:	f813 1c0d 	ldrb.w	r1, [r3, #-13]
   80604:	7ae6      	ldrb	r6, [r4, #11]
   80606:	ea8e 0e02 	eor.w	lr, lr, r2
   8060a:	ea8a 0000 	eor.w	r0, sl, r0
   8060e:	f813 2c0b 	ldrb.w	r2, [r3, #-11]
   80612:	f894 a00f 	ldrb.w	sl, [r4, #15]
   80616:	f813 bc0a 	ldrb.w	fp, [r3, #-10]
   8061a:	f813 3c09 	ldrb.w	r3, [r3, #-9]
   8061e:	404e      	eors	r6, r1
   80620:	7b61      	ldrb	r1, [r4, #13]
   80622:	ea8a 0303 	eor.w	r3, sl, r3
   80626:	4051      	eors	r1, r2
   80628:	73e3      	strb	r3, [r4, #15]
   8062a:	7ba2      	ldrb	r2, [r4, #14]
    }


    uint8_t k = 1;
    /* Decrypt the remaining data blocks */
    for(i = BLOCK_SIZE; i < DATA_SIZE; i += BLOCK_SIZE)
   8062c:	9b01      	ldr	r3, [sp, #4]

        Decrypt(&data[i], roundKeys);

        for(j = 0; j < BLOCK_SIZE; j++)
        {
            data[i + j] ^= previous[k][j];
   8062e:	ea82 020b 	eor.w	r2, r2, fp
    }


    uint8_t k = 1;
    /* Decrypt the remaining data blocks */
    for(i = BLOCK_SIZE; i < DATA_SIZE; i += BLOCK_SIZE)
   80632:	4543      	cmp	r3, r8

        Decrypt(&data[i], roundKeys);

        for(j = 0; j < BLOCK_SIZE; j++)
        {
            data[i + j] ^= previous[k][j];
   80634:	f884 9008 	strb.w	r9, [r4, #8]
   80638:	f884 c009 	strb.w	ip, [r4, #9]
   8063c:	f884 e00a 	strb.w	lr, [r4, #10]
   80640:	72e6      	strb	r6, [r4, #11]
   80642:	7320      	strb	r0, [r4, #12]
   80644:	7361      	strb	r1, [r4, #13]
   80646:	73a2      	strb	r2, [r4, #14]
    {
        for(j = 0; j < BLOCK_SIZE; j++)
        {
            previous[k][j] = data[i + j];
        }
        k = (k + 1) % 2;
   80648:	b2ed      	uxtb	r5, r5
   8064a:	4644      	mov	r4, r8
    }


    uint8_t k = 1;
    /* Decrypt the remaining data blocks */
    for(i = BLOCK_SIZE; i < DATA_SIZE; i += BLOCK_SIZE)
   8064c:	d19a      	bne.n	80584 <DecryptScenario1+0x48>
        for(j = 0; j < BLOCK_SIZE; j++)
        {
            data[i + j] ^= previous[k][j];
        }
    }
}
   8064e:	b007      	add	sp, #28
   80650:	e8bd 8ff0 	ldmia.w	sp!, {r4, r5, r6, r7, r8, r9, sl, fp, pc}

    Decrypt(&data[0], roundKeys);

    for(i = 0; i < BLOCK_SIZE; i++)
    {
        data[i] ^= iv[i];
   80654:	7829      	ldrb	r1, [r5, #0]
   80656:	7822      	ldrb	r2, [r4, #0]
   80658:	7863      	ldrb	r3, [r4, #1]
   8065a:	404a      	eors	r2, r1
   8065c:	7022      	strb	r2, [r4, #0]
   8065e:	7869      	ldrb	r1, [r5, #1]
   80660:	78a2      	ldrb	r2, [r4, #2]
   80662:	404b      	eors	r3, r1
   80664:	7063      	strb	r3, [r4, #1]
   80666:	78a9      	ldrb	r1, [r5, #2]
   80668:	78e3      	ldrb	r3, [r4, #3]
   8066a:	404a      	eors	r2, r1
   8066c:	70a2      	strb	r2, [r4, #2]
   8066e:	78e9      	ldrb	r1, [r5, #3]
   80670:	7922      	ldrb	r2, [r4, #4]
   80672:	404b      	eors	r3, r1
   80674:	70e3      	strb	r3, [r4, #3]
   80676:	7929      	ldrb	r1, [r5, #4]
   80678:	7963      	ldrb	r3, [r4, #5]
   8067a:	404a      	eors	r2, r1
   8067c:	7122      	strb	r2, [r4, #4]
   8067e:	7969      	ldrb	r1, [r5, #5]
   80680:	79a2      	ldrb	r2, [r4, #6]
   80682:	404b      	eors	r3, r1
   80684:	7163      	strb	r3, [r4, #5]
   80686:	79a9      	ldrb	r1, [r5, #6]
   80688:	79e3      	ldrb	r3, [r4, #7]
   8068a:	404a      	eors	r2, r1
   8068c:	71a2      	strb	r2, [r4, #6]
   8068e:	79ea      	ldrb	r2, [r5, #7]
   80690:	4053      	eors	r3, r2
   80692:	71e3      	strb	r3, [r4, #7]
   80694:	e772      	b.n	8057c <DecryptScenario1+0x40>
   80696:	bf00      	nop

00080698 <BeginEncryptionKeySchedule>:

#endif


void BeginEncryptionKeySchedule()
{
   80698:	4770      	bx	lr
   8069a:	bf00      	nop

0008069c <EndEncryptionKeySchedule>:
    printf("->EncryptionKeySchedule begin\n");
#endif
}

void EndEncryptionKeySchedule()
{
   8069c:	4770      	bx	lr
   8069e:	bf00      	nop

000806a0 <BeginEncryption>:
    printf("->EncryptionKeySchedule end\n");
#endif
}

void BeginEncryption()
{
   806a0:	4770      	bx	lr
   806a2:	bf00      	nop

000806a4 <EndEncryption>:
    printf("->Encryption begin\n");
#endif
}

void EndEncryption()
{
   806a4:	4770      	bx	lr
   806a6:	bf00      	nop

000806a8 <BeginDecryptionKeySchedule>:
    printf("->Encryption end\n");
#endif
}

void BeginDecryptionKeySchedule()
{
   806a8:	4770      	bx	lr
   806aa:	bf00      	nop

000806ac <EndDecryptionKeySchedule>:
    printf("->DecryptionKeySchedule begin\n");
#endif
}

void EndDecryptionKeySchedule()
{
   806ac:	4770      	bx	lr
   806ae:	bf00      	nop

000806b0 <BeginDecryption>:
    printf("->DecryptionKeySchedule end\n");
#endif
}

void BeginDecryption()
{
   806b0:	4770      	bx	lr
   806b2:	bf00      	nop

000806b4 <EndDecryption>:
    printf("->Decryption begin\n");
#endif
}

void EndDecryption()
{
   806b4:	4770      	bx	lr
   806b6:	bf00      	nop

000806b8 <InitializeDevice>:
 */
extern void init(void);

void InitializeDevice()
{
    init();
   806b8:	f000 b896 	b.w	807e8 <init>

000806bc <StopDevice>:
}

void StopDevice()
{
   806bc:	4770      	bx	lr
   806be:	bf00      	nop

000806c0 <InitializeKey>:

#endif /* ARM */


void InitializeKey(uint8_t *key)
{
   806c0:	4b06      	ldr	r3, [pc, #24]	; (806dc <InitializeKey+0x1c>)
   806c2:	b410      	push	{r4}
   806c4:	6859      	ldr	r1, [r3, #4]
   806c6:	681c      	ldr	r4, [r3, #0]
   806c8:	689a      	ldr	r2, [r3, #8]
   806ca:	68db      	ldr	r3, [r3, #12]
   806cc:	6004      	str	r4, [r0, #0]
   806ce:	6041      	str	r1, [r0, #4]
   806d0:	6082      	str	r2, [r0, #8]
   806d2:	60c3      	str	r3, [r0, #12]

    for(i = 0; i < KEY_SIZE; i++)
    {
        key[i] = expectedKey[i];
    }
}
   806d4:	f85d 4b04 	ldr.w	r4, [sp], #4
   806d8:	4770      	bx	lr
   806da:	bf00      	nop
   806dc:	0008a0ac 	.word	0x0008a0ac

000806e0 <InitializeData>:

void InitializeData(uint8_t *data, int length)
{
    uint8_t i;

    for(i = 0; i < length; i++)
   806e0:	2900      	cmp	r1, #0
   806e2:	dd0c      	ble.n	806fe <InitializeData+0x1e>
    }
}


void InitializeData(uint8_t *data, int length)
{
   806e4:	b470      	push	{r4, r5, r6}
   806e6:	b2ce      	uxtb	r6, r1
    uint8_t i;

    for(i = 0; i < length; i++)
   806e8:	2400      	movs	r4, #0
   806ea:	b2e2      	uxtb	r2, r4
   806ec:	1c53      	adds	r3, r2, #1
   806ee:	b2db      	uxtb	r3, r3
   806f0:	1ab5      	subs	r5, r6, r2
   806f2:	428b      	cmp	r3, r1
   806f4:	f104 0401 	add.w	r4, r4, #1
    {
        data[i] = length - i;
   806f8:	5485      	strb	r5, [r0, r2]

void InitializeData(uint8_t *data, int length)
{
    uint8_t i;

    for(i = 0; i < length; i++)
   806fa:	dbf6      	blt.n	806ea <InitializeData+0xa>
    {
        data[i] = length - i;
    }
}
   806fc:	bc70      	pop	{r4, r5, r6}
   806fe:	4770      	bx	lr

00080700 <InitializeIV>:
        block[i] = BLOCK_SIZE - i;
    }
}

void InitializeIV(uint8_t *iv)
{
   80700:	b5f0      	push	{r4, r5, r6, r7, lr}
    uint8_t i;

    for(i = 0; i < BLOCK_SIZE; i++)
    {
        iv[i] = BLOCK_SIZE - i;
   80702:	2103      	movs	r1, #3
   80704:	f04f 0e08 	mov.w	lr, #8
   80708:	2707      	movs	r7, #7
   8070a:	2606      	movs	r6, #6
   8070c:	2505      	movs	r5, #5
   8070e:	2404      	movs	r4, #4
   80710:	2202      	movs	r2, #2
   80712:	2301      	movs	r3, #1
   80714:	f880 e000 	strb.w	lr, [r0]
   80718:	7047      	strb	r7, [r0, #1]
   8071a:	7086      	strb	r6, [r0, #2]
   8071c:	70c5      	strb	r5, [r0, #3]
   8071e:	7104      	strb	r4, [r0, #4]
   80720:	7141      	strb	r1, [r0, #5]
   80722:	7182      	strb	r2, [r0, #6]
   80724:	71c3      	strb	r3, [r0, #7]
   80726:	bdf0      	pop	{r4, r5, r6, r7, pc}

00080728 <Reset_Handler>:
   80728:	b580      	push	{r7, lr}
   8072a:	b082      	sub	sp, #8
   8072c:	af00      	add	r7, sp, #0
   8072e:	f24a 3344 	movw	r3, #41796	; 0xa344
   80732:	f2c0 0308 	movt	r3, #8
   80736:	607b      	str	r3, [r7, #4]
   80738:	f240 0300 	movw	r3, #0
   8073c:	f2c2 0307 	movt	r3, #8199	; 0x2007
   80740:	603b      	str	r3, [r7, #0]
   80742:	687a      	ldr	r2, [r7, #4]
   80744:	683b      	ldr	r3, [r7, #0]
   80746:	429a      	cmp	r2, r3
   80748:	d00f      	beq.n	8076a <Reset_Handler+0x42>
   8074a:	e007      	b.n	8075c <Reset_Handler+0x34>
   8074c:	683b      	ldr	r3, [r7, #0]
   8074e:	1d1a      	adds	r2, r3, #4
   80750:	603a      	str	r2, [r7, #0]
   80752:	687a      	ldr	r2, [r7, #4]
   80754:	1d11      	adds	r1, r2, #4
   80756:	6079      	str	r1, [r7, #4]
   80758:	6812      	ldr	r2, [r2, #0]
   8075a:	601a      	str	r2, [r3, #0]
   8075c:	683a      	ldr	r2, [r7, #0]
   8075e:	f240 5388 	movw	r3, #1416	; 0x588
   80762:	f2c2 0307 	movt	r3, #8199	; 0x2007
   80766:	429a      	cmp	r2, r3
   80768:	d3f0      	bcc.n	8074c <Reset_Handler+0x24>
   8076a:	f240 5388 	movw	r3, #1416	; 0x588
   8076e:	f2c2 0307 	movt	r3, #8199	; 0x2007
   80772:	603b      	str	r3, [r7, #0]
   80774:	e004      	b.n	80780 <Reset_Handler+0x58>
   80776:	683b      	ldr	r3, [r7, #0]
   80778:	1d1a      	adds	r2, r3, #4
   8077a:	603a      	str	r2, [r7, #0]
   8077c:	2200      	movs	r2, #0
   8077e:	601a      	str	r2, [r3, #0]
   80780:	683a      	ldr	r2, [r7, #0]
   80782:	f240 53e8 	movw	r3, #1512	; 0x5e8
   80786:	f2c2 0307 	movt	r3, #8199	; 0x2007
   8078a:	429a      	cmp	r2, r3
   8078c:	d3f3      	bcc.n	80776 <Reset_Handler+0x4e>
   8078e:	f240 0300 	movw	r3, #0
   80792:	f2c0 0308 	movt	r3, #8
   80796:	607b      	str	r3, [r7, #4]
   80798:	f44f 436d 	mov.w	r3, #60672	; 0xed00
   8079c:	f2ce 0300 	movt	r3, #57344	; 0xe000
   807a0:	687a      	ldr	r2, [r7, #4]
   807a2:	f022 4260 	bic.w	r2, r2, #3758096384	; 0xe0000000
   807a6:	f022 027f 	bic.w	r2, r2, #127	; 0x7f
   807aa:	609a      	str	r2, [r3, #8]
   807ac:	687b      	ldr	r3, [r7, #4]
   807ae:	f1b3 5f00 	cmp.w	r3, #536870912	; 0x20000000
   807b2:	d312      	bcc.n	807da <Reset_Handler+0xb2>
   807b4:	687a      	ldr	r2, [r7, #4]
   807b6:	f64f 73ff 	movw	r3, #65535	; 0xffff
   807ba:	f2c2 030f 	movt	r3, #8207	; 0x200f
   807be:	429a      	cmp	r2, r3
   807c0:	d80b      	bhi.n	807da <Reset_Handler+0xb2>
   807c2:	f44f 436d 	mov.w	r3, #60672	; 0xed00
   807c6:	f2ce 0300 	movt	r3, #57344	; 0xe000
   807ca:	f44f 426d 	mov.w	r2, #60672	; 0xed00
   807ce:	f2ce 0200 	movt	r2, #57344	; 0xe000
   807d2:	6892      	ldr	r2, [r2, #8]
   807d4:	f042 5200 	orr.w	r2, r2, #536870912	; 0x20000000
   807d8:	609a      	str	r2, [r3, #8]
   807da:	f7ff fdfd 	bl	803d8 <main>
   807de:	e7fe      	b.n	807de <Reset_Handler+0xb6>

000807e0 <Dummy_Handler>:
   807e0:	b480      	push	{r7}
   807e2:	af00      	add	r7, sp, #0
   807e4:	e7fe      	b.n	807e4 <Dummy_Handler+0x4>
   807e6:	bf00      	nop

000807e8 <init>:
   807e8:	b590      	push	{r4, r7, lr}
   807ea:	b085      	sub	sp, #20
   807ec:	af00      	add	r7, sp, #0
   807ee:	f000 f889 	bl	80904 <SystemInit>
   807f2:	f002 fa2d 	bl	82c50 <__libc_init_array>
   807f6:	f641 2050 	movw	r0, #6736	; 0x1a50
   807fa:	f2c4 000e 	movt	r0, #16398	; 0x400e
   807fe:	f001 fff9 	bl	827f4 <wdt_disable>
   80802:	f44f 5080 	mov.w	r0, #4096	; 0x1000
   80806:	f2c4 000e 	movt	r0, #16398	; 0x400e
   8080a:	f04f 5140 	mov.w	r1, #805306368	; 0x30000000
   8080e:	f04f 6200 	mov.w	r2, #134217728	; 0x8000000
   80812:	2300      	movs	r3, #0
   80814:	f000 fbd8 	bl	80fc8 <pio_configure>
   80818:	f44f 6060 	mov.w	r0, #3584	; 0xe00
   8081c:	f2c4 000e 	movt	r0, #16398	; 0x400e
   80820:	f04f 5140 	mov.w	r1, #805306368	; 0x30000000
   80824:	f44f 1200 	mov.w	r2, #2097152	; 0x200000
   80828:	2300      	movs	r3, #0
   8082a:	f000 fbcd 	bl	80fc8 <pio_configure>
   8082e:	f44f 5090 	mov.w	r0, #4608	; 0x1200
   80832:	f2c4 000e 	movt	r0, #16398	; 0x400e
   80836:	f04f 5140 	mov.w	r1, #805306368	; 0x30000000
   8083a:	f04f 4280 	mov.w	r2, #1073741824	; 0x40000000
   8083e:	2300      	movs	r3, #0
   80840:	f000 fbc2 	bl	80fc8 <pio_configure>
   80844:	2008      	movs	r0, #8
   80846:	f001 fb61 	bl	81f0c <pmc_enable_periph_clk>
   8084a:	f44f 6360 	mov.w	r3, #3584	; 0xe00
   8084e:	f2c4 030e 	movt	r3, #16398	; 0x400e
   80852:	f44f 7240 	mov.w	r2, #768	; 0x300
   80856:	645a      	str	r2, [r3, #68]	; 0x44
   80858:	f44f 6360 	mov.w	r3, #3584	; 0xe00
   8085c:	f2c4 030e 	movt	r3, #16398	; 0x400e
   80860:	f44f 6260 	mov.w	r2, #3584	; 0xe00
   80864:	f2c4 020e 	movt	r2, #16398	; 0x400e
   80868:	6f12      	ldr	r2, [r2, #112]	; 0x70
   8086a:	f422 7240 	bic.w	r2, r2, #768	; 0x300
   8086e:	671a      	str	r2, [r3, #112]	; 0x70
   80870:	f44f 6360 	mov.w	r3, #3584	; 0xe00
   80874:	f2c4 030e 	movt	r3, #16398	; 0x400e
   80878:	f44f 7240 	mov.w	r2, #768	; 0x300
   8087c:	605a      	str	r2, [r3, #4]
   8087e:	f44f 6360 	mov.w	r3, #3584	; 0xe00
   80882:	f2c4 030e 	movt	r3, #16398	; 0x400e
   80886:	f44f 7240 	mov.w	r2, #768	; 0x300
   8088a:	665a      	str	r2, [r3, #100]	; 0x64
   8088c:	f44f 63c0 	mov.w	r3, #1536	; 0x600
   80890:	f2c4 030e 	movt	r3, #16398	; 0x400e
   80894:	f44f 7280 	mov.w	r2, #256	; 0x100
   80898:	611a      	str	r2, [r3, #16]
   8089a:	f24a 03bc 	movw	r3, #41148	; 0xa0bc
   8089e:	f2c0 0308 	movt	r3, #8
   808a2:	1d3c      	adds	r4, r7, #4
   808a4:	e893 0007 	ldmia.w	r3, {r0, r1, r2}
   808a8:	e884 0007 	stmia.w	r4, {r0, r1, r2}
   808ac:	1d3b      	adds	r3, r7, #4
   808ae:	f44f 6000 	mov.w	r0, #2048	; 0x800
   808b2:	f2c4 000e 	movt	r0, #16398	; 0x400e
   808b6:	4619      	mov	r1, r3
   808b8:	f001 ffe6 	bl	82888 <uart_init>
   808bc:	f24e 0310 	movw	r3, #57360	; 0xe010
   808c0:	f2ce 0300 	movt	r3, #57344	; 0xe000
   808c4:	f06f 427f 	mvn.w	r2, #4278190080	; 0xff000000
   808c8:	605a      	str	r2, [r3, #4]
   808ca:	f24e 0310 	movw	r3, #57360	; 0xe010
   808ce:	f2ce 0300 	movt	r3, #57344	; 0xe000
   808d2:	2200      	movs	r2, #0
   808d4:	609a      	str	r2, [r3, #8]
   808d6:	f24e 0310 	movw	r3, #57360	; 0xe010
   808da:	f2ce 0300 	movt	r3, #57344	; 0xe000
   808de:	2205      	movs	r2, #5
   808e0:	601a      	str	r2, [r3, #0]
   808e2:	bf00      	nop
   808e4:	f240 53e0 	movw	r3, #1504	; 0x5e0
   808e8:	f2c2 0307 	movt	r3, #8199	; 0x2007
   808ec:	2200      	movs	r2, #0
   808ee:	601a      	str	r2, [r3, #0]
   808f0:	f240 53dc 	movw	r3, #1500	; 0x5dc
   808f4:	f2c2 0307 	movt	r3, #8199	; 0x2007
   808f8:	2200      	movs	r2, #0
   808fa:	601a      	str	r2, [r3, #0]
   808fc:	3714      	adds	r7, #20
   808fe:	46bd      	mov	sp, r7
   80900:	bd90      	pop	{r4, r7, pc}
   80902:	bf00      	nop

00080904 <SystemInit>:
   80904:	b480      	push	{r7}
   80906:	af00      	add	r7, sp, #0
   80908:	f44f 6320 	mov.w	r3, #2560	; 0xa00
   8090c:	f2c4 030e 	movt	r3, #16398	; 0x400e
   80910:	f44f 6280 	mov.w	r2, #1024	; 0x400
   80914:	601a      	str	r2, [r3, #0]
   80916:	f44f 6340 	mov.w	r3, #3072	; 0xc00
   8091a:	f2c4 030e 	movt	r3, #16398	; 0x400e
   8091e:	f44f 6280 	mov.w	r2, #1024	; 0x400
   80922:	601a      	str	r2, [r3, #0]
   80924:	f44f 63c0 	mov.w	r3, #1536	; 0x600
   80928:	f2c4 030e 	movt	r3, #16398	; 0x400e
   8092c:	6a1b      	ldr	r3, [r3, #32]
   8092e:	f003 7380 	and.w	r3, r3, #16777216	; 0x1000000
   80932:	2b00      	cmp	r3, #0
   80934:	d112      	bne.n	8095c <SystemInit+0x58>
   80936:	f44f 63c0 	mov.w	r3, #1536	; 0x600
   8093a:	f2c4 030e 	movt	r3, #16398	; 0x400e
   8093e:	f640 0209 	movw	r2, #2057	; 0x809
   80942:	f2c0 0237 	movt	r2, #55	; 0x37
   80946:	621a      	str	r2, [r3, #32]
   80948:	bf00      	nop
   8094a:	f44f 63c0 	mov.w	r3, #1536	; 0x600
   8094e:	f2c4 030e 	movt	r3, #16398	; 0x400e
   80952:	6e9b      	ldr	r3, [r3, #104]	; 0x68
   80954:	f003 0301 	and.w	r3, r3, #1
   80958:	2b00      	cmp	r3, #0
   8095a:	d0f6      	beq.n	8094a <SystemInit+0x46>
   8095c:	f44f 63c0 	mov.w	r3, #1536	; 0x600
   80960:	f2c4 030e 	movt	r3, #16398	; 0x400e
   80964:	f640 0209 	movw	r2, #2057	; 0x809
   80968:	f2c0 1237 	movt	r2, #311	; 0x137
   8096c:	621a      	str	r2, [r3, #32]
   8096e:	bf00      	nop
   80970:	f44f 63c0 	mov.w	r3, #1536	; 0x600
   80974:	f2c4 030e 	movt	r3, #16398	; 0x400e
   80978:	6e9b      	ldr	r3, [r3, #104]	; 0x68
   8097a:	f403 3380 	and.w	r3, r3, #65536	; 0x10000
   8097e:	2b00      	cmp	r3, #0
   80980:	d0f6      	beq.n	80970 <SystemInit+0x6c>
   80982:	f44f 63c0 	mov.w	r3, #1536	; 0x600
   80986:	f2c4 030e 	movt	r3, #16398	; 0x400e
   8098a:	f44f 62c0 	mov.w	r2, #1536	; 0x600
   8098e:	f2c4 020e 	movt	r2, #16398	; 0x400e
   80992:	6b12      	ldr	r2, [r2, #48]	; 0x30
   80994:	f022 0203 	bic.w	r2, r2, #3
   80998:	f042 0201 	orr.w	r2, r2, #1
   8099c:	631a      	str	r2, [r3, #48]	; 0x30
   8099e:	bf00      	nop
   809a0:	f44f 63c0 	mov.w	r3, #1536	; 0x600
   809a4:	f2c4 030e 	movt	r3, #16398	; 0x400e
   809a8:	6e9b      	ldr	r3, [r3, #104]	; 0x68
   809aa:	f003 0308 	and.w	r3, r3, #8
   809ae:	2b00      	cmp	r3, #0
   809b0:	d0f6      	beq.n	809a0 <SystemInit+0x9c>
   809b2:	f44f 63c0 	mov.w	r3, #1536	; 0x600
   809b6:	f2c4 030e 	movt	r3, #16398	; 0x400e
   809ba:	f643 7201 	movw	r2, #16129	; 0x3f01
   809be:	f2c2 020d 	movt	r2, #8205	; 0x200d
   809c2:	629a      	str	r2, [r3, #40]	; 0x28
   809c4:	bf00      	nop
   809c6:	f44f 63c0 	mov.w	r3, #1536	; 0x600
   809ca:	f2c4 030e 	movt	r3, #16398	; 0x400e
   809ce:	6e9b      	ldr	r3, [r3, #104]	; 0x68
   809d0:	f003 0302 	and.w	r3, r3, #2
   809d4:	2b00      	cmp	r3, #0
   809d6:	d0f6      	beq.n	809c6 <SystemInit+0xc2>
   809d8:	f44f 63c0 	mov.w	r3, #1536	; 0x600
   809dc:	f2c4 030e 	movt	r3, #16398	; 0x400e
   809e0:	2211      	movs	r2, #17
   809e2:	631a      	str	r2, [r3, #48]	; 0x30
   809e4:	bf00      	nop
   809e6:	f44f 63c0 	mov.w	r3, #1536	; 0x600
   809ea:	f2c4 030e 	movt	r3, #16398	; 0x400e
   809ee:	6e9b      	ldr	r3, [r3, #104]	; 0x68
   809f0:	f003 0308 	and.w	r3, r3, #8
   809f4:	2b00      	cmp	r3, #0
   809f6:	d0f6      	beq.n	809e6 <SystemInit+0xe2>
   809f8:	f44f 63c0 	mov.w	r3, #1536	; 0x600
   809fc:	f2c4 030e 	movt	r3, #16398	; 0x400e
   80a00:	2212      	movs	r2, #18
   80a02:	631a      	str	r2, [r3, #48]	; 0x30
   80a04:	bf00      	nop
   80a06:	f44f 63c0 	mov.w	r3, #1536	; 0x600
   80a0a:	f2c4 030e 	movt	r3, #16398	; 0x400e
   80a0e:	6e9b      	ldr	r3, [r3, #104]	; 0x68
   80a10:	f003 0308 	and.w	r3, r3, #8
   80a14:	2b00      	cmp	r3, #0
   80a16:	d0f6      	beq.n	80a06 <SystemInit+0x102>
   80a18:	f240 0300 	movw	r3, #0
   80a1c:	f2c2 0307 	movt	r3, #8199	; 0x2007
   80a20:	f44f 423d 	mov.w	r2, #48384	; 0xbd00
   80a24:	f2c0 5201 	movt	r2, #1281	; 0x501
   80a28:	601a      	str	r2, [r3, #0]
   80a2a:	46bd      	mov	sp, r7
   80a2c:	f85d 7b04 	ldr.w	r7, [sp], #4
   80a30:	4770      	bx	lr
   80a32:	bf00      	nop

00080a34 <SystemCoreClockUpdate>:
   80a34:	b480      	push	{r7}
   80a36:	af00      	add	r7, sp, #0
   80a38:	f44f 63c0 	mov.w	r3, #1536	; 0x600
   80a3c:	f2c4 030e 	movt	r3, #16398	; 0x400e
   80a40:	6b1b      	ldr	r3, [r3, #48]	; 0x30
   80a42:	f003 0303 	and.w	r3, r3, #3
   80a46:	2b03      	cmp	r3, #3
   80a48:	f200 80ed 	bhi.w	80c26 <SystemCoreClockUpdate+0x1f2>
   80a4c:	a101      	add	r1, pc, #4	; (adr r1, 80a54 <SystemCoreClockUpdate+0x20>)
   80a4e:	f851 f023 	ldr.w	pc, [r1, r3, lsl #2]
   80a52:	bf00      	nop
   80a54:	00080a65 	.word	0x00080a65
   80a58:	00080a97 	.word	0x00080a97
   80a5c:	00080b23 	.word	0x00080b23
   80a60:	00080b23 	.word	0x00080b23
   80a64:	f641 2310 	movw	r3, #6672	; 0x1a10
   80a68:	f2c4 030e 	movt	r3, #16398	; 0x400e
   80a6c:	695b      	ldr	r3, [r3, #20]
   80a6e:	f003 0380 	and.w	r3, r3, #128	; 0x80
   80a72:	2b00      	cmp	r3, #0
   80a74:	d007      	beq.n	80a86 <SystemCoreClockUpdate+0x52>
   80a76:	f240 0300 	movw	r3, #0
   80a7a:	f2c2 0307 	movt	r3, #8199	; 0x2007
   80a7e:	f44f 4200 	mov.w	r2, #32768	; 0x8000
   80a82:	601a      	str	r2, [r3, #0]
   80a84:	e0cf      	b.n	80c26 <SystemCoreClockUpdate+0x1f2>
   80a86:	f240 0300 	movw	r3, #0
   80a8a:	f2c2 0307 	movt	r3, #8199	; 0x2007
   80a8e:	f44f 42fa 	mov.w	r2, #32000	; 0x7d00
   80a92:	601a      	str	r2, [r3, #0]
   80a94:	e0c7      	b.n	80c26 <SystemCoreClockUpdate+0x1f2>
   80a96:	f44f 63c0 	mov.w	r3, #1536	; 0x600
   80a9a:	f2c4 030e 	movt	r3, #16398	; 0x400e
   80a9e:	6a1b      	ldr	r3, [r3, #32]
   80aa0:	f003 7380 	and.w	r3, r3, #16777216	; 0x1000000
   80aa4:	2b00      	cmp	r3, #0
   80aa6:	d009      	beq.n	80abc <SystemCoreClockUpdate+0x88>
   80aa8:	f240 0300 	movw	r3, #0
   80aac:	f2c2 0307 	movt	r3, #8199	; 0x2007
   80ab0:	f44f 52d8 	mov.w	r2, #6912	; 0x1b00
   80ab4:	f2c0 02b7 	movt	r2, #183	; 0xb7
   80ab8:	601a      	str	r2, [r3, #0]
   80aba:	e031      	b.n	80b20 <SystemCoreClockUpdate+0xec>
   80abc:	f240 0300 	movw	r3, #0
   80ac0:	f2c2 0307 	movt	r3, #8199	; 0x2007
   80ac4:	f44f 6210 	mov.w	r2, #2304	; 0x900
   80ac8:	f2c0 023d 	movt	r2, #61	; 0x3d
   80acc:	601a      	str	r2, [r3, #0]
   80ace:	f44f 63c0 	mov.w	r3, #1536	; 0x600
   80ad2:	f2c4 030e 	movt	r3, #16398	; 0x400e
   80ad6:	6a1b      	ldr	r3, [r3, #32]
   80ad8:	f003 0370 	and.w	r3, r3, #112	; 0x70
   80adc:	2b10      	cmp	r3, #16
   80ade:	d004      	beq.n	80aea <SystemCoreClockUpdate+0xb6>
   80ae0:	2b20      	cmp	r3, #32
   80ae2:	d00e      	beq.n	80b02 <SystemCoreClockUpdate+0xce>
   80ae4:	2b00      	cmp	r3, #0
   80ae6:	d01a      	beq.n	80b1e <SystemCoreClockUpdate+0xea>
   80ae8:	e01a      	b.n	80b20 <SystemCoreClockUpdate+0xec>
   80aea:	f240 0300 	movw	r3, #0
   80aee:	f2c2 0307 	movt	r3, #8199	; 0x2007
   80af2:	681b      	ldr	r3, [r3, #0]
   80af4:	005a      	lsls	r2, r3, #1
   80af6:	f240 0300 	movw	r3, #0
   80afa:	f2c2 0307 	movt	r3, #8199	; 0x2007
   80afe:	601a      	str	r2, [r3, #0]
   80b00:	e00e      	b.n	80b20 <SystemCoreClockUpdate+0xec>
   80b02:	f240 0300 	movw	r3, #0
   80b06:	f2c2 0307 	movt	r3, #8199	; 0x2007
   80b0a:	681a      	ldr	r2, [r3, #0]
   80b0c:	4613      	mov	r3, r2
   80b0e:	005b      	lsls	r3, r3, #1
   80b10:	441a      	add	r2, r3
   80b12:	f240 0300 	movw	r3, #0
   80b16:	f2c2 0307 	movt	r3, #8199	; 0x2007
   80b1a:	601a      	str	r2, [r3, #0]
   80b1c:	e000      	b.n	80b20 <SystemCoreClockUpdate+0xec>
   80b1e:	bf00      	nop
   80b20:	e081      	b.n	80c26 <SystemCoreClockUpdate+0x1f2>
   80b22:	f44f 63c0 	mov.w	r3, #1536	; 0x600
   80b26:	f2c4 030e 	movt	r3, #16398	; 0x400e
   80b2a:	6a1b      	ldr	r3, [r3, #32]
   80b2c:	f003 7380 	and.w	r3, r3, #16777216	; 0x1000000
   80b30:	2b00      	cmp	r3, #0
   80b32:	d009      	beq.n	80b48 <SystemCoreClockUpdate+0x114>
   80b34:	f240 0300 	movw	r3, #0
   80b38:	f2c2 0307 	movt	r3, #8199	; 0x2007
   80b3c:	f44f 52d8 	mov.w	r2, #6912	; 0x1b00
   80b40:	f2c0 02b7 	movt	r2, #183	; 0xb7
   80b44:	601a      	str	r2, [r3, #0]
   80b46:	e031      	b.n	80bac <SystemCoreClockUpdate+0x178>
   80b48:	f240 0300 	movw	r3, #0
   80b4c:	f2c2 0307 	movt	r3, #8199	; 0x2007
   80b50:	f44f 6210 	mov.w	r2, #2304	; 0x900
   80b54:	f2c0 023d 	movt	r2, #61	; 0x3d
   80b58:	601a      	str	r2, [r3, #0]
   80b5a:	f44f 63c0 	mov.w	r3, #1536	; 0x600
   80b5e:	f2c4 030e 	movt	r3, #16398	; 0x400e
   80b62:	6a1b      	ldr	r3, [r3, #32]
   80b64:	f003 0370 	and.w	r3, r3, #112	; 0x70
   80b68:	2b10      	cmp	r3, #16
   80b6a:	d004      	beq.n	80b76 <SystemCoreClockUpdate+0x142>
   80b6c:	2b20      	cmp	r3, #32
   80b6e:	d00e      	beq.n	80b8e <SystemCoreClockUpdate+0x15a>
   80b70:	2b00      	cmp	r3, #0
   80b72:	d01a      	beq.n	80baa <SystemCoreClockUpdate+0x176>
   80b74:	e01a      	b.n	80bac <SystemCoreClockUpdate+0x178>
   80b76:	f240 0300 	movw	r3, #0
   80b7a:	f2c2 0307 	movt	r3, #8199	; 0x2007
   80b7e:	681b      	ldr	r3, [r3, #0]
   80b80:	005a      	lsls	r2, r3, #1
   80b82:	f240 0300 	movw	r3, #0
   80b86:	f2c2 0307 	movt	r3, #8199	; 0x2007
   80b8a:	601a      	str	r2, [r3, #0]
   80b8c:	e00e      	b.n	80bac <SystemCoreClockUpdate+0x178>
   80b8e:	f240 0300 	movw	r3, #0
   80b92:	f2c2 0307 	movt	r3, #8199	; 0x2007
   80b96:	681a      	ldr	r2, [r3, #0]
   80b98:	4613      	mov	r3, r2
   80b9a:	005b      	lsls	r3, r3, #1
   80b9c:	441a      	add	r2, r3
   80b9e:	f240 0300 	movw	r3, #0
   80ba2:	f2c2 0307 	movt	r3, #8199	; 0x2007
   80ba6:	601a      	str	r2, [r3, #0]
   80ba8:	e000      	b.n	80bac <SystemCoreClockUpdate+0x178>
   80baa:	bf00      	nop
   80bac:	f44f 63c0 	mov.w	r3, #1536	; 0x600
   80bb0:	f2c4 030e 	movt	r3, #16398	; 0x400e
   80bb4:	6b1b      	ldr	r3, [r3, #48]	; 0x30
   80bb6:	f003 0303 	and.w	r3, r3, #3
   80bba:	2b02      	cmp	r3, #2
   80bbc:	d129      	bne.n	80c12 <SystemCoreClockUpdate+0x1de>
   80bbe:	f44f 63c0 	mov.w	r3, #1536	; 0x600
   80bc2:	f2c4 030e 	movt	r3, #16398	; 0x400e
   80bc6:	6a9a      	ldr	r2, [r3, #40]	; 0x28
   80bc8:	2300      	movs	r3, #0
   80bca:	f2c0 73ff 	movt	r3, #2047	; 0x7ff
   80bce:	4013      	ands	r3, r2
   80bd0:	0c1b      	lsrs	r3, r3, #16
   80bd2:	1c5a      	adds	r2, r3, #1
   80bd4:	f240 0300 	movw	r3, #0
   80bd8:	f2c2 0307 	movt	r3, #8199	; 0x2007
   80bdc:	681b      	ldr	r3, [r3, #0]
   80bde:	fb03 f202 	mul.w	r2, r3, r2
   80be2:	f240 0300 	movw	r3, #0
   80be6:	f2c2 0307 	movt	r3, #8199	; 0x2007
   80bea:	601a      	str	r2, [r3, #0]
   80bec:	f240 0300 	movw	r3, #0
   80bf0:	f2c2 0307 	movt	r3, #8199	; 0x2007
   80bf4:	681a      	ldr	r2, [r3, #0]
   80bf6:	f44f 63c0 	mov.w	r3, #1536	; 0x600
   80bfa:	f2c4 030e 	movt	r3, #16398	; 0x400e
   80bfe:	6a9b      	ldr	r3, [r3, #40]	; 0x28
   80c00:	b2db      	uxtb	r3, r3
   80c02:	fbb2 f2f3 	udiv	r2, r2, r3
   80c06:	f240 0300 	movw	r3, #0
   80c0a:	f2c2 0307 	movt	r3, #8199	; 0x2007
   80c0e:	601a      	str	r2, [r3, #0]
   80c10:	e008      	b.n	80c24 <SystemCoreClockUpdate+0x1f0>
   80c12:	f240 0300 	movw	r3, #0
   80c16:	f2c2 0307 	movt	r3, #8199	; 0x2007
   80c1a:	f44f 52e0 	mov.w	r2, #7168	; 0x1c00
   80c1e:	f6c0 624e 	movt	r2, #3662	; 0xe4e
   80c22:	601a      	str	r2, [r3, #0]
   80c24:	bf00      	nop
   80c26:	f44f 63c0 	mov.w	r3, #1536	; 0x600
   80c2a:	f2c4 030e 	movt	r3, #16398	; 0x400e
   80c2e:	6b1b      	ldr	r3, [r3, #48]	; 0x30
   80c30:	f003 0370 	and.w	r3, r3, #112	; 0x70
   80c34:	2b70      	cmp	r3, #112	; 0x70
   80c36:	d111      	bne.n	80c5c <SystemCoreClockUpdate+0x228>
   80c38:	f240 0300 	movw	r3, #0
   80c3c:	f2c2 0307 	movt	r3, #8199	; 0x2007
   80c40:	681a      	ldr	r2, [r3, #0]
   80c42:	f64a 23ab 	movw	r3, #43691	; 0xaaab
   80c46:	f6ca 23aa 	movt	r3, #43690	; 0xaaaa
   80c4a:	fba3 1302 	umull	r1, r3, r3, r2
   80c4e:	085a      	lsrs	r2, r3, #1
   80c50:	f240 0300 	movw	r3, #0
   80c54:	f2c2 0307 	movt	r3, #8199	; 0x2007
   80c58:	601a      	str	r2, [r3, #0]
   80c5a:	e012      	b.n	80c82 <SystemCoreClockUpdate+0x24e>
   80c5c:	f240 0300 	movw	r3, #0
   80c60:	f2c2 0307 	movt	r3, #8199	; 0x2007
   80c64:	681a      	ldr	r2, [r3, #0]
   80c66:	f44f 63c0 	mov.w	r3, #1536	; 0x600
   80c6a:	f2c4 030e 	movt	r3, #16398	; 0x400e
   80c6e:	6b1b      	ldr	r3, [r3, #48]	; 0x30
   80c70:	f003 0370 	and.w	r3, r3, #112	; 0x70
   80c74:	091b      	lsrs	r3, r3, #4
   80c76:	40da      	lsrs	r2, r3
   80c78:	f240 0300 	movw	r3, #0
   80c7c:	f2c2 0307 	movt	r3, #8199	; 0x2007
   80c80:	601a      	str	r2, [r3, #0]
   80c82:	46bd      	mov	sp, r7
   80c84:	f85d 7b04 	ldr.w	r7, [sp], #4
   80c88:	4770      	bx	lr
   80c8a:	bf00      	nop

00080c8c <system_init_flash>:
   80c8c:	b480      	push	{r7}
   80c8e:	b083      	sub	sp, #12
   80c90:	af00      	add	r7, sp, #0
   80c92:	6078      	str	r0, [r7, #4]
   80c94:	687a      	ldr	r2, [r7, #4]
   80c96:	f64e 23bf 	movw	r3, #60095	; 0xeabf
   80c9a:	f2c0 1321 	movt	r3, #289	; 0x121
   80c9e:	429a      	cmp	r2, r3
   80ca0:	d80c      	bhi.n	80cbc <system_init_flash+0x30>
   80ca2:	f44f 6320 	mov.w	r3, #2560	; 0xa00
   80ca6:	f2c4 030e 	movt	r3, #16398	; 0x400e
   80caa:	2200      	movs	r2, #0
   80cac:	601a      	str	r2, [r3, #0]
   80cae:	f44f 6340 	mov.w	r3, #3072	; 0xc00
   80cb2:	f2c4 030e 	movt	r3, #16398	; 0x400e
   80cb6:	2200      	movs	r2, #0
   80cb8:	601a      	str	r2, [r3, #0]
   80cba:	e065      	b.n	80d88 <system_init_flash+0xfc>
   80cbc:	687a      	ldr	r2, [r7, #4]
   80cbe:	f24f 037f 	movw	r3, #61567	; 0xf07f
   80cc2:	f2c0 23fa 	movt	r3, #762	; 0x2fa
   80cc6:	429a      	cmp	r2, r3
   80cc8:	d80e      	bhi.n	80ce8 <system_init_flash+0x5c>
   80cca:	f44f 6320 	mov.w	r3, #2560	; 0xa00
   80cce:	f2c4 030e 	movt	r3, #16398	; 0x400e
   80cd2:	f44f 7280 	mov.w	r2, #256	; 0x100
   80cd6:	601a      	str	r2, [r3, #0]
   80cd8:	f44f 6340 	mov.w	r3, #3072	; 0xc00
   80cdc:	f2c4 030e 	movt	r3, #16398	; 0x400e
   80ce0:	f44f 7280 	mov.w	r2, #256	; 0x100
   80ce4:	601a      	str	r2, [r3, #0]
   80ce6:	e04f      	b.n	80d88 <system_init_flash+0xfc>
   80ce8:	687a      	ldr	r2, [r7, #4]
   80cea:	f648 73ff 	movw	r3, #36863	; 0x8fff
   80cee:	f2c0 33d0 	movt	r3, #976	; 0x3d0
   80cf2:	429a      	cmp	r2, r3
   80cf4:	d80e      	bhi.n	80d14 <system_init_flash+0x88>
   80cf6:	f44f 6320 	mov.w	r3, #2560	; 0xa00
   80cfa:	f2c4 030e 	movt	r3, #16398	; 0x400e
   80cfe:	f44f 7200 	mov.w	r2, #512	; 0x200
   80d02:	601a      	str	r2, [r3, #0]
   80d04:	f44f 6340 	mov.w	r3, #3072	; 0xc00
   80d08:	f2c4 030e 	movt	r3, #16398	; 0x400e
   80d0c:	f44f 7200 	mov.w	r2, #512	; 0x200
   80d10:	601a      	str	r2, [r3, #0]
   80d12:	e039      	b.n	80d88 <system_init_flash+0xfc>
   80d14:	687a      	ldr	r2, [r7, #4]
   80d16:	f24b 33ff 	movw	r3, #46079	; 0xb3ff
   80d1a:	f2c0 43c4 	movt	r3, #1220	; 0x4c4
   80d1e:	429a      	cmp	r2, r3
   80d20:	d80e      	bhi.n	80d40 <system_init_flash+0xb4>
   80d22:	f44f 6320 	mov.w	r3, #2560	; 0xa00
   80d26:	f2c4 030e 	movt	r3, #16398	; 0x400e
   80d2a:	f44f 7240 	mov.w	r2, #768	; 0x300
   80d2e:	601a      	str	r2, [r3, #0]
   80d30:	f44f 6340 	mov.w	r3, #3072	; 0xc00
   80d34:	f2c4 030e 	movt	r3, #16398	; 0x400e
   80d38:	f44f 7240 	mov.w	r2, #768	; 0x300
   80d3c:	601a      	str	r2, [r3, #0]
   80d3e:	e023      	b.n	80d88 <system_init_flash+0xfc>
   80d40:	687a      	ldr	r2, [r7, #4]
   80d42:	f644 237f 	movw	r3, #19071	; 0x4a7f
   80d46:	f2c0 535d 	movt	r3, #1373	; 0x55d
   80d4a:	429a      	cmp	r2, r3
   80d4c:	d80e      	bhi.n	80d6c <system_init_flash+0xe0>
   80d4e:	f44f 6320 	mov.w	r3, #2560	; 0xa00
   80d52:	f2c4 030e 	movt	r3, #16398	; 0x400e
   80d56:	f44f 6280 	mov.w	r2, #1024	; 0x400
   80d5a:	601a      	str	r2, [r3, #0]
   80d5c:	f44f 6340 	mov.w	r3, #3072	; 0xc00
   80d60:	f2c4 030e 	movt	r3, #16398	; 0x400e
   80d64:	f44f 6280 	mov.w	r2, #1024	; 0x400
   80d68:	601a      	str	r2, [r3, #0]
   80d6a:	e00d      	b.n	80d88 <system_init_flash+0xfc>
   80d6c:	f44f 6320 	mov.w	r3, #2560	; 0xa00
   80d70:	f2c4 030e 	movt	r3, #16398	; 0x400e
   80d74:	f44f 62a0 	mov.w	r2, #1280	; 0x500
   80d78:	601a      	str	r2, [r3, #0]
   80d7a:	f44f 6340 	mov.w	r3, #3072	; 0xc00
   80d7e:	f2c4 030e 	movt	r3, #16398	; 0x400e
   80d82:	f44f 62a0 	mov.w	r2, #1280	; 0x500
   80d86:	601a      	str	r2, [r3, #0]
   80d88:	370c      	adds	r7, #12
   80d8a:	46bd      	mov	sp, r7
   80d8c:	f85d 7b04 	ldr.w	r7, [sp], #4
   80d90:	4770      	bx	lr
   80d92:	bf00      	nop

00080d94 <pio_pull_up>:
   80d94:	b480      	push	{r7}
   80d96:	b085      	sub	sp, #20
   80d98:	af00      	add	r7, sp, #0
   80d9a:	60f8      	str	r0, [r7, #12]
   80d9c:	60b9      	str	r1, [r7, #8]
   80d9e:	607a      	str	r2, [r7, #4]
   80da0:	687b      	ldr	r3, [r7, #4]
   80da2:	2b00      	cmp	r3, #0
   80da4:	d003      	beq.n	80dae <pio_pull_up+0x1a>
   80da6:	68fb      	ldr	r3, [r7, #12]
   80da8:	68ba      	ldr	r2, [r7, #8]
   80daa:	665a      	str	r2, [r3, #100]	; 0x64
   80dac:	e002      	b.n	80db4 <pio_pull_up+0x20>
   80dae:	68fb      	ldr	r3, [r7, #12]
   80db0:	68ba      	ldr	r2, [r7, #8]
   80db2:	661a      	str	r2, [r3, #96]	; 0x60
   80db4:	3714      	adds	r7, #20
   80db6:	46bd      	mov	sp, r7
   80db8:	f85d 7b04 	ldr.w	r7, [sp], #4
   80dbc:	4770      	bx	lr
   80dbe:	bf00      	nop

00080dc0 <pio_set_debounce_filter>:
   80dc0:	b480      	push	{r7}
   80dc2:	b085      	sub	sp, #20
   80dc4:	af00      	add	r7, sp, #0
   80dc6:	60f8      	str	r0, [r7, #12]
   80dc8:	60b9      	str	r1, [r7, #8]
   80dca:	607a      	str	r2, [r7, #4]
   80dcc:	68fb      	ldr	r3, [r7, #12]
   80dce:	68ba      	ldr	r2, [r7, #8]
   80dd0:	f8c3 2084 	str.w	r2, [r3, #132]	; 0x84
   80dd4:	687b      	ldr	r3, [r7, #4]
   80dd6:	005b      	lsls	r3, r3, #1
   80dd8:	f44f 4200 	mov.w	r2, #32768	; 0x8000
   80ddc:	fbb2 f3f3 	udiv	r3, r2, r3
   80de0:	3b01      	subs	r3, #1
   80de2:	f3c3 020d 	ubfx	r2, r3, #0, #14
   80de6:	68fb      	ldr	r3, [r7, #12]
   80de8:	f8c3 208c 	str.w	r2, [r3, #140]	; 0x8c
   80dec:	3714      	adds	r7, #20
   80dee:	46bd      	mov	sp, r7
   80df0:	f85d 7b04 	ldr.w	r7, [sp], #4
   80df4:	4770      	bx	lr
   80df6:	bf00      	nop

00080df8 <pio_set>:
   80df8:	b480      	push	{r7}
   80dfa:	b083      	sub	sp, #12
   80dfc:	af00      	add	r7, sp, #0
   80dfe:	6078      	str	r0, [r7, #4]
   80e00:	6039      	str	r1, [r7, #0]
   80e02:	687b      	ldr	r3, [r7, #4]
   80e04:	683a      	ldr	r2, [r7, #0]
   80e06:	631a      	str	r2, [r3, #48]	; 0x30
   80e08:	370c      	adds	r7, #12
   80e0a:	46bd      	mov	sp, r7
   80e0c:	f85d 7b04 	ldr.w	r7, [sp], #4
   80e10:	4770      	bx	lr
   80e12:	bf00      	nop

00080e14 <pio_clear>:
   80e14:	b480      	push	{r7}
   80e16:	b083      	sub	sp, #12
   80e18:	af00      	add	r7, sp, #0
   80e1a:	6078      	str	r0, [r7, #4]
   80e1c:	6039      	str	r1, [r7, #0]
   80e1e:	687b      	ldr	r3, [r7, #4]
   80e20:	683a      	ldr	r2, [r7, #0]
   80e22:	635a      	str	r2, [r3, #52]	; 0x34
   80e24:	370c      	adds	r7, #12
   80e26:	46bd      	mov	sp, r7
   80e28:	f85d 7b04 	ldr.w	r7, [sp], #4
   80e2c:	4770      	bx	lr
   80e2e:	bf00      	nop

00080e30 <pio_get>:
   80e30:	b480      	push	{r7}
   80e32:	b087      	sub	sp, #28
   80e34:	af00      	add	r7, sp, #0
   80e36:	60f8      	str	r0, [r7, #12]
   80e38:	60b9      	str	r1, [r7, #8]
   80e3a:	607a      	str	r2, [r7, #4]
   80e3c:	68bb      	ldr	r3, [r7, #8]
   80e3e:	f1b3 5f40 	cmp.w	r3, #805306368	; 0x30000000
   80e42:	d003      	beq.n	80e4c <pio_get+0x1c>
   80e44:	68bb      	ldr	r3, [r7, #8]
   80e46:	f1b3 5f60 	cmp.w	r3, #939524096	; 0x38000000
   80e4a:	d103      	bne.n	80e54 <pio_get+0x24>
   80e4c:	68fb      	ldr	r3, [r7, #12]
   80e4e:	6b9b      	ldr	r3, [r3, #56]	; 0x38
   80e50:	617b      	str	r3, [r7, #20]
   80e52:	e002      	b.n	80e5a <pio_get+0x2a>
   80e54:	68fb      	ldr	r3, [r7, #12]
   80e56:	6bdb      	ldr	r3, [r3, #60]	; 0x3c
   80e58:	617b      	str	r3, [r7, #20]
   80e5a:	697a      	ldr	r2, [r7, #20]
   80e5c:	687b      	ldr	r3, [r7, #4]
   80e5e:	4013      	ands	r3, r2
   80e60:	2b00      	cmp	r3, #0
   80e62:	d101      	bne.n	80e68 <pio_get+0x38>
   80e64:	2300      	movs	r3, #0
   80e66:	e000      	b.n	80e6a <pio_get+0x3a>
   80e68:	2301      	movs	r3, #1
   80e6a:	4618      	mov	r0, r3
   80e6c:	371c      	adds	r7, #28
   80e6e:	46bd      	mov	sp, r7
   80e70:	f85d 7b04 	ldr.w	r7, [sp], #4
   80e74:	4770      	bx	lr
   80e76:	bf00      	nop

00080e78 <pio_set_peripheral>:
   80e78:	b480      	push	{r7}
   80e7a:	b087      	sub	sp, #28
   80e7c:	af00      	add	r7, sp, #0
   80e7e:	60f8      	str	r0, [r7, #12]
   80e80:	60b9      	str	r1, [r7, #8]
   80e82:	607a      	str	r2, [r7, #4]
   80e84:	68fb      	ldr	r3, [r7, #12]
   80e86:	687a      	ldr	r2, [r7, #4]
   80e88:	645a      	str	r2, [r3, #68]	; 0x44
   80e8a:	68bb      	ldr	r3, [r7, #8]
   80e8c:	f1b3 5f80 	cmp.w	r3, #268435456	; 0x10000000
   80e90:	d01f      	beq.n	80ed2 <pio_set_peripheral+0x5a>
   80e92:	f1b3 5f80 	cmp.w	r3, #268435456	; 0x10000000
   80e96:	d805      	bhi.n	80ea4 <pio_set_peripheral+0x2c>
   80e98:	2b00      	cmp	r3, #0
   80e9a:	d027      	beq.n	80eec <pio_set_peripheral+0x74>
   80e9c:	f1b3 6f00 	cmp.w	r3, #134217728	; 0x8000000
   80ea0:	d00a      	beq.n	80eb8 <pio_set_peripheral+0x40>
   80ea2:	e01f      	b.n	80ee4 <pio_set_peripheral+0x6c>
   80ea4:	f1b3 5f40 	cmp.w	r3, #805306368	; 0x30000000
   80ea8:	d020      	beq.n	80eec <pio_set_peripheral+0x74>
   80eaa:	f1b3 5f60 	cmp.w	r3, #939524096	; 0x38000000
   80eae:	d01d      	beq.n	80eec <pio_set_peripheral+0x74>
   80eb0:	f1b3 5f20 	cmp.w	r3, #671088640	; 0x28000000
   80eb4:	d01a      	beq.n	80eec <pio_set_peripheral+0x74>
   80eb6:	e015      	b.n	80ee4 <pio_set_peripheral+0x6c>
   80eb8:	68fb      	ldr	r3, [r7, #12]
   80eba:	6f1b      	ldr	r3, [r3, #112]	; 0x70
   80ebc:	617b      	str	r3, [r7, #20]
   80ebe:	68fb      	ldr	r3, [r7, #12]
   80ec0:	6f1a      	ldr	r2, [r3, #112]	; 0x70
   80ec2:	687b      	ldr	r3, [r7, #4]
   80ec4:	43d9      	mvns	r1, r3
   80ec6:	697b      	ldr	r3, [r7, #20]
   80ec8:	400b      	ands	r3, r1
   80eca:	401a      	ands	r2, r3
   80ecc:	68fb      	ldr	r3, [r7, #12]
   80ece:	671a      	str	r2, [r3, #112]	; 0x70
   80ed0:	e008      	b.n	80ee4 <pio_set_peripheral+0x6c>
   80ed2:	68fb      	ldr	r3, [r7, #12]
   80ed4:	6f1b      	ldr	r3, [r3, #112]	; 0x70
   80ed6:	617b      	str	r3, [r7, #20]
   80ed8:	687a      	ldr	r2, [r7, #4]
   80eda:	697b      	ldr	r3, [r7, #20]
   80edc:	431a      	orrs	r2, r3
   80ede:	68fb      	ldr	r3, [r7, #12]
   80ee0:	671a      	str	r2, [r3, #112]	; 0x70
   80ee2:	bf00      	nop
   80ee4:	68fb      	ldr	r3, [r7, #12]
   80ee6:	687a      	ldr	r2, [r7, #4]
   80ee8:	605a      	str	r2, [r3, #4]
   80eea:	e000      	b.n	80eee <pio_set_peripheral+0x76>
   80eec:	bf00      	nop
   80eee:	371c      	adds	r7, #28
   80ef0:	46bd      	mov	sp, r7
   80ef2:	f85d 7b04 	ldr.w	r7, [sp], #4
   80ef6:	4770      	bx	lr

00080ef8 <pio_set_input>:
   80ef8:	b580      	push	{r7, lr}
   80efa:	b084      	sub	sp, #16
   80efc:	af00      	add	r7, sp, #0
   80efe:	60f8      	str	r0, [r7, #12]
   80f00:	60b9      	str	r1, [r7, #8]
   80f02:	607a      	str	r2, [r7, #4]
   80f04:	68f8      	ldr	r0, [r7, #12]
   80f06:	68b9      	ldr	r1, [r7, #8]
   80f08:	f000 f968 	bl	811dc <pio_disable_interrupt>
   80f0c:	687b      	ldr	r3, [r7, #4]
   80f0e:	f003 0301 	and.w	r3, r3, #1
   80f12:	68f8      	ldr	r0, [r7, #12]
   80f14:	68b9      	ldr	r1, [r7, #8]
   80f16:	461a      	mov	r2, r3
   80f18:	f7ff ff3c 	bl	80d94 <pio_pull_up>
   80f1c:	687b      	ldr	r3, [r7, #4]
   80f1e:	f003 030a 	and.w	r3, r3, #10
   80f22:	2b00      	cmp	r3, #0
   80f24:	d003      	beq.n	80f2e <pio_set_input+0x36>
   80f26:	68fb      	ldr	r3, [r7, #12]
   80f28:	68ba      	ldr	r2, [r7, #8]
   80f2a:	621a      	str	r2, [r3, #32]
   80f2c:	e002      	b.n	80f34 <pio_set_input+0x3c>
   80f2e:	68fb      	ldr	r3, [r7, #12]
   80f30:	68ba      	ldr	r2, [r7, #8]
   80f32:	625a      	str	r2, [r3, #36]	; 0x24
   80f34:	687b      	ldr	r3, [r7, #4]
   80f36:	f003 0302 	and.w	r3, r3, #2
   80f3a:	2b00      	cmp	r3, #0
   80f3c:	d004      	beq.n	80f48 <pio_set_input+0x50>
   80f3e:	68fb      	ldr	r3, [r7, #12]
   80f40:	68ba      	ldr	r2, [r7, #8]
   80f42:	f8c3 2080 	str.w	r2, [r3, #128]	; 0x80
   80f46:	e008      	b.n	80f5a <pio_set_input+0x62>
   80f48:	687b      	ldr	r3, [r7, #4]
   80f4a:	f003 0308 	and.w	r3, r3, #8
   80f4e:	2b00      	cmp	r3, #0
   80f50:	d003      	beq.n	80f5a <pio_set_input+0x62>
   80f52:	68fb      	ldr	r3, [r7, #12]
   80f54:	68ba      	ldr	r2, [r7, #8]
   80f56:	f8c3 2084 	str.w	r2, [r3, #132]	; 0x84
   80f5a:	68fb      	ldr	r3, [r7, #12]
   80f5c:	68ba      	ldr	r2, [r7, #8]
   80f5e:	615a      	str	r2, [r3, #20]
   80f60:	68fb      	ldr	r3, [r7, #12]
   80f62:	68ba      	ldr	r2, [r7, #8]
   80f64:	601a      	str	r2, [r3, #0]
   80f66:	3710      	adds	r7, #16
   80f68:	46bd      	mov	sp, r7
   80f6a:	bd80      	pop	{r7, pc}

00080f6c <pio_set_output>:
   80f6c:	b580      	push	{r7, lr}
   80f6e:	b084      	sub	sp, #16
   80f70:	af00      	add	r7, sp, #0
   80f72:	60f8      	str	r0, [r7, #12]
   80f74:	60b9      	str	r1, [r7, #8]
   80f76:	607a      	str	r2, [r7, #4]
   80f78:	603b      	str	r3, [r7, #0]
   80f7a:	68f8      	ldr	r0, [r7, #12]
   80f7c:	68b9      	ldr	r1, [r7, #8]
   80f7e:	f000 f92d 	bl	811dc <pio_disable_interrupt>
   80f82:	68f8      	ldr	r0, [r7, #12]
   80f84:	68b9      	ldr	r1, [r7, #8]
   80f86:	69ba      	ldr	r2, [r7, #24]
   80f88:	f7ff ff04 	bl	80d94 <pio_pull_up>
   80f8c:	683b      	ldr	r3, [r7, #0]
   80f8e:	2b00      	cmp	r3, #0
   80f90:	d003      	beq.n	80f9a <pio_set_output+0x2e>
   80f92:	68fb      	ldr	r3, [r7, #12]
   80f94:	68ba      	ldr	r2, [r7, #8]
   80f96:	651a      	str	r2, [r3, #80]	; 0x50
   80f98:	e002      	b.n	80fa0 <pio_set_output+0x34>
   80f9a:	68fb      	ldr	r3, [r7, #12]
   80f9c:	68ba      	ldr	r2, [r7, #8]
   80f9e:	655a      	str	r2, [r3, #84]	; 0x54
   80fa0:	687b      	ldr	r3, [r7, #4]
   80fa2:	2b00      	cmp	r3, #0
   80fa4:	d003      	beq.n	80fae <pio_set_output+0x42>
   80fa6:	68fb      	ldr	r3, [r7, #12]
   80fa8:	68ba      	ldr	r2, [r7, #8]
   80faa:	631a      	str	r2, [r3, #48]	; 0x30
   80fac:	e002      	b.n	80fb4 <pio_set_output+0x48>
   80fae:	68fb      	ldr	r3, [r7, #12]
   80fb0:	68ba      	ldr	r2, [r7, #8]
   80fb2:	635a      	str	r2, [r3, #52]	; 0x34
   80fb4:	68fb      	ldr	r3, [r7, #12]
   80fb6:	68ba      	ldr	r2, [r7, #8]
   80fb8:	611a      	str	r2, [r3, #16]
   80fba:	68fb      	ldr	r3, [r7, #12]
   80fbc:	68ba      	ldr	r2, [r7, #8]
   80fbe:	601a      	str	r2, [r3, #0]
   80fc0:	3710      	adds	r7, #16
   80fc2:	46bd      	mov	sp, r7
   80fc4:	bd80      	pop	{r7, pc}
   80fc6:	bf00      	nop

00080fc8 <pio_configure>:
   80fc8:	b580      	push	{r7, lr}
   80fca:	b086      	sub	sp, #24
   80fcc:	af02      	add	r7, sp, #8
   80fce:	60f8      	str	r0, [r7, #12]
   80fd0:	60b9      	str	r1, [r7, #8]
   80fd2:	607a      	str	r2, [r7, #4]
   80fd4:	603b      	str	r3, [r7, #0]
   80fd6:	68bb      	ldr	r3, [r7, #8]
   80fd8:	f1b3 5f20 	cmp.w	r3, #671088640	; 0x28000000
   80fdc:	d01e      	beq.n	8101c <pio_configure+0x54>
   80fde:	f1b3 5f20 	cmp.w	r3, #671088640	; 0x28000000
   80fe2:	d806      	bhi.n	80ff2 <pio_configure+0x2a>
   80fe4:	f1b3 6f00 	cmp.w	r3, #134217728	; 0x8000000
   80fe8:	d00a      	beq.n	81000 <pio_configure+0x38>
   80fea:	f1b3 5f80 	cmp.w	r3, #268435456	; 0x10000000
   80fee:	d007      	beq.n	81000 <pio_configure+0x38>
   80ff0:	e038      	b.n	81064 <pio_configure+0x9c>
   80ff2:	f1b3 5f40 	cmp.w	r3, #805306368	; 0x30000000
   80ff6:	d017      	beq.n	81028 <pio_configure+0x60>
   80ff8:	f1b3 5f60 	cmp.w	r3, #939524096	; 0x38000000
   80ffc:	d014      	beq.n	81028 <pio_configure+0x60>
   80ffe:	e031      	b.n	81064 <pio_configure+0x9c>
   81000:	68f8      	ldr	r0, [r7, #12]
   81002:	68b9      	ldr	r1, [r7, #8]
   81004:	687a      	ldr	r2, [r7, #4]
   81006:	f7ff ff37 	bl	80e78 <pio_set_peripheral>
   8100a:	683b      	ldr	r3, [r7, #0]
   8100c:	f003 0301 	and.w	r3, r3, #1
   81010:	68f8      	ldr	r0, [r7, #12]
   81012:	6879      	ldr	r1, [r7, #4]
   81014:	461a      	mov	r2, r3
   81016:	f7ff febd 	bl	80d94 <pio_pull_up>
   8101a:	e025      	b.n	81068 <pio_configure+0xa0>
   8101c:	68f8      	ldr	r0, [r7, #12]
   8101e:	6879      	ldr	r1, [r7, #4]
   81020:	683a      	ldr	r2, [r7, #0]
   81022:	f7ff ff69 	bl	80ef8 <pio_set_input>
   81026:	e01f      	b.n	81068 <pio_configure+0xa0>
   81028:	68bb      	ldr	r3, [r7, #8]
   8102a:	f1b3 5f60 	cmp.w	r3, #939524096	; 0x38000000
   8102e:	bf14      	ite	ne
   81030:	2300      	movne	r3, #0
   81032:	2301      	moveq	r3, #1
   81034:	b2db      	uxtb	r3, r3
   81036:	461a      	mov	r2, r3
   81038:	683b      	ldr	r3, [r7, #0]
   8103a:	f003 0304 	and.w	r3, r3, #4
   8103e:	2b00      	cmp	r3, #0
   81040:	bf0c      	ite	eq
   81042:	2300      	moveq	r3, #0
   81044:	2301      	movne	r3, #1
   81046:	b2db      	uxtb	r3, r3
   81048:	6839      	ldr	r1, [r7, #0]
   8104a:	f001 0101 	and.w	r1, r1, #1
   8104e:	2900      	cmp	r1, #0
   81050:	bf0c      	ite	eq
   81052:	2100      	moveq	r1, #0
   81054:	2101      	movne	r1, #1
   81056:	b2c9      	uxtb	r1, r1
   81058:	9100      	str	r1, [sp, #0]
   8105a:	68f8      	ldr	r0, [r7, #12]
   8105c:	6879      	ldr	r1, [r7, #4]
   8105e:	f7ff ff85 	bl	80f6c <pio_set_output>
   81062:	e001      	b.n	81068 <pio_configure+0xa0>
   81064:	2300      	movs	r3, #0
   81066:	e000      	b.n	8106a <pio_configure+0xa2>
   81068:	2301      	movs	r3, #1
   8106a:	4618      	mov	r0, r3
   8106c:	3710      	adds	r7, #16
   8106e:	46bd      	mov	sp, r7
   81070:	bd80      	pop	{r7, pc}
   81072:	bf00      	nop

00081074 <pio_get_output_data_status>:
   81074:	b480      	push	{r7}
   81076:	b083      	sub	sp, #12
   81078:	af00      	add	r7, sp, #0
   8107a:	6078      	str	r0, [r7, #4]
   8107c:	6039      	str	r1, [r7, #0]
   8107e:	687b      	ldr	r3, [r7, #4]
   81080:	6b9a      	ldr	r2, [r3, #56]	; 0x38
   81082:	683b      	ldr	r3, [r7, #0]
   81084:	4013      	ands	r3, r2
   81086:	2b00      	cmp	r3, #0
   81088:	d101      	bne.n	8108e <pio_get_output_data_status+0x1a>
   8108a:	2300      	movs	r3, #0
   8108c:	e000      	b.n	81090 <pio_get_output_data_status+0x1c>
   8108e:	2301      	movs	r3, #1
   81090:	4618      	mov	r0, r3
   81092:	370c      	adds	r7, #12
   81094:	46bd      	mov	sp, r7
   81096:	f85d 7b04 	ldr.w	r7, [sp], #4
   8109a:	4770      	bx	lr

0008109c <pio_set_multi_driver>:
   8109c:	b480      	push	{r7}
   8109e:	b085      	sub	sp, #20
   810a0:	af00      	add	r7, sp, #0
   810a2:	60f8      	str	r0, [r7, #12]
   810a4:	60b9      	str	r1, [r7, #8]
   810a6:	607a      	str	r2, [r7, #4]
   810a8:	687b      	ldr	r3, [r7, #4]
   810aa:	2b00      	cmp	r3, #0
   810ac:	d003      	beq.n	810b6 <pio_set_multi_driver+0x1a>
   810ae:	68fb      	ldr	r3, [r7, #12]
   810b0:	68ba      	ldr	r2, [r7, #8]
   810b2:	651a      	str	r2, [r3, #80]	; 0x50
   810b4:	e002      	b.n	810bc <pio_set_multi_driver+0x20>
   810b6:	68fb      	ldr	r3, [r7, #12]
   810b8:	68ba      	ldr	r2, [r7, #8]
   810ba:	655a      	str	r2, [r3, #84]	; 0x54
   810bc:	3714      	adds	r7, #20
   810be:	46bd      	mov	sp, r7
   810c0:	f85d 7b04 	ldr.w	r7, [sp], #4
   810c4:	4770      	bx	lr
   810c6:	bf00      	nop

000810c8 <pio_get_multi_driver_status>:
   810c8:	b480      	push	{r7}
   810ca:	b083      	sub	sp, #12
   810cc:	af00      	add	r7, sp, #0
   810ce:	6078      	str	r0, [r7, #4]
   810d0:	687b      	ldr	r3, [r7, #4]
   810d2:	6d9b      	ldr	r3, [r3, #88]	; 0x58
   810d4:	4618      	mov	r0, r3
   810d6:	370c      	adds	r7, #12
   810d8:	46bd      	mov	sp, r7
   810da:	f85d 7b04 	ldr.w	r7, [sp], #4
   810de:	4770      	bx	lr

000810e0 <pio_enable_output_write>:
   810e0:	b480      	push	{r7}
   810e2:	b083      	sub	sp, #12
   810e4:	af00      	add	r7, sp, #0
   810e6:	6078      	str	r0, [r7, #4]
   810e8:	6039      	str	r1, [r7, #0]
   810ea:	687b      	ldr	r3, [r7, #4]
   810ec:	683a      	ldr	r2, [r7, #0]
   810ee:	f8c3 20a0 	str.w	r2, [r3, #160]	; 0xa0
   810f2:	370c      	adds	r7, #12
   810f4:	46bd      	mov	sp, r7
   810f6:	f85d 7b04 	ldr.w	r7, [sp], #4
   810fa:	4770      	bx	lr

000810fc <pio_disable_output_write>:
   810fc:	b480      	push	{r7}
   810fe:	b083      	sub	sp, #12
   81100:	af00      	add	r7, sp, #0
   81102:	6078      	str	r0, [r7, #4]
   81104:	6039      	str	r1, [r7, #0]
   81106:	687b      	ldr	r3, [r7, #4]
   81108:	683a      	ldr	r2, [r7, #0]
   8110a:	f8c3 20a4 	str.w	r2, [r3, #164]	; 0xa4
   8110e:	370c      	adds	r7, #12
   81110:	46bd      	mov	sp, r7
   81112:	f85d 7b04 	ldr.w	r7, [sp], #4
   81116:	4770      	bx	lr

00081118 <pio_get_output_write_status>:
   81118:	b480      	push	{r7}
   8111a:	b083      	sub	sp, #12
   8111c:	af00      	add	r7, sp, #0
   8111e:	6078      	str	r0, [r7, #4]
   81120:	687b      	ldr	r3, [r7, #4]
   81122:	f8d3 30a8 	ldr.w	r3, [r3, #168]	; 0xa8
   81126:	4618      	mov	r0, r3
   81128:	370c      	adds	r7, #12
   8112a:	46bd      	mov	sp, r7
   8112c:	f85d 7b04 	ldr.w	r7, [sp], #4
   81130:	4770      	bx	lr
   81132:	bf00      	nop

00081134 <pio_sync_output_write>:
   81134:	b480      	push	{r7}
   81136:	b083      	sub	sp, #12
   81138:	af00      	add	r7, sp, #0
   8113a:	6078      	str	r0, [r7, #4]
   8113c:	6039      	str	r1, [r7, #0]
   8113e:	687b      	ldr	r3, [r7, #4]
   81140:	683a      	ldr	r2, [r7, #0]
   81142:	639a      	str	r2, [r3, #56]	; 0x38
   81144:	370c      	adds	r7, #12
   81146:	46bd      	mov	sp, r7
   81148:	f85d 7b04 	ldr.w	r7, [sp], #4
   8114c:	4770      	bx	lr
   8114e:	bf00      	nop

00081150 <pio_configure_interrupt>:
   81150:	b480      	push	{r7}
   81152:	b085      	sub	sp, #20
   81154:	af00      	add	r7, sp, #0
   81156:	60f8      	str	r0, [r7, #12]
   81158:	60b9      	str	r1, [r7, #8]
   8115a:	607a      	str	r2, [r7, #4]
   8115c:	687b      	ldr	r3, [r7, #4]
   8115e:	f003 0310 	and.w	r3, r3, #16
   81162:	2b00      	cmp	r3, #0
   81164:	d020      	beq.n	811a8 <pio_configure_interrupt+0x58>
   81166:	68fb      	ldr	r3, [r7, #12]
   81168:	68ba      	ldr	r2, [r7, #8]
   8116a:	f8c3 20b0 	str.w	r2, [r3, #176]	; 0xb0
   8116e:	687b      	ldr	r3, [r7, #4]
   81170:	f003 0320 	and.w	r3, r3, #32
   81174:	2b00      	cmp	r3, #0
   81176:	d004      	beq.n	81182 <pio_configure_interrupt+0x32>
   81178:	68fb      	ldr	r3, [r7, #12]
   8117a:	68ba      	ldr	r2, [r7, #8]
   8117c:	f8c3 20d4 	str.w	r2, [r3, #212]	; 0xd4
   81180:	e003      	b.n	8118a <pio_configure_interrupt+0x3a>
   81182:	68fb      	ldr	r3, [r7, #12]
   81184:	68ba      	ldr	r2, [r7, #8]
   81186:	f8c3 20d0 	str.w	r2, [r3, #208]	; 0xd0
   8118a:	687b      	ldr	r3, [r7, #4]
   8118c:	f003 0340 	and.w	r3, r3, #64	; 0x40
   81190:	2b00      	cmp	r3, #0
   81192:	d004      	beq.n	8119e <pio_configure_interrupt+0x4e>
   81194:	68fb      	ldr	r3, [r7, #12]
   81196:	68ba      	ldr	r2, [r7, #8]
   81198:	f8c3 20c0 	str.w	r2, [r3, #192]	; 0xc0
   8119c:	e008      	b.n	811b0 <pio_configure_interrupt+0x60>
   8119e:	68fb      	ldr	r3, [r7, #12]
   811a0:	68ba      	ldr	r2, [r7, #8]
   811a2:	f8c3 20c4 	str.w	r2, [r3, #196]	; 0xc4
   811a6:	e003      	b.n	811b0 <pio_configure_interrupt+0x60>
   811a8:	68fb      	ldr	r3, [r7, #12]
   811aa:	68ba      	ldr	r2, [r7, #8]
   811ac:	f8c3 20b4 	str.w	r2, [r3, #180]	; 0xb4
   811b0:	3714      	adds	r7, #20
   811b2:	46bd      	mov	sp, r7
   811b4:	f85d 7b04 	ldr.w	r7, [sp], #4
   811b8:	4770      	bx	lr
   811ba:	bf00      	nop

000811bc <pio_enable_interrupt>:
   811bc:	b480      	push	{r7}
   811be:	b083      	sub	sp, #12
   811c0:	af00      	add	r7, sp, #0
   811c2:	6078      	str	r0, [r7, #4]
   811c4:	6039      	str	r1, [r7, #0]
   811c6:	687b      	ldr	r3, [r7, #4]
   811c8:	6cdb      	ldr	r3, [r3, #76]	; 0x4c
   811ca:	687b      	ldr	r3, [r7, #4]
   811cc:	683a      	ldr	r2, [r7, #0]
   811ce:	641a      	str	r2, [r3, #64]	; 0x40
   811d0:	370c      	adds	r7, #12
   811d2:	46bd      	mov	sp, r7
   811d4:	f85d 7b04 	ldr.w	r7, [sp], #4
   811d8:	4770      	bx	lr
   811da:	bf00      	nop

000811dc <pio_disable_interrupt>:
   811dc:	b480      	push	{r7}
   811de:	b083      	sub	sp, #12
   811e0:	af00      	add	r7, sp, #0
   811e2:	6078      	str	r0, [r7, #4]
   811e4:	6039      	str	r1, [r7, #0]
   811e6:	687b      	ldr	r3, [r7, #4]
   811e8:	683a      	ldr	r2, [r7, #0]
   811ea:	645a      	str	r2, [r3, #68]	; 0x44
   811ec:	370c      	adds	r7, #12
   811ee:	46bd      	mov	sp, r7
   811f0:	f85d 7b04 	ldr.w	r7, [sp], #4
   811f4:	4770      	bx	lr
   811f6:	bf00      	nop

000811f8 <pio_get_interrupt_status>:
   811f8:	b480      	push	{r7}
   811fa:	b083      	sub	sp, #12
   811fc:	af00      	add	r7, sp, #0
   811fe:	6078      	str	r0, [r7, #4]
   81200:	687b      	ldr	r3, [r7, #4]
   81202:	6cdb      	ldr	r3, [r3, #76]	; 0x4c
   81204:	4618      	mov	r0, r3
   81206:	370c      	adds	r7, #12
   81208:	46bd      	mov	sp, r7
   8120a:	f85d 7b04 	ldr.w	r7, [sp], #4
   8120e:	4770      	bx	lr

00081210 <pio_get_interrupt_mask>:
   81210:	b480      	push	{r7}
   81212:	b083      	sub	sp, #12
   81214:	af00      	add	r7, sp, #0
   81216:	6078      	str	r0, [r7, #4]
   81218:	687b      	ldr	r3, [r7, #4]
   8121a:	6c9b      	ldr	r3, [r3, #72]	; 0x48
   8121c:	4618      	mov	r0, r3
   8121e:	370c      	adds	r7, #12
   81220:	46bd      	mov	sp, r7
   81222:	f85d 7b04 	ldr.w	r7, [sp], #4
   81226:	4770      	bx	lr

00081228 <pio_set_additional_interrupt_mode>:
   81228:	b480      	push	{r7}
   8122a:	b085      	sub	sp, #20
   8122c:	af00      	add	r7, sp, #0
   8122e:	60f8      	str	r0, [r7, #12]
   81230:	60b9      	str	r1, [r7, #8]
   81232:	607a      	str	r2, [r7, #4]
   81234:	687b      	ldr	r3, [r7, #4]
   81236:	f003 0310 	and.w	r3, r3, #16
   8123a:	2b00      	cmp	r3, #0
   8123c:	d020      	beq.n	81280 <pio_set_additional_interrupt_mode+0x58>
   8123e:	68fb      	ldr	r3, [r7, #12]
   81240:	68ba      	ldr	r2, [r7, #8]
   81242:	f8c3 20b0 	str.w	r2, [r3, #176]	; 0xb0
   81246:	687b      	ldr	r3, [r7, #4]
   81248:	f003 0320 	and.w	r3, r3, #32
   8124c:	2b00      	cmp	r3, #0
   8124e:	d004      	beq.n	8125a <pio_set_additional_interrupt_mode+0x32>
   81250:	68fb      	ldr	r3, [r7, #12]
   81252:	68ba      	ldr	r2, [r7, #8]
   81254:	f8c3 20d4 	str.w	r2, [r3, #212]	; 0xd4
   81258:	e003      	b.n	81262 <pio_set_additional_interrupt_mode+0x3a>
   8125a:	68fb      	ldr	r3, [r7, #12]
   8125c:	68ba      	ldr	r2, [r7, #8]
   8125e:	f8c3 20d0 	str.w	r2, [r3, #208]	; 0xd0
   81262:	687b      	ldr	r3, [r7, #4]
   81264:	f003 0340 	and.w	r3, r3, #64	; 0x40
   81268:	2b00      	cmp	r3, #0
   8126a:	d004      	beq.n	81276 <pio_set_additional_interrupt_mode+0x4e>
   8126c:	68fb      	ldr	r3, [r7, #12]
   8126e:	68ba      	ldr	r2, [r7, #8]
   81270:	f8c3 20c0 	str.w	r2, [r3, #192]	; 0xc0
   81274:	e008      	b.n	81288 <pio_set_additional_interrupt_mode+0x60>
   81276:	68fb      	ldr	r3, [r7, #12]
   81278:	68ba      	ldr	r2, [r7, #8]
   8127a:	f8c3 20c4 	str.w	r2, [r3, #196]	; 0xc4
   8127e:	e003      	b.n	81288 <pio_set_additional_interrupt_mode+0x60>
   81280:	68fb      	ldr	r3, [r7, #12]
   81282:	68ba      	ldr	r2, [r7, #8]
   81284:	f8c3 20b4 	str.w	r2, [r3, #180]	; 0xb4
   81288:	3714      	adds	r7, #20
   8128a:	46bd      	mov	sp, r7
   8128c:	f85d 7b04 	ldr.w	r7, [sp], #4
   81290:	4770      	bx	lr
   81292:	bf00      	nop

00081294 <pio_set_writeprotect>:
   81294:	b480      	push	{r7}
   81296:	b083      	sub	sp, #12
   81298:	af00      	add	r7, sp, #0
   8129a:	6078      	str	r0, [r7, #4]
   8129c:	6039      	str	r1, [r7, #0]
   8129e:	683a      	ldr	r2, [r7, #0]
   812a0:	f44f 439e 	mov.w	r3, #20224	; 0x4f00
   812a4:	f2c5 0349 	movt	r3, #20553	; 0x5049
   812a8:	4313      	orrs	r3, r2
   812aa:	687a      	ldr	r2, [r7, #4]
   812ac:	f8c2 30e4 	str.w	r3, [r2, #228]	; 0xe4
   812b0:	370c      	adds	r7, #12
   812b2:	46bd      	mov	sp, r7
   812b4:	f85d 7b04 	ldr.w	r7, [sp], #4
   812b8:	4770      	bx	lr
   812ba:	bf00      	nop

000812bc <pio_get_writeprotect_status>:
   812bc:	b480      	push	{r7}
   812be:	b083      	sub	sp, #12
   812c0:	af00      	add	r7, sp, #0
   812c2:	6078      	str	r0, [r7, #4]
   812c4:	687b      	ldr	r3, [r7, #4]
   812c6:	f8d3 30e8 	ldr.w	r3, [r3, #232]	; 0xe8
   812ca:	4618      	mov	r0, r3
   812cc:	370c      	adds	r7, #12
   812ce:	46bd      	mov	sp, r7
   812d0:	f85d 7b04 	ldr.w	r7, [sp], #4
   812d4:	4770      	bx	lr
   812d6:	bf00      	nop

000812d8 <pio_get_pin_value>:
   812d8:	b580      	push	{r7, lr}
   812da:	b084      	sub	sp, #16
   812dc:	af00      	add	r7, sp, #0
   812de:	6078      	str	r0, [r7, #4]
   812e0:	6878      	ldr	r0, [r7, #4]
   812e2:	f000 f9b7 	bl	81654 <pio_get_pin_group>
   812e6:	60f8      	str	r0, [r7, #12]
   812e8:	68fb      	ldr	r3, [r7, #12]
   812ea:	6bda      	ldr	r2, [r3, #60]	; 0x3c
   812ec:	687b      	ldr	r3, [r7, #4]
   812ee:	f003 031f 	and.w	r3, r3, #31
   812f2:	fa22 f303 	lsr.w	r3, r2, r3
   812f6:	f003 0301 	and.w	r3, r3, #1
   812fa:	4618      	mov	r0, r3
   812fc:	3710      	adds	r7, #16
   812fe:	46bd      	mov	sp, r7
   81300:	bd80      	pop	{r7, pc}
   81302:	bf00      	nop

00081304 <pio_set_pin_high>:
   81304:	b580      	push	{r7, lr}
   81306:	b084      	sub	sp, #16
   81308:	af00      	add	r7, sp, #0
   8130a:	6078      	str	r0, [r7, #4]
   8130c:	6878      	ldr	r0, [r7, #4]
   8130e:	f000 f9a1 	bl	81654 <pio_get_pin_group>
   81312:	60f8      	str	r0, [r7, #12]
   81314:	687b      	ldr	r3, [r7, #4]
   81316:	f003 031f 	and.w	r3, r3, #31
   8131a:	2201      	movs	r2, #1
   8131c:	fa02 f303 	lsl.w	r3, r2, r3
   81320:	461a      	mov	r2, r3
   81322:	68fb      	ldr	r3, [r7, #12]
   81324:	631a      	str	r2, [r3, #48]	; 0x30
   81326:	3710      	adds	r7, #16
   81328:	46bd      	mov	sp, r7
   8132a:	bd80      	pop	{r7, pc}

0008132c <pio_set_pin_low>:
   8132c:	b580      	push	{r7, lr}
   8132e:	b084      	sub	sp, #16
   81330:	af00      	add	r7, sp, #0
   81332:	6078      	str	r0, [r7, #4]
   81334:	6878      	ldr	r0, [r7, #4]
   81336:	f000 f98d 	bl	81654 <pio_get_pin_group>
   8133a:	60f8      	str	r0, [r7, #12]
   8133c:	687b      	ldr	r3, [r7, #4]
   8133e:	f003 031f 	and.w	r3, r3, #31
   81342:	2201      	movs	r2, #1
   81344:	fa02 f303 	lsl.w	r3, r2, r3
   81348:	461a      	mov	r2, r3
   8134a:	68fb      	ldr	r3, [r7, #12]
   8134c:	635a      	str	r2, [r3, #52]	; 0x34
   8134e:	3710      	adds	r7, #16
   81350:	46bd      	mov	sp, r7
   81352:	bd80      	pop	{r7, pc}

00081354 <pio_toggle_pin>:
   81354:	b580      	push	{r7, lr}
   81356:	b084      	sub	sp, #16
   81358:	af00      	add	r7, sp, #0
   8135a:	6078      	str	r0, [r7, #4]
   8135c:	6878      	ldr	r0, [r7, #4]
   8135e:	f000 f979 	bl	81654 <pio_get_pin_group>
   81362:	60f8      	str	r0, [r7, #12]
   81364:	68fb      	ldr	r3, [r7, #12]
   81366:	6b9a      	ldr	r2, [r3, #56]	; 0x38
   81368:	687b      	ldr	r3, [r7, #4]
   8136a:	f003 031f 	and.w	r3, r3, #31
   8136e:	2101      	movs	r1, #1
   81370:	fa01 f303 	lsl.w	r3, r1, r3
   81374:	4013      	ands	r3, r2
   81376:	2b00      	cmp	r3, #0
   81378:	d009      	beq.n	8138e <pio_toggle_pin+0x3a>
   8137a:	687b      	ldr	r3, [r7, #4]
   8137c:	f003 031f 	and.w	r3, r3, #31
   81380:	2201      	movs	r2, #1
   81382:	fa02 f303 	lsl.w	r3, r2, r3
   81386:	461a      	mov	r2, r3
   81388:	68fb      	ldr	r3, [r7, #12]
   8138a:	635a      	str	r2, [r3, #52]	; 0x34
   8138c:	e008      	b.n	813a0 <pio_toggle_pin+0x4c>
   8138e:	687b      	ldr	r3, [r7, #4]
   81390:	f003 031f 	and.w	r3, r3, #31
   81394:	2201      	movs	r2, #1
   81396:	fa02 f303 	lsl.w	r3, r2, r3
   8139a:	461a      	mov	r2, r3
   8139c:	68fb      	ldr	r3, [r7, #12]
   8139e:	631a      	str	r2, [r3, #48]	; 0x30
   813a0:	3710      	adds	r7, #16
   813a2:	46bd      	mov	sp, r7
   813a4:	bd80      	pop	{r7, pc}
   813a6:	bf00      	nop

000813a8 <pio_configure_pin>:
   813a8:	b580      	push	{r7, lr}
   813aa:	b086      	sub	sp, #24
   813ac:	af02      	add	r7, sp, #8
   813ae:	6078      	str	r0, [r7, #4]
   813b0:	6039      	str	r1, [r7, #0]
   813b2:	6878      	ldr	r0, [r7, #4]
   813b4:	f000 f94e 	bl	81654 <pio_get_pin_group>
   813b8:	60f8      	str	r0, [r7, #12]
   813ba:	683b      	ldr	r3, [r7, #0]
   813bc:	f003 43f0 	and.w	r3, r3, #2013265920	; 0x78000000
   813c0:	f1b3 5f20 	cmp.w	r3, #671088640	; 0x28000000
   813c4:	d048      	beq.n	81458 <pio_configure_pin+0xb0>
   813c6:	f1b3 5f20 	cmp.w	r3, #671088640	; 0x28000000
   813ca:	d806      	bhi.n	813da <pio_configure_pin+0x32>
   813cc:	f1b3 6f00 	cmp.w	r3, #134217728	; 0x8000000
   813d0:	d00a      	beq.n	813e8 <pio_configure_pin+0x40>
   813d2:	f1b3 5f80 	cmp.w	r3, #268435456	; 0x10000000
   813d6:	d023      	beq.n	81420 <pio_configure_pin+0x78>
   813d8:	e070      	b.n	814bc <pio_configure_pin+0x114>
   813da:	f1b3 5f40 	cmp.w	r3, #805306368	; 0x30000000
   813de:	d047      	beq.n	81470 <pio_configure_pin+0xc8>
   813e0:	f1b3 5f60 	cmp.w	r3, #939524096	; 0x38000000
   813e4:	d044      	beq.n	81470 <pio_configure_pin+0xc8>
   813e6:	e069      	b.n	814bc <pio_configure_pin+0x114>
   813e8:	687b      	ldr	r3, [r7, #4]
   813ea:	f003 031f 	and.w	r3, r3, #31
   813ee:	2201      	movs	r2, #1
   813f0:	fa02 f303 	lsl.w	r3, r2, r3
   813f4:	68f8      	ldr	r0, [r7, #12]
   813f6:	f04f 6100 	mov.w	r1, #134217728	; 0x8000000
   813fa:	461a      	mov	r2, r3
   813fc:	f7ff fd3c 	bl	80e78 <pio_set_peripheral>
   81400:	687b      	ldr	r3, [r7, #4]
   81402:	f003 031f 	and.w	r3, r3, #31
   81406:	2201      	movs	r2, #1
   81408:	fa02 f303 	lsl.w	r3, r2, r3
   8140c:	461a      	mov	r2, r3
   8140e:	683b      	ldr	r3, [r7, #0]
   81410:	f003 0301 	and.w	r3, r3, #1
   81414:	68f8      	ldr	r0, [r7, #12]
   81416:	4611      	mov	r1, r2
   81418:	461a      	mov	r2, r3
   8141a:	f7ff fcbb 	bl	80d94 <pio_pull_up>
   8141e:	e04f      	b.n	814c0 <pio_configure_pin+0x118>
   81420:	687b      	ldr	r3, [r7, #4]
   81422:	f003 031f 	and.w	r3, r3, #31
   81426:	2201      	movs	r2, #1
   81428:	fa02 f303 	lsl.w	r3, r2, r3
   8142c:	68f8      	ldr	r0, [r7, #12]
   8142e:	f04f 5180 	mov.w	r1, #268435456	; 0x10000000
   81432:	461a      	mov	r2, r3
   81434:	f7ff fd20 	bl	80e78 <pio_set_peripheral>
   81438:	687b      	ldr	r3, [r7, #4]
   8143a:	f003 031f 	and.w	r3, r3, #31
   8143e:	2201      	movs	r2, #1
   81440:	fa02 f303 	lsl.w	r3, r2, r3
   81444:	461a      	mov	r2, r3
   81446:	683b      	ldr	r3, [r7, #0]
   81448:	f003 0301 	and.w	r3, r3, #1
   8144c:	68f8      	ldr	r0, [r7, #12]
   8144e:	4611      	mov	r1, r2
   81450:	461a      	mov	r2, r3
   81452:	f7ff fc9f 	bl	80d94 <pio_pull_up>
   81456:	e033      	b.n	814c0 <pio_configure_pin+0x118>
   81458:	687b      	ldr	r3, [r7, #4]
   8145a:	f003 031f 	and.w	r3, r3, #31
   8145e:	2201      	movs	r2, #1
   81460:	fa02 f303 	lsl.w	r3, r2, r3
   81464:	68f8      	ldr	r0, [r7, #12]
   81466:	4619      	mov	r1, r3
   81468:	683a      	ldr	r2, [r7, #0]
   8146a:	f7ff fd45 	bl	80ef8 <pio_set_input>
   8146e:	e027      	b.n	814c0 <pio_configure_pin+0x118>
   81470:	687b      	ldr	r3, [r7, #4]
   81472:	f003 031f 	and.w	r3, r3, #31
   81476:	2201      	movs	r2, #1
   81478:	fa02 f303 	lsl.w	r3, r2, r3
   8147c:	4619      	mov	r1, r3
   8147e:	683b      	ldr	r3, [r7, #0]
   81480:	f003 5360 	and.w	r3, r3, #939524096	; 0x38000000
   81484:	f1b3 5f60 	cmp.w	r3, #939524096	; 0x38000000
   81488:	bf14      	ite	ne
   8148a:	2300      	movne	r3, #0
   8148c:	2301      	moveq	r3, #1
   8148e:	b2db      	uxtb	r3, r3
   81490:	461a      	mov	r2, r3
   81492:	683b      	ldr	r3, [r7, #0]
   81494:	f003 0304 	and.w	r3, r3, #4
   81498:	2b00      	cmp	r3, #0
   8149a:	bf0c      	ite	eq
   8149c:	2300      	moveq	r3, #0
   8149e:	2301      	movne	r3, #1
   814a0:	b2db      	uxtb	r3, r3
   814a2:	6838      	ldr	r0, [r7, #0]
   814a4:	f000 0001 	and.w	r0, r0, #1
   814a8:	2800      	cmp	r0, #0
   814aa:	bf0c      	ite	eq
   814ac:	2000      	moveq	r0, #0
   814ae:	2001      	movne	r0, #1
   814b0:	b2c0      	uxtb	r0, r0
   814b2:	9000      	str	r0, [sp, #0]
   814b4:	68f8      	ldr	r0, [r7, #12]
   814b6:	f7ff fd59 	bl	80f6c <pio_set_output>
   814ba:	e001      	b.n	814c0 <pio_configure_pin+0x118>
   814bc:	2300      	movs	r3, #0
   814be:	e000      	b.n	814c2 <pio_configure_pin+0x11a>
   814c0:	2301      	movs	r3, #1
   814c2:	4618      	mov	r0, r3
   814c4:	3710      	adds	r7, #16
   814c6:	46bd      	mov	sp, r7
   814c8:	bd80      	pop	{r7, pc}
   814ca:	bf00      	nop

000814cc <pio_set_pin_group_high>:
   814cc:	b480      	push	{r7}
   814ce:	b083      	sub	sp, #12
   814d0:	af00      	add	r7, sp, #0
   814d2:	6078      	str	r0, [r7, #4]
   814d4:	6039      	str	r1, [r7, #0]
   814d6:	687b      	ldr	r3, [r7, #4]
   814d8:	683a      	ldr	r2, [r7, #0]
   814da:	631a      	str	r2, [r3, #48]	; 0x30
   814dc:	370c      	adds	r7, #12
   814de:	46bd      	mov	sp, r7
   814e0:	f85d 7b04 	ldr.w	r7, [sp], #4
   814e4:	4770      	bx	lr
   814e6:	bf00      	nop

000814e8 <pio_set_pin_group_low>:
   814e8:	b480      	push	{r7}
   814ea:	b083      	sub	sp, #12
   814ec:	af00      	add	r7, sp, #0
   814ee:	6078      	str	r0, [r7, #4]
   814f0:	6039      	str	r1, [r7, #0]
   814f2:	687b      	ldr	r3, [r7, #4]
   814f4:	683a      	ldr	r2, [r7, #0]
   814f6:	635a      	str	r2, [r3, #52]	; 0x34
   814f8:	370c      	adds	r7, #12
   814fa:	46bd      	mov	sp, r7
   814fc:	f85d 7b04 	ldr.w	r7, [sp], #4
   81500:	4770      	bx	lr
   81502:	bf00      	nop

00081504 <pio_toggle_pin_group>:
   81504:	b480      	push	{r7}
   81506:	b083      	sub	sp, #12
   81508:	af00      	add	r7, sp, #0
   8150a:	6078      	str	r0, [r7, #4]
   8150c:	6039      	str	r1, [r7, #0]
   8150e:	687b      	ldr	r3, [r7, #4]
   81510:	6b9a      	ldr	r2, [r3, #56]	; 0x38
   81512:	683b      	ldr	r3, [r7, #0]
   81514:	4013      	ands	r3, r2
   81516:	2b00      	cmp	r3, #0
   81518:	d003      	beq.n	81522 <pio_toggle_pin_group+0x1e>
   8151a:	687b      	ldr	r3, [r7, #4]
   8151c:	683a      	ldr	r2, [r7, #0]
   8151e:	635a      	str	r2, [r3, #52]	; 0x34
   81520:	e002      	b.n	81528 <pio_toggle_pin_group+0x24>
   81522:	687b      	ldr	r3, [r7, #4]
   81524:	683a      	ldr	r2, [r7, #0]
   81526:	631a      	str	r2, [r3, #48]	; 0x30
   81528:	370c      	adds	r7, #12
   8152a:	46bd      	mov	sp, r7
   8152c:	f85d 7b04 	ldr.w	r7, [sp], #4
   81530:	4770      	bx	lr
   81532:	bf00      	nop

00081534 <pio_configure_pin_group>:
   81534:	b580      	push	{r7, lr}
   81536:	b086      	sub	sp, #24
   81538:	af02      	add	r7, sp, #8
   8153a:	60f8      	str	r0, [r7, #12]
   8153c:	60b9      	str	r1, [r7, #8]
   8153e:	607a      	str	r2, [r7, #4]
   81540:	687b      	ldr	r3, [r7, #4]
   81542:	f003 43f0 	and.w	r3, r3, #2013265920	; 0x78000000
   81546:	f1b3 5f20 	cmp.w	r3, #671088640	; 0x28000000
   8154a:	d02e      	beq.n	815aa <pio_configure_pin_group+0x76>
   8154c:	f1b3 5f20 	cmp.w	r3, #671088640	; 0x28000000
   81550:	d806      	bhi.n	81560 <pio_configure_pin_group+0x2c>
   81552:	f1b3 6f00 	cmp.w	r3, #134217728	; 0x8000000
   81556:	d00a      	beq.n	8156e <pio_configure_pin_group+0x3a>
   81558:	f1b3 5f80 	cmp.w	r3, #268435456	; 0x10000000
   8155c:	d016      	beq.n	8158c <pio_configure_pin_group+0x58>
   8155e:	e04a      	b.n	815f6 <pio_configure_pin_group+0xc2>
   81560:	f1b3 5f40 	cmp.w	r3, #805306368	; 0x30000000
   81564:	d027      	beq.n	815b6 <pio_configure_pin_group+0x82>
   81566:	f1b3 5f60 	cmp.w	r3, #939524096	; 0x38000000
   8156a:	d024      	beq.n	815b6 <pio_configure_pin_group+0x82>
   8156c:	e043      	b.n	815f6 <pio_configure_pin_group+0xc2>
   8156e:	68f8      	ldr	r0, [r7, #12]
   81570:	f04f 6100 	mov.w	r1, #134217728	; 0x8000000
   81574:	68ba      	ldr	r2, [r7, #8]
   81576:	f7ff fc7f 	bl	80e78 <pio_set_peripheral>
   8157a:	687b      	ldr	r3, [r7, #4]
   8157c:	f003 0301 	and.w	r3, r3, #1
   81580:	68f8      	ldr	r0, [r7, #12]
   81582:	68b9      	ldr	r1, [r7, #8]
   81584:	461a      	mov	r2, r3
   81586:	f7ff fc05 	bl	80d94 <pio_pull_up>
   8158a:	e036      	b.n	815fa <pio_configure_pin_group+0xc6>
   8158c:	68f8      	ldr	r0, [r7, #12]
   8158e:	f04f 5180 	mov.w	r1, #268435456	; 0x10000000
   81592:	68ba      	ldr	r2, [r7, #8]
   81594:	f7ff fc70 	bl	80e78 <pio_set_peripheral>
   81598:	687b      	ldr	r3, [r7, #4]
   8159a:	f003 0301 	and.w	r3, r3, #1
   8159e:	68f8      	ldr	r0, [r7, #12]
   815a0:	68b9      	ldr	r1, [r7, #8]
   815a2:	461a      	mov	r2, r3
   815a4:	f7ff fbf6 	bl	80d94 <pio_pull_up>
   815a8:	e027      	b.n	815fa <pio_configure_pin_group+0xc6>
   815aa:	68f8      	ldr	r0, [r7, #12]
   815ac:	68b9      	ldr	r1, [r7, #8]
   815ae:	687a      	ldr	r2, [r7, #4]
   815b0:	f7ff fca2 	bl	80ef8 <pio_set_input>
   815b4:	e021      	b.n	815fa <pio_configure_pin_group+0xc6>
   815b6:	687b      	ldr	r3, [r7, #4]
   815b8:	f003 5360 	and.w	r3, r3, #939524096	; 0x38000000
   815bc:	f1b3 5f60 	cmp.w	r3, #939524096	; 0x38000000
   815c0:	bf14      	ite	ne
   815c2:	2300      	movne	r3, #0
   815c4:	2301      	moveq	r3, #1
   815c6:	b2db      	uxtb	r3, r3
   815c8:	461a      	mov	r2, r3
   815ca:	687b      	ldr	r3, [r7, #4]
   815cc:	f003 0304 	and.w	r3, r3, #4
   815d0:	2b00      	cmp	r3, #0
   815d2:	bf0c      	ite	eq
   815d4:	2300      	moveq	r3, #0
   815d6:	2301      	movne	r3, #1
   815d8:	b2db      	uxtb	r3, r3
   815da:	6879      	ldr	r1, [r7, #4]
   815dc:	f001 0101 	and.w	r1, r1, #1
   815e0:	2900      	cmp	r1, #0
   815e2:	bf0c      	ite	eq
   815e4:	2100      	moveq	r1, #0
   815e6:	2101      	movne	r1, #1
   815e8:	b2c9      	uxtb	r1, r1
   815ea:	9100      	str	r1, [sp, #0]
   815ec:	68f8      	ldr	r0, [r7, #12]
   815ee:	68b9      	ldr	r1, [r7, #8]
   815f0:	f7ff fcbc 	bl	80f6c <pio_set_output>
   815f4:	e001      	b.n	815fa <pio_configure_pin_group+0xc6>
   815f6:	2300      	movs	r3, #0
   815f8:	e000      	b.n	815fc <pio_configure_pin_group+0xc8>
   815fa:	2301      	movs	r3, #1
   815fc:	4618      	mov	r0, r3
   815fe:	3710      	adds	r7, #16
   81600:	46bd      	mov	sp, r7
   81602:	bd80      	pop	{r7, pc}

00081604 <pio_enable_pin_interrupt>:
   81604:	b580      	push	{r7, lr}
   81606:	b084      	sub	sp, #16
   81608:	af00      	add	r7, sp, #0
   8160a:	6078      	str	r0, [r7, #4]
   8160c:	6878      	ldr	r0, [r7, #4]
   8160e:	f000 f821 	bl	81654 <pio_get_pin_group>
   81612:	60f8      	str	r0, [r7, #12]
   81614:	687b      	ldr	r3, [r7, #4]
   81616:	f003 031f 	and.w	r3, r3, #31
   8161a:	2201      	movs	r2, #1
   8161c:	fa02 f303 	lsl.w	r3, r2, r3
   81620:	461a      	mov	r2, r3
   81622:	68fb      	ldr	r3, [r7, #12]
   81624:	641a      	str	r2, [r3, #64]	; 0x40
   81626:	3710      	adds	r7, #16
   81628:	46bd      	mov	sp, r7
   8162a:	bd80      	pop	{r7, pc}

0008162c <pio_disable_pin_interrupt>:
   8162c:	b580      	push	{r7, lr}
   8162e:	b084      	sub	sp, #16
   81630:	af00      	add	r7, sp, #0
   81632:	6078      	str	r0, [r7, #4]
   81634:	6878      	ldr	r0, [r7, #4]
   81636:	f000 f80d 	bl	81654 <pio_get_pin_group>
   8163a:	60f8      	str	r0, [r7, #12]
   8163c:	687b      	ldr	r3, [r7, #4]
   8163e:	f003 031f 	and.w	r3, r3, #31
   81642:	2201      	movs	r2, #1
   81644:	fa02 f303 	lsl.w	r3, r2, r3
   81648:	461a      	mov	r2, r3
   8164a:	68fb      	ldr	r3, [r7, #12]
   8164c:	645a      	str	r2, [r3, #68]	; 0x44
   8164e:	3710      	adds	r7, #16
   81650:	46bd      	mov	sp, r7
   81652:	bd80      	pop	{r7, pc}

00081654 <pio_get_pin_group>:
   81654:	b480      	push	{r7}
   81656:	b085      	sub	sp, #20
   81658:	af00      	add	r7, sp, #0
   8165a:	6078      	str	r0, [r7, #4]
   8165c:	687b      	ldr	r3, [r7, #4]
   8165e:	095b      	lsrs	r3, r3, #5
   81660:	f503 1300 	add.w	r3, r3, #2097152	; 0x200000
   81664:	f203 7307 	addw	r3, r3, #1799	; 0x707
   81668:	025b      	lsls	r3, r3, #9
   8166a:	60fb      	str	r3, [r7, #12]
   8166c:	68fb      	ldr	r3, [r7, #12]
   8166e:	4618      	mov	r0, r3
   81670:	3714      	adds	r7, #20
   81672:	46bd      	mov	sp, r7
   81674:	f85d 7b04 	ldr.w	r7, [sp], #4
   81678:	4770      	bx	lr
   8167a:	bf00      	nop

0008167c <pio_get_pin_group_id>:
   8167c:	b480      	push	{r7}
   8167e:	b085      	sub	sp, #20
   81680:	af00      	add	r7, sp, #0
   81682:	6078      	str	r0, [r7, #4]
   81684:	687b      	ldr	r3, [r7, #4]
   81686:	095b      	lsrs	r3, r3, #5
   81688:	330b      	adds	r3, #11
   8168a:	60fb      	str	r3, [r7, #12]
   8168c:	68fb      	ldr	r3, [r7, #12]
   8168e:	4618      	mov	r0, r3
   81690:	3714      	adds	r7, #20
   81692:	46bd      	mov	sp, r7
   81694:	f85d 7b04 	ldr.w	r7, [sp], #4
   81698:	4770      	bx	lr
   8169a:	bf00      	nop

0008169c <pio_get_pin_group_mask>:
   8169c:	b480      	push	{r7}
   8169e:	b085      	sub	sp, #20
   816a0:	af00      	add	r7, sp, #0
   816a2:	6078      	str	r0, [r7, #4]
   816a4:	687b      	ldr	r3, [r7, #4]
   816a6:	f003 031f 	and.w	r3, r3, #31
   816aa:	2201      	movs	r2, #1
   816ac:	fa02 f303 	lsl.w	r3, r2, r3
   816b0:	60fb      	str	r3, [r7, #12]
   816b2:	68fb      	ldr	r3, [r7, #12]
   816b4:	4618      	mov	r0, r3
   816b6:	3714      	adds	r7, #20
   816b8:	46bd      	mov	sp, r7
   816ba:	f85d 7b04 	ldr.w	r7, [sp], #4
   816be:	4770      	bx	lr

000816c0 <pmc_mck_set_prescaler>:
   816c0:	b480      	push	{r7}
   816c2:	b083      	sub	sp, #12
   816c4:	af00      	add	r7, sp, #0
   816c6:	6078      	str	r0, [r7, #4]
   816c8:	f44f 63c0 	mov.w	r3, #1536	; 0x600
   816cc:	f2c4 030e 	movt	r3, #16398	; 0x400e
   816d0:	f44f 62c0 	mov.w	r2, #1536	; 0x600
   816d4:	f2c4 020e 	movt	r2, #16398	; 0x400e
   816d8:	6b12      	ldr	r2, [r2, #48]	; 0x30
   816da:	f022 0170 	bic.w	r1, r2, #112	; 0x70
   816de:	687a      	ldr	r2, [r7, #4]
   816e0:	430a      	orrs	r2, r1
   816e2:	631a      	str	r2, [r3, #48]	; 0x30
   816e4:	bf00      	nop
   816e6:	f44f 63c0 	mov.w	r3, #1536	; 0x600
   816ea:	f2c4 030e 	movt	r3, #16398	; 0x400e
   816ee:	6e9b      	ldr	r3, [r3, #104]	; 0x68
   816f0:	f003 0308 	and.w	r3, r3, #8
   816f4:	2b00      	cmp	r3, #0
   816f6:	d0f6      	beq.n	816e6 <pmc_mck_set_prescaler+0x26>
   816f8:	370c      	adds	r7, #12
   816fa:	46bd      	mov	sp, r7
   816fc:	f85d 7b04 	ldr.w	r7, [sp], #4
   81700:	4770      	bx	lr
   81702:	bf00      	nop

00081704 <pmc_mck_set_source>:
   81704:	b480      	push	{r7}
   81706:	b083      	sub	sp, #12
   81708:	af00      	add	r7, sp, #0
   8170a:	6078      	str	r0, [r7, #4]
   8170c:	f44f 63c0 	mov.w	r3, #1536	; 0x600
   81710:	f2c4 030e 	movt	r3, #16398	; 0x400e
   81714:	f44f 62c0 	mov.w	r2, #1536	; 0x600
   81718:	f2c4 020e 	movt	r2, #16398	; 0x400e
   8171c:	6b12      	ldr	r2, [r2, #48]	; 0x30
   8171e:	f022 0103 	bic.w	r1, r2, #3
   81722:	687a      	ldr	r2, [r7, #4]
   81724:	430a      	orrs	r2, r1
   81726:	631a      	str	r2, [r3, #48]	; 0x30
   81728:	bf00      	nop
   8172a:	f44f 63c0 	mov.w	r3, #1536	; 0x600
   8172e:	f2c4 030e 	movt	r3, #16398	; 0x400e
   81732:	6e9b      	ldr	r3, [r3, #104]	; 0x68
   81734:	f003 0308 	and.w	r3, r3, #8
   81738:	2b00      	cmp	r3, #0
   8173a:	d0f6      	beq.n	8172a <pmc_mck_set_source+0x26>
   8173c:	370c      	adds	r7, #12
   8173e:	46bd      	mov	sp, r7
   81740:	f85d 7b04 	ldr.w	r7, [sp], #4
   81744:	4770      	bx	lr
   81746:	bf00      	nop

00081748 <pmc_switch_mck_to_sclk>:
   81748:	b480      	push	{r7}
   8174a:	b085      	sub	sp, #20
   8174c:	af00      	add	r7, sp, #0
   8174e:	6078      	str	r0, [r7, #4]
   81750:	f44f 63c0 	mov.w	r3, #1536	; 0x600
   81754:	f2c4 030e 	movt	r3, #16398	; 0x400e
   81758:	f44f 62c0 	mov.w	r2, #1536	; 0x600
   8175c:	f2c4 020e 	movt	r2, #16398	; 0x400e
   81760:	6b12      	ldr	r2, [r2, #48]	; 0x30
   81762:	f022 0203 	bic.w	r2, r2, #3
   81766:	631a      	str	r2, [r3, #48]	; 0x30
   81768:	f44f 6300 	mov.w	r3, #2048	; 0x800
   8176c:	60fb      	str	r3, [r7, #12]
   8176e:	e007      	b.n	81780 <pmc_switch_mck_to_sclk+0x38>
   81770:	68fb      	ldr	r3, [r7, #12]
   81772:	2b00      	cmp	r3, #0
   81774:	d101      	bne.n	8177a <pmc_switch_mck_to_sclk+0x32>
   81776:	2301      	movs	r3, #1
   81778:	e02f      	b.n	817da <pmc_switch_mck_to_sclk+0x92>
   8177a:	68fb      	ldr	r3, [r7, #12]
   8177c:	3b01      	subs	r3, #1
   8177e:	60fb      	str	r3, [r7, #12]
   81780:	f44f 63c0 	mov.w	r3, #1536	; 0x600
   81784:	f2c4 030e 	movt	r3, #16398	; 0x400e
   81788:	6e9b      	ldr	r3, [r3, #104]	; 0x68
   8178a:	f003 0308 	and.w	r3, r3, #8
   8178e:	2b00      	cmp	r3, #0
   81790:	d0ee      	beq.n	81770 <pmc_switch_mck_to_sclk+0x28>
   81792:	f44f 63c0 	mov.w	r3, #1536	; 0x600
   81796:	f2c4 030e 	movt	r3, #16398	; 0x400e
   8179a:	f44f 62c0 	mov.w	r2, #1536	; 0x600
   8179e:	f2c4 020e 	movt	r2, #16398	; 0x400e
   817a2:	6b12      	ldr	r2, [r2, #48]	; 0x30
   817a4:	f022 0170 	bic.w	r1, r2, #112	; 0x70
   817a8:	687a      	ldr	r2, [r7, #4]
   817aa:	430a      	orrs	r2, r1
   817ac:	631a      	str	r2, [r3, #48]	; 0x30
   817ae:	f44f 6300 	mov.w	r3, #2048	; 0x800
   817b2:	60fb      	str	r3, [r7, #12]
   817b4:	e007      	b.n	817c6 <pmc_switch_mck_to_sclk+0x7e>
   817b6:	68fb      	ldr	r3, [r7, #12]
   817b8:	2b00      	cmp	r3, #0
   817ba:	d101      	bne.n	817c0 <pmc_switch_mck_to_sclk+0x78>
   817bc:	2301      	movs	r3, #1
   817be:	e00c      	b.n	817da <pmc_switch_mck_to_sclk+0x92>
   817c0:	68fb      	ldr	r3, [r7, #12]
   817c2:	3b01      	subs	r3, #1
   817c4:	60fb      	str	r3, [r7, #12]
   817c6:	f44f 63c0 	mov.w	r3, #1536	; 0x600
   817ca:	f2c4 030e 	movt	r3, #16398	; 0x400e
   817ce:	6e9b      	ldr	r3, [r3, #104]	; 0x68
   817d0:	f003 0308 	and.w	r3, r3, #8
   817d4:	2b00      	cmp	r3, #0
   817d6:	d0ee      	beq.n	817b6 <pmc_switch_mck_to_sclk+0x6e>
   817d8:	2300      	movs	r3, #0
   817da:	4618      	mov	r0, r3
   817dc:	3714      	adds	r7, #20
   817de:	46bd      	mov	sp, r7
   817e0:	f85d 7b04 	ldr.w	r7, [sp], #4
   817e4:	4770      	bx	lr
   817e6:	bf00      	nop

000817e8 <pmc_switch_mck_to_mainck>:
   817e8:	b480      	push	{r7}
   817ea:	b085      	sub	sp, #20
   817ec:	af00      	add	r7, sp, #0
   817ee:	6078      	str	r0, [r7, #4]
   817f0:	f44f 63c0 	mov.w	r3, #1536	; 0x600
   817f4:	f2c4 030e 	movt	r3, #16398	; 0x400e
   817f8:	f44f 62c0 	mov.w	r2, #1536	; 0x600
   817fc:	f2c4 020e 	movt	r2, #16398	; 0x400e
   81800:	6b12      	ldr	r2, [r2, #48]	; 0x30
   81802:	f022 0203 	bic.w	r2, r2, #3
   81806:	f042 0201 	orr.w	r2, r2, #1
   8180a:	631a      	str	r2, [r3, #48]	; 0x30
   8180c:	f44f 6300 	mov.w	r3, #2048	; 0x800
   81810:	60fb      	str	r3, [r7, #12]
   81812:	e007      	b.n	81824 <pmc_switch_mck_to_mainck+0x3c>
   81814:	68fb      	ldr	r3, [r7, #12]
   81816:	2b00      	cmp	r3, #0
   81818:	d101      	bne.n	8181e <pmc_switch_mck_to_mainck+0x36>
   8181a:	2301      	movs	r3, #1
   8181c:	e02f      	b.n	8187e <pmc_switch_mck_to_mainck+0x96>
   8181e:	68fb      	ldr	r3, [r7, #12]
   81820:	3b01      	subs	r3, #1
   81822:	60fb      	str	r3, [r7, #12]
   81824:	f44f 63c0 	mov.w	r3, #1536	; 0x600
   81828:	f2c4 030e 	movt	r3, #16398	; 0x400e
   8182c:	6e9b      	ldr	r3, [r3, #104]	; 0x68
   8182e:	f003 0308 	and.w	r3, r3, #8
   81832:	2b00      	cmp	r3, #0
   81834:	d0ee      	beq.n	81814 <pmc_switch_mck_to_mainck+0x2c>
   81836:	f44f 63c0 	mov.w	r3, #1536	; 0x600
   8183a:	f2c4 030e 	movt	r3, #16398	; 0x400e
   8183e:	f44f 62c0 	mov.w	r2, #1536	; 0x600
   81842:	f2c4 020e 	movt	r2, #16398	; 0x400e
   81846:	6b12      	ldr	r2, [r2, #48]	; 0x30
   81848:	f022 0170 	bic.w	r1, r2, #112	; 0x70
   8184c:	687a      	ldr	r2, [r7, #4]
   8184e:	430a      	orrs	r2, r1
   81850:	631a      	str	r2, [r3, #48]	; 0x30
   81852:	f44f 6300 	mov.w	r3, #2048	; 0x800
   81856:	60fb      	str	r3, [r7, #12]
   81858:	e007      	b.n	8186a <pmc_switch_mck_to_mainck+0x82>
   8185a:	68fb      	ldr	r3, [r7, #12]
   8185c:	2b00      	cmp	r3, #0
   8185e:	d101      	bne.n	81864 <pmc_switch_mck_to_mainck+0x7c>
   81860:	2301      	movs	r3, #1
   81862:	e00c      	b.n	8187e <pmc_switch_mck_to_mainck+0x96>
   81864:	68fb      	ldr	r3, [r7, #12]
   81866:	3b01      	subs	r3, #1
   81868:	60fb      	str	r3, [r7, #12]
   8186a:	f44f 63c0 	mov.w	r3, #1536	; 0x600
   8186e:	f2c4 030e 	movt	r3, #16398	; 0x400e
   81872:	6e9b      	ldr	r3, [r3, #104]	; 0x68
   81874:	f003 0308 	and.w	r3, r3, #8
   81878:	2b00      	cmp	r3, #0
   8187a:	d0ee      	beq.n	8185a <pmc_switch_mck_to_mainck+0x72>
   8187c:	2300      	movs	r3, #0
   8187e:	4618      	mov	r0, r3
   81880:	3714      	adds	r7, #20
   81882:	46bd      	mov	sp, r7
   81884:	f85d 7b04 	ldr.w	r7, [sp], #4
   81888:	4770      	bx	lr
   8188a:	bf00      	nop

0008188c <pmc_switch_mck_to_pllack>:
   8188c:	b480      	push	{r7}
   8188e:	b085      	sub	sp, #20
   81890:	af00      	add	r7, sp, #0
   81892:	6078      	str	r0, [r7, #4]
   81894:	f44f 63c0 	mov.w	r3, #1536	; 0x600
   81898:	f2c4 030e 	movt	r3, #16398	; 0x400e
   8189c:	f44f 62c0 	mov.w	r2, #1536	; 0x600
   818a0:	f2c4 020e 	movt	r2, #16398	; 0x400e
   818a4:	6b12      	ldr	r2, [r2, #48]	; 0x30
   818a6:	f022 0170 	bic.w	r1, r2, #112	; 0x70
   818aa:	687a      	ldr	r2, [r7, #4]
   818ac:	430a      	orrs	r2, r1
   818ae:	631a      	str	r2, [r3, #48]	; 0x30
   818b0:	f44f 6300 	mov.w	r3, #2048	; 0x800
   818b4:	60fb      	str	r3, [r7, #12]
   818b6:	e007      	b.n	818c8 <pmc_switch_mck_to_pllack+0x3c>
   818b8:	68fb      	ldr	r3, [r7, #12]
   818ba:	2b00      	cmp	r3, #0
   818bc:	d101      	bne.n	818c2 <pmc_switch_mck_to_pllack+0x36>
   818be:	2301      	movs	r3, #1
   818c0:	e02f      	b.n	81922 <pmc_switch_mck_to_pllack+0x96>
   818c2:	68fb      	ldr	r3, [r7, #12]
   818c4:	3b01      	subs	r3, #1
   818c6:	60fb      	str	r3, [r7, #12]
   818c8:	f44f 63c0 	mov.w	r3, #1536	; 0x600
   818cc:	f2c4 030e 	movt	r3, #16398	; 0x400e
   818d0:	6e9b      	ldr	r3, [r3, #104]	; 0x68
   818d2:	f003 0308 	and.w	r3, r3, #8
   818d6:	2b00      	cmp	r3, #0
   818d8:	d0ee      	beq.n	818b8 <pmc_switch_mck_to_pllack+0x2c>
   818da:	f44f 63c0 	mov.w	r3, #1536	; 0x600
   818de:	f2c4 030e 	movt	r3, #16398	; 0x400e
   818e2:	f44f 62c0 	mov.w	r2, #1536	; 0x600
   818e6:	f2c4 020e 	movt	r2, #16398	; 0x400e
   818ea:	6b12      	ldr	r2, [r2, #48]	; 0x30
   818ec:	f022 0203 	bic.w	r2, r2, #3
   818f0:	f042 0202 	orr.w	r2, r2, #2
   818f4:	631a      	str	r2, [r3, #48]	; 0x30
   818f6:	f44f 6300 	mov.w	r3, #2048	; 0x800
   818fa:	60fb      	str	r3, [r7, #12]
   818fc:	e007      	b.n	8190e <pmc_switch_mck_to_pllack+0x82>
   818fe:	68fb      	ldr	r3, [r7, #12]
   81900:	2b00      	cmp	r3, #0
   81902:	d101      	bne.n	81908 <pmc_switch_mck_to_pllack+0x7c>
   81904:	2301      	movs	r3, #1
   81906:	e00c      	b.n	81922 <pmc_switch_mck_to_pllack+0x96>
   81908:	68fb      	ldr	r3, [r7, #12]
   8190a:	3b01      	subs	r3, #1
   8190c:	60fb      	str	r3, [r7, #12]
   8190e:	f44f 63c0 	mov.w	r3, #1536	; 0x600
   81912:	f2c4 030e 	movt	r3, #16398	; 0x400e
   81916:	6e9b      	ldr	r3, [r3, #104]	; 0x68
   81918:	f003 0308 	and.w	r3, r3, #8
   8191c:	2b00      	cmp	r3, #0
   8191e:	d0ee      	beq.n	818fe <pmc_switch_mck_to_pllack+0x72>
   81920:	2300      	movs	r3, #0
   81922:	4618      	mov	r0, r3
   81924:	3714      	adds	r7, #20
   81926:	46bd      	mov	sp, r7
   81928:	f85d 7b04 	ldr.w	r7, [sp], #4
   8192c:	4770      	bx	lr
   8192e:	bf00      	nop

00081930 <pmc_switch_mck_to_upllck>:
   81930:	b480      	push	{r7}
   81932:	b085      	sub	sp, #20
   81934:	af00      	add	r7, sp, #0
   81936:	6078      	str	r0, [r7, #4]
   81938:	f44f 63c0 	mov.w	r3, #1536	; 0x600
   8193c:	f2c4 030e 	movt	r3, #16398	; 0x400e
   81940:	f44f 62c0 	mov.w	r2, #1536	; 0x600
   81944:	f2c4 020e 	movt	r2, #16398	; 0x400e
   81948:	6b12      	ldr	r2, [r2, #48]	; 0x30
   8194a:	f022 0170 	bic.w	r1, r2, #112	; 0x70
   8194e:	687a      	ldr	r2, [r7, #4]
   81950:	430a      	orrs	r2, r1
   81952:	631a      	str	r2, [r3, #48]	; 0x30
   81954:	f44f 6300 	mov.w	r3, #2048	; 0x800
   81958:	60fb      	str	r3, [r7, #12]
   8195a:	e007      	b.n	8196c <pmc_switch_mck_to_upllck+0x3c>
   8195c:	68fb      	ldr	r3, [r7, #12]
   8195e:	2b00      	cmp	r3, #0
   81960:	d101      	bne.n	81966 <pmc_switch_mck_to_upllck+0x36>
   81962:	2301      	movs	r3, #1
   81964:	e02d      	b.n	819c2 <pmc_switch_mck_to_upllck+0x92>
   81966:	68fb      	ldr	r3, [r7, #12]
   81968:	3b01      	subs	r3, #1
   8196a:	60fb      	str	r3, [r7, #12]
   8196c:	f44f 63c0 	mov.w	r3, #1536	; 0x600
   81970:	f2c4 030e 	movt	r3, #16398	; 0x400e
   81974:	6e9b      	ldr	r3, [r3, #104]	; 0x68
   81976:	f003 0308 	and.w	r3, r3, #8
   8197a:	2b00      	cmp	r3, #0
   8197c:	d0ee      	beq.n	8195c <pmc_switch_mck_to_upllck+0x2c>
   8197e:	f44f 63c0 	mov.w	r3, #1536	; 0x600
   81982:	f2c4 030e 	movt	r3, #16398	; 0x400e
   81986:	f44f 62c0 	mov.w	r2, #1536	; 0x600
   8198a:	f2c4 020e 	movt	r2, #16398	; 0x400e
   8198e:	6b12      	ldr	r2, [r2, #48]	; 0x30
   81990:	f042 0203 	orr.w	r2, r2, #3
   81994:	631a      	str	r2, [r3, #48]	; 0x30
   81996:	f44f 6300 	mov.w	r3, #2048	; 0x800
   8199a:	60fb      	str	r3, [r7, #12]
   8199c:	e007      	b.n	819ae <pmc_switch_mck_to_upllck+0x7e>
   8199e:	68fb      	ldr	r3, [r7, #12]
   819a0:	2b00      	cmp	r3, #0
   819a2:	d101      	bne.n	819a8 <pmc_switch_mck_to_upllck+0x78>
   819a4:	2301      	movs	r3, #1
   819a6:	e00c      	b.n	819c2 <pmc_switch_mck_to_upllck+0x92>
   819a8:	68fb      	ldr	r3, [r7, #12]
   819aa:	3b01      	subs	r3, #1
   819ac:	60fb      	str	r3, [r7, #12]
   819ae:	f44f 63c0 	mov.w	r3, #1536	; 0x600
   819b2:	f2c4 030e 	movt	r3, #16398	; 0x400e
   819b6:	6e9b      	ldr	r3, [r3, #104]	; 0x68
   819b8:	f003 0308 	and.w	r3, r3, #8
   819bc:	2b00      	cmp	r3, #0
   819be:	d0ee      	beq.n	8199e <pmc_switch_mck_to_upllck+0x6e>
   819c0:	2300      	movs	r3, #0
   819c2:	4618      	mov	r0, r3
   819c4:	3714      	adds	r7, #20
   819c6:	46bd      	mov	sp, r7
   819c8:	f85d 7b04 	ldr.w	r7, [sp], #4
   819cc:	4770      	bx	lr
   819ce:	bf00      	nop

000819d0 <pmc_switch_sclk_to_32kxtal>:
   819d0:	b480      	push	{r7}
   819d2:	b083      	sub	sp, #12
   819d4:	af00      	add	r7, sp, #0
   819d6:	6078      	str	r0, [r7, #4]
   819d8:	687b      	ldr	r3, [r7, #4]
   819da:	2b01      	cmp	r3, #1
   819dc:	d10d      	bne.n	819fa <pmc_switch_sclk_to_32kxtal+0x2a>
   819de:	f641 2310 	movw	r3, #6672	; 0x1a10
   819e2:	f2c4 030e 	movt	r3, #16398	; 0x400e
   819e6:	f641 2210 	movw	r2, #6672	; 0x1a10
   819ea:	f2c4 020e 	movt	r2, #16398	; 0x400e
   819ee:	6892      	ldr	r2, [r2, #8]
   819f0:	f042 4225 	orr.w	r2, r2, #2768240640	; 0xa5000000
   819f4:	f442 1280 	orr.w	r2, r2, #1048576	; 0x100000
   819f8:	609a      	str	r2, [r3, #8]
   819fa:	f641 2310 	movw	r3, #6672	; 0x1a10
   819fe:	f2c4 030e 	movt	r3, #16398	; 0x400e
   81a02:	2208      	movs	r2, #8
   81a04:	f2ca 5200 	movt	r2, #42240	; 0xa500
   81a08:	601a      	str	r2, [r3, #0]
   81a0a:	370c      	adds	r7, #12
   81a0c:	46bd      	mov	sp, r7
   81a0e:	f85d 7b04 	ldr.w	r7, [sp], #4
   81a12:	4770      	bx	lr

00081a14 <pmc_osc_is_ready_32kxtal>:
   81a14:	b480      	push	{r7}
   81a16:	af00      	add	r7, sp, #0
   81a18:	f641 2310 	movw	r3, #6672	; 0x1a10
   81a1c:	f2c4 030e 	movt	r3, #16398	; 0x400e
   81a20:	695b      	ldr	r3, [r3, #20]
   81a22:	f003 0380 	and.w	r3, r3, #128	; 0x80
   81a26:	2b00      	cmp	r3, #0
   81a28:	d00a      	beq.n	81a40 <pmc_osc_is_ready_32kxtal+0x2c>
   81a2a:	f44f 63c0 	mov.w	r3, #1536	; 0x600
   81a2e:	f2c4 030e 	movt	r3, #16398	; 0x400e
   81a32:	6e9b      	ldr	r3, [r3, #104]	; 0x68
   81a34:	f003 0380 	and.w	r3, r3, #128	; 0x80
   81a38:	2b00      	cmp	r3, #0
   81a3a:	d001      	beq.n	81a40 <pmc_osc_is_ready_32kxtal+0x2c>
   81a3c:	2301      	movs	r3, #1
   81a3e:	e000      	b.n	81a42 <pmc_osc_is_ready_32kxtal+0x2e>
   81a40:	2300      	movs	r3, #0
   81a42:	4618      	mov	r0, r3
   81a44:	46bd      	mov	sp, r7
   81a46:	f85d 7b04 	ldr.w	r7, [sp], #4
   81a4a:	4770      	bx	lr

00081a4c <pmc_switch_mainck_to_fastrc>:
   81a4c:	b480      	push	{r7}
   81a4e:	b083      	sub	sp, #12
   81a50:	af00      	add	r7, sp, #0
   81a52:	6078      	str	r0, [r7, #4]
   81a54:	f44f 63c0 	mov.w	r3, #1536	; 0x600
   81a58:	f2c4 030e 	movt	r3, #16398	; 0x400e
   81a5c:	f44f 62c0 	mov.w	r2, #1536	; 0x600
   81a60:	f2c4 020e 	movt	r2, #16398	; 0x400e
   81a64:	6a12      	ldr	r2, [r2, #32]
   81a66:	f442 125c 	orr.w	r2, r2, #3604480	; 0x370000
   81a6a:	f042 0208 	orr.w	r2, r2, #8
   81a6e:	621a      	str	r2, [r3, #32]
   81a70:	bf00      	nop
   81a72:	f44f 63c0 	mov.w	r3, #1536	; 0x600
   81a76:	f2c4 030e 	movt	r3, #16398	; 0x400e
   81a7a:	6e9b      	ldr	r3, [r3, #104]	; 0x68
   81a7c:	f403 3300 	and.w	r3, r3, #131072	; 0x20000
   81a80:	2b00      	cmp	r3, #0
   81a82:	d0f6      	beq.n	81a72 <pmc_switch_mainck_to_fastrc+0x26>
   81a84:	f44f 63c0 	mov.w	r3, #1536	; 0x600
   81a88:	f2c4 030e 	movt	r3, #16398	; 0x400e
   81a8c:	f44f 62c0 	mov.w	r2, #1536	; 0x600
   81a90:	f2c4 020e 	movt	r2, #16398	; 0x400e
   81a94:	6a12      	ldr	r2, [r2, #32]
   81a96:	f422 125c 	bic.w	r2, r2, #3604480	; 0x370000
   81a9a:	f022 0270 	bic.w	r2, r2, #112	; 0x70
   81a9e:	6879      	ldr	r1, [r7, #4]
   81aa0:	430a      	orrs	r2, r1
   81aa2:	f442 125c 	orr.w	r2, r2, #3604480	; 0x370000
   81aa6:	621a      	str	r2, [r3, #32]
   81aa8:	bf00      	nop
   81aaa:	f44f 63c0 	mov.w	r3, #1536	; 0x600
   81aae:	f2c4 030e 	movt	r3, #16398	; 0x400e
   81ab2:	6e9b      	ldr	r3, [r3, #104]	; 0x68
   81ab4:	f403 3300 	and.w	r3, r3, #131072	; 0x20000
   81ab8:	2b00      	cmp	r3, #0
   81aba:	d0f6      	beq.n	81aaa <pmc_switch_mainck_to_fastrc+0x5e>
   81abc:	f44f 63c0 	mov.w	r3, #1536	; 0x600
   81ac0:	f2c4 030e 	movt	r3, #16398	; 0x400e
   81ac4:	f44f 62c0 	mov.w	r2, #1536	; 0x600
   81ac8:	f2c4 020e 	movt	r2, #16398	; 0x400e
   81acc:	6a12      	ldr	r2, [r2, #32]
   81ace:	f022 729b 	bic.w	r2, r2, #20316160	; 0x1360000
   81ad2:	f422 3280 	bic.w	r2, r2, #65536	; 0x10000
   81ad6:	f442 125c 	orr.w	r2, r2, #3604480	; 0x370000
   81ada:	621a      	str	r2, [r3, #32]
   81adc:	370c      	adds	r7, #12
   81ade:	46bd      	mov	sp, r7
   81ae0:	f85d 7b04 	ldr.w	r7, [sp], #4
   81ae4:	4770      	bx	lr
   81ae6:	bf00      	nop

00081ae8 <pmc_osc_enable_fastrc>:
   81ae8:	b480      	push	{r7}
   81aea:	b083      	sub	sp, #12
   81aec:	af00      	add	r7, sp, #0
   81aee:	6078      	str	r0, [r7, #4]
   81af0:	f44f 63c0 	mov.w	r3, #1536	; 0x600
   81af4:	f2c4 030e 	movt	r3, #16398	; 0x400e
   81af8:	f44f 62c0 	mov.w	r2, #1536	; 0x600
   81afc:	f2c4 020e 	movt	r2, #16398	; 0x400e
   81b00:	6a12      	ldr	r2, [r2, #32]
   81b02:	f442 125c 	orr.w	r2, r2, #3604480	; 0x370000
   81b06:	f042 0208 	orr.w	r2, r2, #8
   81b0a:	621a      	str	r2, [r3, #32]
   81b0c:	bf00      	nop
   81b0e:	f44f 63c0 	mov.w	r3, #1536	; 0x600
   81b12:	f2c4 030e 	movt	r3, #16398	; 0x400e
   81b16:	6e9b      	ldr	r3, [r3, #104]	; 0x68
   81b18:	f403 3300 	and.w	r3, r3, #131072	; 0x20000
   81b1c:	2b00      	cmp	r3, #0
   81b1e:	d0f6      	beq.n	81b0e <pmc_osc_enable_fastrc+0x26>
   81b20:	f44f 63c0 	mov.w	r3, #1536	; 0x600
   81b24:	f2c4 030e 	movt	r3, #16398	; 0x400e
   81b28:	f44f 62c0 	mov.w	r2, #1536	; 0x600
   81b2c:	f2c4 020e 	movt	r2, #16398	; 0x400e
   81b30:	6a12      	ldr	r2, [r2, #32]
   81b32:	f422 125c 	bic.w	r2, r2, #3604480	; 0x370000
   81b36:	f022 0270 	bic.w	r2, r2, #112	; 0x70
   81b3a:	6879      	ldr	r1, [r7, #4]
   81b3c:	430a      	orrs	r2, r1
   81b3e:	f442 125c 	orr.w	r2, r2, #3604480	; 0x370000
   81b42:	621a      	str	r2, [r3, #32]
   81b44:	bf00      	nop
   81b46:	f44f 63c0 	mov.w	r3, #1536	; 0x600
   81b4a:	f2c4 030e 	movt	r3, #16398	; 0x400e
   81b4e:	6e9b      	ldr	r3, [r3, #104]	; 0x68
   81b50:	f403 3300 	and.w	r3, r3, #131072	; 0x20000
   81b54:	2b00      	cmp	r3, #0
   81b56:	d0f6      	beq.n	81b46 <pmc_osc_enable_fastrc+0x5e>
   81b58:	370c      	adds	r7, #12
   81b5a:	46bd      	mov	sp, r7
   81b5c:	f85d 7b04 	ldr.w	r7, [sp], #4
   81b60:	4770      	bx	lr
   81b62:	bf00      	nop

00081b64 <pmc_osc_disable_fastrc>:
   81b64:	b480      	push	{r7}
   81b66:	af00      	add	r7, sp, #0
   81b68:	f44f 63c0 	mov.w	r3, #1536	; 0x600
   81b6c:	f2c4 030e 	movt	r3, #16398	; 0x400e
   81b70:	f44f 62c0 	mov.w	r2, #1536	; 0x600
   81b74:	f2c4 020e 	movt	r2, #16398	; 0x400e
   81b78:	6a12      	ldr	r2, [r2, #32]
   81b7a:	f422 125c 	bic.w	r2, r2, #3604480	; 0x370000
   81b7e:	f022 0278 	bic.w	r2, r2, #120	; 0x78
   81b82:	f442 125c 	orr.w	r2, r2, #3604480	; 0x370000
   81b86:	621a      	str	r2, [r3, #32]
   81b88:	46bd      	mov	sp, r7
   81b8a:	f85d 7b04 	ldr.w	r7, [sp], #4
   81b8e:	4770      	bx	lr

00081b90 <pmc_osc_is_ready_fastrc>:
   81b90:	b480      	push	{r7}
   81b92:	af00      	add	r7, sp, #0
   81b94:	f44f 63c0 	mov.w	r3, #1536	; 0x600
   81b98:	f2c4 030e 	movt	r3, #16398	; 0x400e
   81b9c:	6e9b      	ldr	r3, [r3, #104]	; 0x68
   81b9e:	f403 3300 	and.w	r3, r3, #131072	; 0x20000
   81ba2:	4618      	mov	r0, r3
   81ba4:	46bd      	mov	sp, r7
   81ba6:	f85d 7b04 	ldr.w	r7, [sp], #4
   81baa:	4770      	bx	lr

00081bac <pmc_osc_enable_main_xtal>:
   81bac:	b480      	push	{r7}
   81bae:	b085      	sub	sp, #20
   81bb0:	af00      	add	r7, sp, #0
   81bb2:	6078      	str	r0, [r7, #4]
   81bb4:	f44f 63c0 	mov.w	r3, #1536	; 0x600
   81bb8:	f2c4 030e 	movt	r3, #16398	; 0x400e
   81bbc:	6a1b      	ldr	r3, [r3, #32]
   81bbe:	60fb      	str	r3, [r7, #12]
   81bc0:	68fb      	ldr	r3, [r7, #12]
   81bc2:	f023 0303 	bic.w	r3, r3, #3
   81bc6:	60fb      	str	r3, [r7, #12]
   81bc8:	687b      	ldr	r3, [r7, #4]
   81bca:	021b      	lsls	r3, r3, #8
   81bcc:	b29a      	uxth	r2, r3
   81bce:	68fb      	ldr	r3, [r7, #12]
   81bd0:	4313      	orrs	r3, r2
   81bd2:	f443 135c 	orr.w	r3, r3, #3604480	; 0x370000
   81bd6:	f043 0301 	orr.w	r3, r3, #1
   81bda:	60fb      	str	r3, [r7, #12]
   81bdc:	f44f 63c0 	mov.w	r3, #1536	; 0x600
   81be0:	f2c4 030e 	movt	r3, #16398	; 0x400e
   81be4:	68fa      	ldr	r2, [r7, #12]
   81be6:	621a      	str	r2, [r3, #32]
   81be8:	bf00      	nop
   81bea:	f44f 63c0 	mov.w	r3, #1536	; 0x600
   81bee:	f2c4 030e 	movt	r3, #16398	; 0x400e
   81bf2:	6e9b      	ldr	r3, [r3, #104]	; 0x68
   81bf4:	f003 0301 	and.w	r3, r3, #1
   81bf8:	2b00      	cmp	r3, #0
   81bfa:	d0f6      	beq.n	81bea <pmc_osc_enable_main_xtal+0x3e>
   81bfc:	3714      	adds	r7, #20
   81bfe:	46bd      	mov	sp, r7
   81c00:	f85d 7b04 	ldr.w	r7, [sp], #4
   81c04:	4770      	bx	lr
   81c06:	bf00      	nop

00081c08 <pmc_osc_bypass_main_xtal>:
   81c08:	b480      	push	{r7}
   81c0a:	b083      	sub	sp, #12
   81c0c:	af00      	add	r7, sp, #0
   81c0e:	f44f 63c0 	mov.w	r3, #1536	; 0x600
   81c12:	f2c4 030e 	movt	r3, #16398	; 0x400e
   81c16:	6a1b      	ldr	r3, [r3, #32]
   81c18:	607b      	str	r3, [r7, #4]
   81c1a:	687b      	ldr	r3, [r7, #4]
   81c1c:	f023 0303 	bic.w	r3, r3, #3
   81c20:	607b      	str	r3, [r7, #4]
   81c22:	687b      	ldr	r3, [r7, #4]
   81c24:	f443 135c 	orr.w	r3, r3, #3604480	; 0x370000
   81c28:	f043 0302 	orr.w	r3, r3, #2
   81c2c:	607b      	str	r3, [r7, #4]
   81c2e:	f44f 63c0 	mov.w	r3, #1536	; 0x600
   81c32:	f2c4 030e 	movt	r3, #16398	; 0x400e
   81c36:	687a      	ldr	r2, [r7, #4]
   81c38:	621a      	str	r2, [r3, #32]
   81c3a:	370c      	adds	r7, #12
   81c3c:	46bd      	mov	sp, r7
   81c3e:	f85d 7b04 	ldr.w	r7, [sp], #4
   81c42:	4770      	bx	lr

00081c44 <pmc_osc_disable_main_xtal>:
   81c44:	b480      	push	{r7}
   81c46:	b083      	sub	sp, #12
   81c48:	af00      	add	r7, sp, #0
   81c4a:	f44f 63c0 	mov.w	r3, #1536	; 0x600
   81c4e:	f2c4 030e 	movt	r3, #16398	; 0x400e
   81c52:	6a1b      	ldr	r3, [r3, #32]
   81c54:	607b      	str	r3, [r7, #4]
   81c56:	687b      	ldr	r3, [r7, #4]
   81c58:	f023 0303 	bic.w	r3, r3, #3
   81c5c:	607b      	str	r3, [r7, #4]
   81c5e:	f44f 63c0 	mov.w	r3, #1536	; 0x600
   81c62:	f2c4 030e 	movt	r3, #16398	; 0x400e
   81c66:	687a      	ldr	r2, [r7, #4]
   81c68:	f442 125c 	orr.w	r2, r2, #3604480	; 0x370000
   81c6c:	621a      	str	r2, [r3, #32]
   81c6e:	370c      	adds	r7, #12
   81c70:	46bd      	mov	sp, r7
   81c72:	f85d 7b04 	ldr.w	r7, [sp], #4
   81c76:	4770      	bx	lr

00081c78 <pmc_osc_is_bypassed_main_xtal>:
   81c78:	b480      	push	{r7}
   81c7a:	af00      	add	r7, sp, #0
   81c7c:	f44f 63c0 	mov.w	r3, #1536	; 0x600
   81c80:	f2c4 030e 	movt	r3, #16398	; 0x400e
   81c84:	6a1b      	ldr	r3, [r3, #32]
   81c86:	f003 0302 	and.w	r3, r3, #2
   81c8a:	4618      	mov	r0, r3
   81c8c:	46bd      	mov	sp, r7
   81c8e:	f85d 7b04 	ldr.w	r7, [sp], #4
   81c92:	4770      	bx	lr

00081c94 <pmc_osc_is_ready_main_xtal>:
   81c94:	b480      	push	{r7}
   81c96:	af00      	add	r7, sp, #0
   81c98:	f44f 63c0 	mov.w	r3, #1536	; 0x600
   81c9c:	f2c4 030e 	movt	r3, #16398	; 0x400e
   81ca0:	6e9b      	ldr	r3, [r3, #104]	; 0x68
   81ca2:	f003 0301 	and.w	r3, r3, #1
   81ca6:	4618      	mov	r0, r3
   81ca8:	46bd      	mov	sp, r7
   81caa:	f85d 7b04 	ldr.w	r7, [sp], #4
   81cae:	4770      	bx	lr

00081cb0 <pmc_switch_mainck_to_xtal>:
   81cb0:	b480      	push	{r7}
   81cb2:	b083      	sub	sp, #12
   81cb4:	af00      	add	r7, sp, #0
   81cb6:	6078      	str	r0, [r7, #4]
   81cb8:	6039      	str	r1, [r7, #0]
   81cba:	687b      	ldr	r3, [r7, #4]
   81cbc:	2b00      	cmp	r3, #0
   81cbe:	d013      	beq.n	81ce8 <pmc_switch_mainck_to_xtal+0x38>
   81cc0:	f44f 61c0 	mov.w	r1, #1536	; 0x600
   81cc4:	f2c4 010e 	movt	r1, #16398	; 0x400e
   81cc8:	f44f 63c0 	mov.w	r3, #1536	; 0x600
   81ccc:	f2c4 030e 	movt	r3, #16398	; 0x400e
   81cd0:	6a1b      	ldr	r3, [r3, #32]
   81cd2:	f64f 72fc 	movw	r2, #65532	; 0xfffc
   81cd6:	f6cf 62c8 	movt	r2, #65224	; 0xfec8
   81cda:	401a      	ands	r2, r3
   81cdc:	2302      	movs	r3, #2
   81cde:	f2c0 1337 	movt	r3, #311	; 0x137
   81ce2:	4313      	orrs	r3, r2
   81ce4:	620b      	str	r3, [r1, #32]
   81ce6:	e02d      	b.n	81d44 <pmc_switch_mainck_to_xtal+0x94>
   81ce8:	f44f 63c0 	mov.w	r3, #1536	; 0x600
   81cec:	f2c4 030e 	movt	r3, #16398	; 0x400e
   81cf0:	f44f 62c0 	mov.w	r2, #1536	; 0x600
   81cf4:	f2c4 020e 	movt	r2, #16398	; 0x400e
   81cf8:	6a12      	ldr	r2, [r2, #32]
   81cfa:	f422 125c 	bic.w	r2, r2, #3604480	; 0x370000
   81cfe:	f022 0203 	bic.w	r2, r2, #3
   81d02:	6839      	ldr	r1, [r7, #0]
   81d04:	0209      	lsls	r1, r1, #8
   81d06:	b289      	uxth	r1, r1
   81d08:	430a      	orrs	r2, r1
   81d0a:	f442 125c 	orr.w	r2, r2, #3604480	; 0x370000
   81d0e:	f042 0201 	orr.w	r2, r2, #1
   81d12:	621a      	str	r2, [r3, #32]
   81d14:	bf00      	nop
   81d16:	f44f 63c0 	mov.w	r3, #1536	; 0x600
   81d1a:	f2c4 030e 	movt	r3, #16398	; 0x400e
   81d1e:	6e9b      	ldr	r3, [r3, #104]	; 0x68
   81d20:	f003 0301 	and.w	r3, r3, #1
   81d24:	2b00      	cmp	r3, #0
   81d26:	d0f6      	beq.n	81d16 <pmc_switch_mainck_to_xtal+0x66>
   81d28:	f44f 63c0 	mov.w	r3, #1536	; 0x600
   81d2c:	f2c4 030e 	movt	r3, #16398	; 0x400e
   81d30:	f44f 62c0 	mov.w	r2, #1536	; 0x600
   81d34:	f2c4 020e 	movt	r2, #16398	; 0x400e
   81d38:	6a12      	ldr	r2, [r2, #32]
   81d3a:	f042 729b 	orr.w	r2, r2, #20316160	; 0x1360000
   81d3e:	f442 3280 	orr.w	r2, r2, #65536	; 0x10000
   81d42:	621a      	str	r2, [r3, #32]
   81d44:	370c      	adds	r7, #12
   81d46:	46bd      	mov	sp, r7
   81d48:	f85d 7b04 	ldr.w	r7, [sp], #4
   81d4c:	4770      	bx	lr
   81d4e:	bf00      	nop

00081d50 <pmc_osc_disable_xtal>:
   81d50:	b480      	push	{r7}
   81d52:	b083      	sub	sp, #12
   81d54:	af00      	add	r7, sp, #0
   81d56:	6078      	str	r0, [r7, #4]
   81d58:	687b      	ldr	r3, [r7, #4]
   81d5a:	2b00      	cmp	r3, #0
   81d5c:	d010      	beq.n	81d80 <pmc_osc_disable_xtal+0x30>
   81d5e:	f44f 63c0 	mov.w	r3, #1536	; 0x600
   81d62:	f2c4 030e 	movt	r3, #16398	; 0x400e
   81d66:	f44f 62c0 	mov.w	r2, #1536	; 0x600
   81d6a:	f2c4 020e 	movt	r2, #16398	; 0x400e
   81d6e:	6a12      	ldr	r2, [r2, #32]
   81d70:	f422 125c 	bic.w	r2, r2, #3604480	; 0x370000
   81d74:	f022 0202 	bic.w	r2, r2, #2
   81d78:	f442 125c 	orr.w	r2, r2, #3604480	; 0x370000
   81d7c:	621a      	str	r2, [r3, #32]
   81d7e:	e00f      	b.n	81da0 <pmc_osc_disable_xtal+0x50>
   81d80:	f44f 63c0 	mov.w	r3, #1536	; 0x600
   81d84:	f2c4 030e 	movt	r3, #16398	; 0x400e
   81d88:	f44f 62c0 	mov.w	r2, #1536	; 0x600
   81d8c:	f2c4 020e 	movt	r2, #16398	; 0x400e
   81d90:	6a12      	ldr	r2, [r2, #32]
   81d92:	f422 125c 	bic.w	r2, r2, #3604480	; 0x370000
   81d96:	f022 0201 	bic.w	r2, r2, #1
   81d9a:	f442 125c 	orr.w	r2, r2, #3604480	; 0x370000
   81d9e:	621a      	str	r2, [r3, #32]
   81da0:	370c      	adds	r7, #12
   81da2:	46bd      	mov	sp, r7
   81da4:	f85d 7b04 	ldr.w	r7, [sp], #4
   81da8:	4770      	bx	lr
   81daa:	bf00      	nop

00081dac <pmc_osc_is_ready_mainck>:
   81dac:	b480      	push	{r7}
   81dae:	af00      	add	r7, sp, #0
   81db0:	f44f 63c0 	mov.w	r3, #1536	; 0x600
   81db4:	f2c4 030e 	movt	r3, #16398	; 0x400e
   81db8:	6e9b      	ldr	r3, [r3, #104]	; 0x68
   81dba:	f403 3380 	and.w	r3, r3, #65536	; 0x10000
   81dbe:	4618      	mov	r0, r3
   81dc0:	46bd      	mov	sp, r7
   81dc2:	f85d 7b04 	ldr.w	r7, [sp], #4
   81dc6:	4770      	bx	lr

00081dc8 <pmc_mainck_osc_select>:
   81dc8:	b480      	push	{r7}
   81dca:	b085      	sub	sp, #20
   81dcc:	af00      	add	r7, sp, #0
   81dce:	6078      	str	r0, [r7, #4]
   81dd0:	f44f 63c0 	mov.w	r3, #1536	; 0x600
   81dd4:	f2c4 030e 	movt	r3, #16398	; 0x400e
   81dd8:	6a1b      	ldr	r3, [r3, #32]
   81dda:	60fb      	str	r3, [r7, #12]
   81ddc:	687b      	ldr	r3, [r7, #4]
   81dde:	2b00      	cmp	r3, #0
   81de0:	d004      	beq.n	81dec <pmc_mainck_osc_select+0x24>
   81de2:	68fb      	ldr	r3, [r7, #12]
   81de4:	f043 7380 	orr.w	r3, r3, #16777216	; 0x1000000
   81de8:	60fb      	str	r3, [r7, #12]
   81dea:	e003      	b.n	81df4 <pmc_mainck_osc_select+0x2c>
   81dec:	68fb      	ldr	r3, [r7, #12]
   81dee:	f023 7380 	bic.w	r3, r3, #16777216	; 0x1000000
   81df2:	60fb      	str	r3, [r7, #12]
   81df4:	f44f 63c0 	mov.w	r3, #1536	; 0x600
   81df8:	f2c4 030e 	movt	r3, #16398	; 0x400e
   81dfc:	68fa      	ldr	r2, [r7, #12]
   81dfe:	f442 125c 	orr.w	r2, r2, #3604480	; 0x370000
   81e02:	621a      	str	r2, [r3, #32]
   81e04:	3714      	adds	r7, #20
   81e06:	46bd      	mov	sp, r7
   81e08:	f85d 7b04 	ldr.w	r7, [sp], #4
   81e0c:	4770      	bx	lr
   81e0e:	bf00      	nop

00081e10 <pmc_enable_pllack>:
   81e10:	b580      	push	{r7, lr}
   81e12:	b084      	sub	sp, #16
   81e14:	af00      	add	r7, sp, #0
   81e16:	60f8      	str	r0, [r7, #12]
   81e18:	60b9      	str	r1, [r7, #8]
   81e1a:	607a      	str	r2, [r7, #4]
   81e1c:	f000 f822 	bl	81e64 <pmc_disable_pllack>
   81e20:	f44f 62c0 	mov.w	r2, #1536	; 0x600
   81e24:	f2c4 020e 	movt	r2, #16398	; 0x400e
   81e28:	687b      	ldr	r3, [r7, #4]
   81e2a:	b2d9      	uxtb	r1, r3
   81e2c:	68bb      	ldr	r3, [r7, #8]
   81e2e:	021b      	lsls	r3, r3, #8
   81e30:	f403 537c 	and.w	r3, r3, #16128	; 0x3f00
   81e34:	4319      	orrs	r1, r3
   81e36:	68fb      	ldr	r3, [r7, #12]
   81e38:	0418      	lsls	r0, r3, #16
   81e3a:	2300      	movs	r3, #0
   81e3c:	f2c0 73ff 	movt	r3, #2047	; 0x7ff
   81e40:	4003      	ands	r3, r0
   81e42:	430b      	orrs	r3, r1
   81e44:	f043 5300 	orr.w	r3, r3, #536870912	; 0x20000000
   81e48:	6293      	str	r3, [r2, #40]	; 0x28
   81e4a:	bf00      	nop
   81e4c:	f44f 63c0 	mov.w	r3, #1536	; 0x600
   81e50:	f2c4 030e 	movt	r3, #16398	; 0x400e
   81e54:	6e9b      	ldr	r3, [r3, #104]	; 0x68
   81e56:	f003 0302 	and.w	r3, r3, #2
   81e5a:	2b00      	cmp	r3, #0
   81e5c:	d0f6      	beq.n	81e4c <pmc_enable_pllack+0x3c>
   81e5e:	3710      	adds	r7, #16
   81e60:	46bd      	mov	sp, r7
   81e62:	bd80      	pop	{r7, pc}

00081e64 <pmc_disable_pllack>:
   81e64:	b480      	push	{r7}
   81e66:	af00      	add	r7, sp, #0
   81e68:	f44f 63c0 	mov.w	r3, #1536	; 0x600
   81e6c:	f2c4 030e 	movt	r3, #16398	; 0x400e
   81e70:	f04f 5200 	mov.w	r2, #536870912	; 0x20000000
   81e74:	629a      	str	r2, [r3, #40]	; 0x28
   81e76:	46bd      	mov	sp, r7
   81e78:	f85d 7b04 	ldr.w	r7, [sp], #4
   81e7c:	4770      	bx	lr
   81e7e:	bf00      	nop

00081e80 <pmc_is_locked_pllack>:
   81e80:	b480      	push	{r7}
   81e82:	af00      	add	r7, sp, #0
   81e84:	f44f 63c0 	mov.w	r3, #1536	; 0x600
   81e88:	f2c4 030e 	movt	r3, #16398	; 0x400e
   81e8c:	6e9b      	ldr	r3, [r3, #104]	; 0x68
   81e8e:	f003 0302 	and.w	r3, r3, #2
   81e92:	4618      	mov	r0, r3
   81e94:	46bd      	mov	sp, r7
   81e96:	f85d 7b04 	ldr.w	r7, [sp], #4
   81e9a:	4770      	bx	lr

00081e9c <pmc_enable_upll_clock>:
   81e9c:	b480      	push	{r7}
   81e9e:	af00      	add	r7, sp, #0
   81ea0:	f44f 63c0 	mov.w	r3, #1536	; 0x600
   81ea4:	f2c4 030e 	movt	r3, #16398	; 0x400e
   81ea8:	f44f 1244 	mov.w	r2, #3211264	; 0x310000
   81eac:	61da      	str	r2, [r3, #28]
   81eae:	bf00      	nop
   81eb0:	f44f 63c0 	mov.w	r3, #1536	; 0x600
   81eb4:	f2c4 030e 	movt	r3, #16398	; 0x400e
   81eb8:	6e9b      	ldr	r3, [r3, #104]	; 0x68
   81eba:	f003 0340 	and.w	r3, r3, #64	; 0x40
   81ebe:	2b00      	cmp	r3, #0
   81ec0:	d0f6      	beq.n	81eb0 <pmc_enable_upll_clock+0x14>
   81ec2:	46bd      	mov	sp, r7
   81ec4:	f85d 7b04 	ldr.w	r7, [sp], #4
   81ec8:	4770      	bx	lr
   81eca:	bf00      	nop

00081ecc <pmc_disable_upll_clock>:
   81ecc:	b480      	push	{r7}
   81ece:	af00      	add	r7, sp, #0
   81ed0:	f44f 63c0 	mov.w	r3, #1536	; 0x600
   81ed4:	f2c4 030e 	movt	r3, #16398	; 0x400e
   81ed8:	f44f 62c0 	mov.w	r2, #1536	; 0x600
   81edc:	f2c4 020e 	movt	r2, #16398	; 0x400e
   81ee0:	69d2      	ldr	r2, [r2, #28]
   81ee2:	f422 3280 	bic.w	r2, r2, #65536	; 0x10000
   81ee6:	61da      	str	r2, [r3, #28]
   81ee8:	46bd      	mov	sp, r7
   81eea:	f85d 7b04 	ldr.w	r7, [sp], #4
   81eee:	4770      	bx	lr

00081ef0 <pmc_is_locked_upll>:
   81ef0:	b480      	push	{r7}
   81ef2:	af00      	add	r7, sp, #0
   81ef4:	f44f 63c0 	mov.w	r3, #1536	; 0x600
   81ef8:	f2c4 030e 	movt	r3, #16398	; 0x400e
   81efc:	6e9b      	ldr	r3, [r3, #104]	; 0x68
   81efe:	f003 0340 	and.w	r3, r3, #64	; 0x40
   81f02:	4618      	mov	r0, r3
   81f04:	46bd      	mov	sp, r7
   81f06:	f85d 7b04 	ldr.w	r7, [sp], #4
   81f0a:	4770      	bx	lr

00081f0c <pmc_enable_periph_clk>:
   81f0c:	b480      	push	{r7}
   81f0e:	b083      	sub	sp, #12
   81f10:	af00      	add	r7, sp, #0
   81f12:	6078      	str	r0, [r7, #4]
   81f14:	687b      	ldr	r3, [r7, #4]
   81f16:	2b2c      	cmp	r3, #44	; 0x2c
   81f18:	d901      	bls.n	81f1e <pmc_enable_periph_clk+0x12>
   81f1a:	2301      	movs	r3, #1
   81f1c:	e03b      	b.n	81f96 <pmc_enable_periph_clk+0x8a>
   81f1e:	687b      	ldr	r3, [r7, #4]
   81f20:	2b1f      	cmp	r3, #31
   81f22:	d819      	bhi.n	81f58 <pmc_enable_periph_clk+0x4c>
   81f24:	f44f 63c0 	mov.w	r3, #1536	; 0x600
   81f28:	f2c4 030e 	movt	r3, #16398	; 0x400e
   81f2c:	699a      	ldr	r2, [r3, #24]
   81f2e:	687b      	ldr	r3, [r7, #4]
   81f30:	2101      	movs	r1, #1
   81f32:	fa01 f303 	lsl.w	r3, r1, r3
   81f36:	401a      	ands	r2, r3
   81f38:	687b      	ldr	r3, [r7, #4]
   81f3a:	2101      	movs	r1, #1
   81f3c:	fa01 f303 	lsl.w	r3, r1, r3
   81f40:	429a      	cmp	r2, r3
   81f42:	d027      	beq.n	81f94 <pmc_enable_periph_clk+0x88>
   81f44:	f44f 63c0 	mov.w	r3, #1536	; 0x600
   81f48:	f2c4 030e 	movt	r3, #16398	; 0x400e
   81f4c:	687a      	ldr	r2, [r7, #4]
   81f4e:	2101      	movs	r1, #1
   81f50:	fa01 f202 	lsl.w	r2, r1, r2
   81f54:	611a      	str	r2, [r3, #16]
   81f56:	e01d      	b.n	81f94 <pmc_enable_periph_clk+0x88>
   81f58:	687b      	ldr	r3, [r7, #4]
   81f5a:	3b20      	subs	r3, #32
   81f5c:	607b      	str	r3, [r7, #4]
   81f5e:	f44f 63c0 	mov.w	r3, #1536	; 0x600
   81f62:	f2c4 030e 	movt	r3, #16398	; 0x400e
   81f66:	f8d3 2108 	ldr.w	r2, [r3, #264]	; 0x108
   81f6a:	687b      	ldr	r3, [r7, #4]
   81f6c:	2101      	movs	r1, #1
   81f6e:	fa01 f303 	lsl.w	r3, r1, r3
   81f72:	401a      	ands	r2, r3
   81f74:	687b      	ldr	r3, [r7, #4]
   81f76:	2101      	movs	r1, #1
   81f78:	fa01 f303 	lsl.w	r3, r1, r3
   81f7c:	429a      	cmp	r2, r3
   81f7e:	d009      	beq.n	81f94 <pmc_enable_periph_clk+0x88>
   81f80:	f44f 63c0 	mov.w	r3, #1536	; 0x600
   81f84:	f2c4 030e 	movt	r3, #16398	; 0x400e
   81f88:	687a      	ldr	r2, [r7, #4]
   81f8a:	2101      	movs	r1, #1
   81f8c:	fa01 f202 	lsl.w	r2, r1, r2
   81f90:	f8c3 2100 	str.w	r2, [r3, #256]	; 0x100
   81f94:	2300      	movs	r3, #0
   81f96:	4618      	mov	r0, r3
   81f98:	370c      	adds	r7, #12
   81f9a:	46bd      	mov	sp, r7
   81f9c:	f85d 7b04 	ldr.w	r7, [sp], #4
   81fa0:	4770      	bx	lr
   81fa2:	bf00      	nop

00081fa4 <pmc_disable_periph_clk>:
   81fa4:	b480      	push	{r7}
   81fa6:	b083      	sub	sp, #12
   81fa8:	af00      	add	r7, sp, #0
   81faa:	6078      	str	r0, [r7, #4]
   81fac:	687b      	ldr	r3, [r7, #4]
   81fae:	2b2c      	cmp	r3, #44	; 0x2c
   81fb0:	d901      	bls.n	81fb6 <pmc_disable_periph_clk+0x12>
   81fb2:	2301      	movs	r3, #1
   81fb4:	e03b      	b.n	8202e <pmc_disable_periph_clk+0x8a>
   81fb6:	687b      	ldr	r3, [r7, #4]
   81fb8:	2b1f      	cmp	r3, #31
   81fba:	d819      	bhi.n	81ff0 <pmc_disable_periph_clk+0x4c>
   81fbc:	f44f 63c0 	mov.w	r3, #1536	; 0x600
   81fc0:	f2c4 030e 	movt	r3, #16398	; 0x400e
   81fc4:	699a      	ldr	r2, [r3, #24]
   81fc6:	687b      	ldr	r3, [r7, #4]
   81fc8:	2101      	movs	r1, #1
   81fca:	fa01 f303 	lsl.w	r3, r1, r3
   81fce:	401a      	ands	r2, r3
   81fd0:	687b      	ldr	r3, [r7, #4]
   81fd2:	2101      	movs	r1, #1
   81fd4:	fa01 f303 	lsl.w	r3, r1, r3
   81fd8:	429a      	cmp	r2, r3
   81fda:	d127      	bne.n	8202c <pmc_disable_periph_clk+0x88>
   81fdc:	f44f 63c0 	mov.w	r3, #1536	; 0x600
   81fe0:	f2c4 030e 	movt	r3, #16398	; 0x400e
   81fe4:	687a      	ldr	r2, [r7, #4]
   81fe6:	2101      	movs	r1, #1
   81fe8:	fa01 f202 	lsl.w	r2, r1, r2
   81fec:	615a      	str	r2, [r3, #20]
   81fee:	e01d      	b.n	8202c <pmc_disable_periph_clk+0x88>
   81ff0:	687b      	ldr	r3, [r7, #4]
   81ff2:	3b20      	subs	r3, #32
   81ff4:	607b      	str	r3, [r7, #4]
   81ff6:	f44f 63c0 	mov.w	r3, #1536	; 0x600
   81ffa:	f2c4 030e 	movt	r3, #16398	; 0x400e
   81ffe:	f8d3 2108 	ldr.w	r2, [r3, #264]	; 0x108
   82002:	687b      	ldr	r3, [r7, #4]
   82004:	2101      	movs	r1, #1
   82006:	fa01 f303 	lsl.w	r3, r1, r3
   8200a:	401a      	ands	r2, r3
   8200c:	687b      	ldr	r3, [r7, #4]
   8200e:	2101      	movs	r1, #1
   82010:	fa01 f303 	lsl.w	r3, r1, r3
   82014:	429a      	cmp	r2, r3
   82016:	d109      	bne.n	8202c <pmc_disable_periph_clk+0x88>
   82018:	f44f 63c0 	mov.w	r3, #1536	; 0x600
   8201c:	f2c4 030e 	movt	r3, #16398	; 0x400e
   82020:	687a      	ldr	r2, [r7, #4]
   82022:	2101      	movs	r1, #1
   82024:	fa01 f202 	lsl.w	r2, r1, r2
   82028:	f8c3 2104 	str.w	r2, [r3, #260]	; 0x104
   8202c:	2300      	movs	r3, #0
   8202e:	4618      	mov	r0, r3
   82030:	370c      	adds	r7, #12
   82032:	46bd      	mov	sp, r7
   82034:	f85d 7b04 	ldr.w	r7, [sp], #4
   82038:	4770      	bx	lr
   8203a:	bf00      	nop

0008203c <pmc_enable_all_periph_clk>:
   8203c:	b480      	push	{r7}
   8203e:	af00      	add	r7, sp, #0
   82040:	f44f 63c0 	mov.w	r3, #1536	; 0x600
   82044:	f2c4 030e 	movt	r3, #16398	; 0x400e
   82048:	f06f 0203 	mvn.w	r2, #3
   8204c:	611a      	str	r2, [r3, #16]
   8204e:	bf00      	nop
   82050:	f44f 63c0 	mov.w	r3, #1536	; 0x600
   82054:	f2c4 030e 	movt	r3, #16398	; 0x400e
   82058:	699b      	ldr	r3, [r3, #24]
   8205a:	f023 0303 	bic.w	r3, r3, #3
   8205e:	f113 0f04 	cmn.w	r3, #4
   82062:	d1f5      	bne.n	82050 <pmc_enable_all_periph_clk+0x14>
   82064:	f44f 63c0 	mov.w	r3, #1536	; 0x600
   82068:	f2c4 030e 	movt	r3, #16398	; 0x400e
   8206c:	f04f 32ff 	mov.w	r2, #4294967295	; 0xffffffff
   82070:	f8c3 2100 	str.w	r2, [r3, #256]	; 0x100
   82074:	bf00      	nop
   82076:	f44f 63c0 	mov.w	r3, #1536	; 0x600
   8207a:	f2c4 030e 	movt	r3, #16398	; 0x400e
   8207e:	f8d3 3108 	ldr.w	r3, [r3, #264]	; 0x108
   82082:	f1b3 3fff 	cmp.w	r3, #4294967295	; 0xffffffff
   82086:	d1f6      	bne.n	82076 <pmc_enable_all_periph_clk+0x3a>
   82088:	46bd      	mov	sp, r7
   8208a:	f85d 7b04 	ldr.w	r7, [sp], #4
   8208e:	4770      	bx	lr

00082090 <pmc_disable_all_periph_clk>:
   82090:	b480      	push	{r7}
   82092:	af00      	add	r7, sp, #0
   82094:	f44f 63c0 	mov.w	r3, #1536	; 0x600
   82098:	f2c4 030e 	movt	r3, #16398	; 0x400e
   8209c:	f06f 0203 	mvn.w	r2, #3
   820a0:	615a      	str	r2, [r3, #20]
   820a2:	bf00      	nop
   820a4:	f44f 63c0 	mov.w	r3, #1536	; 0x600
   820a8:	f2c4 030e 	movt	r3, #16398	; 0x400e
   820ac:	699b      	ldr	r3, [r3, #24]
   820ae:	f023 0303 	bic.w	r3, r3, #3
   820b2:	2b00      	cmp	r3, #0
   820b4:	d1f6      	bne.n	820a4 <pmc_disable_all_periph_clk+0x14>
   820b6:	f44f 63c0 	mov.w	r3, #1536	; 0x600
   820ba:	f2c4 030e 	movt	r3, #16398	; 0x400e
   820be:	f04f 32ff 	mov.w	r2, #4294967295	; 0xffffffff
   820c2:	f8c3 2104 	str.w	r2, [r3, #260]	; 0x104
   820c6:	bf00      	nop
   820c8:	f44f 63c0 	mov.w	r3, #1536	; 0x600
   820cc:	f2c4 030e 	movt	r3, #16398	; 0x400e
   820d0:	f8d3 3108 	ldr.w	r3, [r3, #264]	; 0x108
   820d4:	2b00      	cmp	r3, #0
   820d6:	d1f7      	bne.n	820c8 <pmc_disable_all_periph_clk+0x38>
   820d8:	46bd      	mov	sp, r7
   820da:	f85d 7b04 	ldr.w	r7, [sp], #4
   820de:	4770      	bx	lr

000820e0 <pmc_is_periph_clk_enabled>:
   820e0:	b480      	push	{r7}
   820e2:	b083      	sub	sp, #12
   820e4:	af00      	add	r7, sp, #0
   820e6:	6078      	str	r0, [r7, #4]
   820e8:	687b      	ldr	r3, [r7, #4]
   820ea:	2b2c      	cmp	r3, #44	; 0x2c
   820ec:	d901      	bls.n	820f2 <pmc_is_periph_clk_enabled+0x12>
   820ee:	2300      	movs	r3, #0
   820f0:	e025      	b.n	8213e <pmc_is_periph_clk_enabled+0x5e>
   820f2:	687b      	ldr	r3, [r7, #4]
   820f4:	2b1f      	cmp	r3, #31
   820f6:	d80f      	bhi.n	82118 <pmc_is_periph_clk_enabled+0x38>
   820f8:	f44f 63c0 	mov.w	r3, #1536	; 0x600
   820fc:	f2c4 030e 	movt	r3, #16398	; 0x400e
   82100:	699a      	ldr	r2, [r3, #24]
   82102:	687b      	ldr	r3, [r7, #4]
   82104:	2101      	movs	r1, #1
   82106:	fa01 f303 	lsl.w	r3, r1, r3
   8210a:	4013      	ands	r3, r2
   8210c:	2b00      	cmp	r3, #0
   8210e:	d001      	beq.n	82114 <pmc_is_periph_clk_enabled+0x34>
   82110:	2301      	movs	r3, #1
   82112:	e014      	b.n	8213e <pmc_is_periph_clk_enabled+0x5e>
   82114:	2300      	movs	r3, #0
   82116:	e012      	b.n	8213e <pmc_is_periph_clk_enabled+0x5e>
   82118:	687b      	ldr	r3, [r7, #4]
   8211a:	3b20      	subs	r3, #32
   8211c:	607b      	str	r3, [r7, #4]
   8211e:	f44f 63c0 	mov.w	r3, #1536	; 0x600
   82122:	f2c4 030e 	movt	r3, #16398	; 0x400e
   82126:	f8d3 2108 	ldr.w	r2, [r3, #264]	; 0x108
   8212a:	687b      	ldr	r3, [r7, #4]
   8212c:	2101      	movs	r1, #1
   8212e:	fa01 f303 	lsl.w	r3, r1, r3
   82132:	4013      	ands	r3, r2
   82134:	2b00      	cmp	r3, #0
   82136:	d001      	beq.n	8213c <pmc_is_periph_clk_enabled+0x5c>
   82138:	2301      	movs	r3, #1
   8213a:	e000      	b.n	8213e <pmc_is_periph_clk_enabled+0x5e>
   8213c:	2300      	movs	r3, #0
   8213e:	4618      	mov	r0, r3
   82140:	370c      	adds	r7, #12
   82142:	46bd      	mov	sp, r7
   82144:	f85d 7b04 	ldr.w	r7, [sp], #4
   82148:	4770      	bx	lr
   8214a:	bf00      	nop

0008214c <pmc_pck_set_prescaler>:
   8214c:	b480      	push	{r7}
   8214e:	b083      	sub	sp, #12
   82150:	af00      	add	r7, sp, #0
   82152:	6078      	str	r0, [r7, #4]
   82154:	6039      	str	r1, [r7, #0]
   82156:	f44f 63c0 	mov.w	r3, #1536	; 0x600
   8215a:	f2c4 030e 	movt	r3, #16398	; 0x400e
   8215e:	f44f 62c0 	mov.w	r2, #1536	; 0x600
   82162:	f2c4 020e 	movt	r2, #16398	; 0x400e
   82166:	6879      	ldr	r1, [r7, #4]
   82168:	3110      	adds	r1, #16
   8216a:	f852 2021 	ldr.w	r2, [r2, r1, lsl #2]
   8216e:	f022 0170 	bic.w	r1, r2, #112	; 0x70
   82172:	683a      	ldr	r2, [r7, #0]
   82174:	4311      	orrs	r1, r2
   82176:	687a      	ldr	r2, [r7, #4]
   82178:	3210      	adds	r2, #16
   8217a:	f843 1022 	str.w	r1, [r3, r2, lsl #2]
   8217e:	bf00      	nop
   82180:	f44f 63c0 	mov.w	r3, #1536	; 0x600
   82184:	f2c4 030e 	movt	r3, #16398	; 0x400e
   82188:	681a      	ldr	r2, [r3, #0]
   8218a:	687b      	ldr	r3, [r7, #4]
   8218c:	f44f 7180 	mov.w	r1, #256	; 0x100
   82190:	fa01 f303 	lsl.w	r3, r1, r3
   82194:	4013      	ands	r3, r2
   82196:	2b00      	cmp	r3, #0
   82198:	d00c      	beq.n	821b4 <pmc_pck_set_prescaler+0x68>
   8219a:	f44f 63c0 	mov.w	r3, #1536	; 0x600
   8219e:	f2c4 030e 	movt	r3, #16398	; 0x400e
   821a2:	6e9a      	ldr	r2, [r3, #104]	; 0x68
   821a4:	687b      	ldr	r3, [r7, #4]
   821a6:	f44f 7180 	mov.w	r1, #256	; 0x100
   821aa:	fa01 f303 	lsl.w	r3, r1, r3
   821ae:	4013      	ands	r3, r2
   821b0:	2b00      	cmp	r3, #0
   821b2:	d0e5      	beq.n	82180 <pmc_pck_set_prescaler+0x34>
   821b4:	370c      	adds	r7, #12
   821b6:	46bd      	mov	sp, r7
   821b8:	f85d 7b04 	ldr.w	r7, [sp], #4
   821bc:	4770      	bx	lr
   821be:	bf00      	nop

000821c0 <pmc_pck_set_source>:
   821c0:	b480      	push	{r7}
   821c2:	b083      	sub	sp, #12
   821c4:	af00      	add	r7, sp, #0
   821c6:	6078      	str	r0, [r7, #4]
   821c8:	6039      	str	r1, [r7, #0]
   821ca:	f44f 63c0 	mov.w	r3, #1536	; 0x600
   821ce:	f2c4 030e 	movt	r3, #16398	; 0x400e
   821d2:	f44f 62c0 	mov.w	r2, #1536	; 0x600
   821d6:	f2c4 020e 	movt	r2, #16398	; 0x400e
   821da:	6879      	ldr	r1, [r7, #4]
   821dc:	3110      	adds	r1, #16
   821de:	f852 2021 	ldr.w	r2, [r2, r1, lsl #2]
   821e2:	f022 0107 	bic.w	r1, r2, #7
   821e6:	683a      	ldr	r2, [r7, #0]
   821e8:	4311      	orrs	r1, r2
   821ea:	687a      	ldr	r2, [r7, #4]
   821ec:	3210      	adds	r2, #16
   821ee:	f843 1022 	str.w	r1, [r3, r2, lsl #2]
   821f2:	bf00      	nop
   821f4:	f44f 63c0 	mov.w	r3, #1536	; 0x600
   821f8:	f2c4 030e 	movt	r3, #16398	; 0x400e
   821fc:	681a      	ldr	r2, [r3, #0]
   821fe:	687b      	ldr	r3, [r7, #4]
   82200:	f44f 7180 	mov.w	r1, #256	; 0x100
   82204:	fa01 f303 	lsl.w	r3, r1, r3
   82208:	4013      	ands	r3, r2
   8220a:	2b00      	cmp	r3, #0
   8220c:	d00c      	beq.n	82228 <pmc_pck_set_source+0x68>
   8220e:	f44f 63c0 	mov.w	r3, #1536	; 0x600
   82212:	f2c4 030e 	movt	r3, #16398	; 0x400e
   82216:	6e9a      	ldr	r2, [r3, #104]	; 0x68
   82218:	687b      	ldr	r3, [r7, #4]
   8221a:	f44f 7180 	mov.w	r1, #256	; 0x100
   8221e:	fa01 f303 	lsl.w	r3, r1, r3
   82222:	4013      	ands	r3, r2
   82224:	2b00      	cmp	r3, #0
   82226:	d0e5      	beq.n	821f4 <pmc_pck_set_source+0x34>
   82228:	370c      	adds	r7, #12
   8222a:	46bd      	mov	sp, r7
   8222c:	f85d 7b04 	ldr.w	r7, [sp], #4
   82230:	4770      	bx	lr
   82232:	bf00      	nop

00082234 <pmc_switch_pck_to_sclk>:
   82234:	b480      	push	{r7}
   82236:	b085      	sub	sp, #20
   82238:	af00      	add	r7, sp, #0
   8223a:	6078      	str	r0, [r7, #4]
   8223c:	6039      	str	r1, [r7, #0]
   8223e:	f44f 63c0 	mov.w	r3, #1536	; 0x600
   82242:	f2c4 030e 	movt	r3, #16398	; 0x400e
   82246:	687a      	ldr	r2, [r7, #4]
   82248:	3210      	adds	r2, #16
   8224a:	6839      	ldr	r1, [r7, #0]
   8224c:	f843 1022 	str.w	r1, [r3, r2, lsl #2]
   82250:	f44f 6300 	mov.w	r3, #2048	; 0x800
   82254:	60fb      	str	r3, [r7, #12]
   82256:	e007      	b.n	82268 <pmc_switch_pck_to_sclk+0x34>
   82258:	68fb      	ldr	r3, [r7, #12]
   8225a:	2b00      	cmp	r3, #0
   8225c:	d101      	bne.n	82262 <pmc_switch_pck_to_sclk+0x2e>
   8225e:	2301      	movs	r3, #1
   82260:	e010      	b.n	82284 <pmc_switch_pck_to_sclk+0x50>
   82262:	68fb      	ldr	r3, [r7, #12]
   82264:	3b01      	subs	r3, #1
   82266:	60fb      	str	r3, [r7, #12]
   82268:	f44f 63c0 	mov.w	r3, #1536	; 0x600
   8226c:	f2c4 030e 	movt	r3, #16398	; 0x400e
   82270:	6e9a      	ldr	r2, [r3, #104]	; 0x68
   82272:	687b      	ldr	r3, [r7, #4]
   82274:	f44f 7180 	mov.w	r1, #256	; 0x100
   82278:	fa01 f303 	lsl.w	r3, r1, r3
   8227c:	4013      	ands	r3, r2
   8227e:	2b00      	cmp	r3, #0
   82280:	d0ea      	beq.n	82258 <pmc_switch_pck_to_sclk+0x24>
   82282:	2300      	movs	r3, #0
   82284:	4618      	mov	r0, r3
   82286:	3714      	adds	r7, #20
   82288:	46bd      	mov	sp, r7
   8228a:	f85d 7b04 	ldr.w	r7, [sp], #4
   8228e:	4770      	bx	lr

00082290 <pmc_switch_pck_to_mainck>:
   82290:	b480      	push	{r7}
   82292:	b085      	sub	sp, #20
   82294:	af00      	add	r7, sp, #0
   82296:	6078      	str	r0, [r7, #4]
   82298:	6039      	str	r1, [r7, #0]
   8229a:	f44f 63c0 	mov.w	r3, #1536	; 0x600
   8229e:	f2c4 030e 	movt	r3, #16398	; 0x400e
   822a2:	683a      	ldr	r2, [r7, #0]
   822a4:	f042 0101 	orr.w	r1, r2, #1
   822a8:	687a      	ldr	r2, [r7, #4]
   822aa:	3210      	adds	r2, #16
   822ac:	f843 1022 	str.w	r1, [r3, r2, lsl #2]
   822b0:	f44f 6300 	mov.w	r3, #2048	; 0x800
   822b4:	60fb      	str	r3, [r7, #12]
   822b6:	e007      	b.n	822c8 <pmc_switch_pck_to_mainck+0x38>
   822b8:	68fb      	ldr	r3, [r7, #12]
   822ba:	2b00      	cmp	r3, #0
   822bc:	d101      	bne.n	822c2 <pmc_switch_pck_to_mainck+0x32>
   822be:	2301      	movs	r3, #1
   822c0:	e010      	b.n	822e4 <pmc_switch_pck_to_mainck+0x54>
   822c2:	68fb      	ldr	r3, [r7, #12]
   822c4:	3b01      	subs	r3, #1
   822c6:	60fb      	str	r3, [r7, #12]
   822c8:	f44f 63c0 	mov.w	r3, #1536	; 0x600
   822cc:	f2c4 030e 	movt	r3, #16398	; 0x400e
   822d0:	6e9a      	ldr	r2, [r3, #104]	; 0x68
   822d2:	687b      	ldr	r3, [r7, #4]
   822d4:	f44f 7180 	mov.w	r1, #256	; 0x100
   822d8:	fa01 f303 	lsl.w	r3, r1, r3
   822dc:	4013      	ands	r3, r2
   822de:	2b00      	cmp	r3, #0
   822e0:	d0ea      	beq.n	822b8 <pmc_switch_pck_to_mainck+0x28>
   822e2:	2300      	movs	r3, #0
   822e4:	4618      	mov	r0, r3
   822e6:	3714      	adds	r7, #20
   822e8:	46bd      	mov	sp, r7
   822ea:	f85d 7b04 	ldr.w	r7, [sp], #4
   822ee:	4770      	bx	lr

000822f0 <pmc_switch_pck_to_pllack>:
   822f0:	b480      	push	{r7}
   822f2:	b085      	sub	sp, #20
   822f4:	af00      	add	r7, sp, #0
   822f6:	6078      	str	r0, [r7, #4]
   822f8:	6039      	str	r1, [r7, #0]
   822fa:	f44f 63c0 	mov.w	r3, #1536	; 0x600
   822fe:	f2c4 030e 	movt	r3, #16398	; 0x400e
   82302:	683a      	ldr	r2, [r7, #0]
   82304:	f042 0102 	orr.w	r1, r2, #2
   82308:	687a      	ldr	r2, [r7, #4]
   8230a:	3210      	adds	r2, #16
   8230c:	f843 1022 	str.w	r1, [r3, r2, lsl #2]
   82310:	f44f 6300 	mov.w	r3, #2048	; 0x800
   82314:	60fb      	str	r3, [r7, #12]
   82316:	e007      	b.n	82328 <pmc_switch_pck_to_pllack+0x38>
   82318:	68fb      	ldr	r3, [r7, #12]
   8231a:	2b00      	cmp	r3, #0
   8231c:	d101      	bne.n	82322 <pmc_switch_pck_to_pllack+0x32>
   8231e:	2301      	movs	r3, #1
   82320:	e010      	b.n	82344 <pmc_switch_pck_to_pllack+0x54>
   82322:	68fb      	ldr	r3, [r7, #12]
   82324:	3b01      	subs	r3, #1
   82326:	60fb      	str	r3, [r7, #12]
   82328:	f44f 63c0 	mov.w	r3, #1536	; 0x600
   8232c:	f2c4 030e 	movt	r3, #16398	; 0x400e
   82330:	6e9a      	ldr	r2, [r3, #104]	; 0x68
   82332:	687b      	ldr	r3, [r7, #4]
   82334:	f44f 7180 	mov.w	r1, #256	; 0x100
   82338:	fa01 f303 	lsl.w	r3, r1, r3
   8233c:	4013      	ands	r3, r2
   8233e:	2b00      	cmp	r3, #0
   82340:	d0ea      	beq.n	82318 <pmc_switch_pck_to_pllack+0x28>
   82342:	2300      	movs	r3, #0
   82344:	4618      	mov	r0, r3
   82346:	3714      	adds	r7, #20
   82348:	46bd      	mov	sp, r7
   8234a:	f85d 7b04 	ldr.w	r7, [sp], #4
   8234e:	4770      	bx	lr

00082350 <pmc_switch_pck_to_upllck>:
   82350:	b480      	push	{r7}
   82352:	b085      	sub	sp, #20
   82354:	af00      	add	r7, sp, #0
   82356:	6078      	str	r0, [r7, #4]
   82358:	6039      	str	r1, [r7, #0]
   8235a:	f44f 63c0 	mov.w	r3, #1536	; 0x600
   8235e:	f2c4 030e 	movt	r3, #16398	; 0x400e
   82362:	683a      	ldr	r2, [r7, #0]
   82364:	f042 0103 	orr.w	r1, r2, #3
   82368:	687a      	ldr	r2, [r7, #4]
   8236a:	3210      	adds	r2, #16
   8236c:	f843 1022 	str.w	r1, [r3, r2, lsl #2]
   82370:	f44f 6300 	mov.w	r3, #2048	; 0x800
   82374:	60fb      	str	r3, [r7, #12]
   82376:	e007      	b.n	82388 <pmc_switch_pck_to_upllck+0x38>
   82378:	68fb      	ldr	r3, [r7, #12]
   8237a:	2b00      	cmp	r3, #0
   8237c:	d101      	bne.n	82382 <pmc_switch_pck_to_upllck+0x32>
   8237e:	2301      	movs	r3, #1
   82380:	e010      	b.n	823a4 <pmc_switch_pck_to_upllck+0x54>
   82382:	68fb      	ldr	r3, [r7, #12]
   82384:	3b01      	subs	r3, #1
   82386:	60fb      	str	r3, [r7, #12]
   82388:	f44f 63c0 	mov.w	r3, #1536	; 0x600
   8238c:	f2c4 030e 	movt	r3, #16398	; 0x400e
   82390:	6e9a      	ldr	r2, [r3, #104]	; 0x68
   82392:	687b      	ldr	r3, [r7, #4]
   82394:	f44f 7180 	mov.w	r1, #256	; 0x100
   82398:	fa01 f303 	lsl.w	r3, r1, r3
   8239c:	4013      	ands	r3, r2
   8239e:	2b00      	cmp	r3, #0
   823a0:	d0ea      	beq.n	82378 <pmc_switch_pck_to_upllck+0x28>
   823a2:	2300      	movs	r3, #0
   823a4:	4618      	mov	r0, r3
   823a6:	3714      	adds	r7, #20
   823a8:	46bd      	mov	sp, r7
   823aa:	f85d 7b04 	ldr.w	r7, [sp], #4
   823ae:	4770      	bx	lr

000823b0 <pmc_enable_pck>:
   823b0:	b480      	push	{r7}
   823b2:	b083      	sub	sp, #12
   823b4:	af00      	add	r7, sp, #0
   823b6:	6078      	str	r0, [r7, #4]
   823b8:	f44f 63c0 	mov.w	r3, #1536	; 0x600
   823bc:	f2c4 030e 	movt	r3, #16398	; 0x400e
   823c0:	687a      	ldr	r2, [r7, #4]
   823c2:	f44f 7180 	mov.w	r1, #256	; 0x100
   823c6:	fa01 f202 	lsl.w	r2, r1, r2
   823ca:	601a      	str	r2, [r3, #0]
   823cc:	370c      	adds	r7, #12
   823ce:	46bd      	mov	sp, r7
   823d0:	f85d 7b04 	ldr.w	r7, [sp], #4
   823d4:	4770      	bx	lr
   823d6:	bf00      	nop

000823d8 <pmc_disable_pck>:
   823d8:	b480      	push	{r7}
   823da:	b083      	sub	sp, #12
   823dc:	af00      	add	r7, sp, #0
   823de:	6078      	str	r0, [r7, #4]
   823e0:	f44f 63c0 	mov.w	r3, #1536	; 0x600
   823e4:	f2c4 030e 	movt	r3, #16398	; 0x400e
   823e8:	687a      	ldr	r2, [r7, #4]
   823ea:	f44f 7180 	mov.w	r1, #256	; 0x100
   823ee:	fa01 f202 	lsl.w	r2, r1, r2
   823f2:	605a      	str	r2, [r3, #4]
   823f4:	370c      	adds	r7, #12
   823f6:	46bd      	mov	sp, r7
   823f8:	f85d 7b04 	ldr.w	r7, [sp], #4
   823fc:	4770      	bx	lr
   823fe:	bf00      	nop

00082400 <pmc_enable_all_pck>:
   82400:	b480      	push	{r7}
   82402:	af00      	add	r7, sp, #0
   82404:	f44f 63c0 	mov.w	r3, #1536	; 0x600
   82408:	f2c4 030e 	movt	r3, #16398	; 0x400e
   8240c:	f44f 62e0 	mov.w	r2, #1792	; 0x700
   82410:	601a      	str	r2, [r3, #0]
   82412:	46bd      	mov	sp, r7
   82414:	f85d 7b04 	ldr.w	r7, [sp], #4
   82418:	4770      	bx	lr
   8241a:	bf00      	nop

0008241c <pmc_disable_all_pck>:
   8241c:	b480      	push	{r7}
   8241e:	af00      	add	r7, sp, #0
   82420:	f44f 63c0 	mov.w	r3, #1536	; 0x600
   82424:	f2c4 030e 	movt	r3, #16398	; 0x400e
   82428:	f44f 62e0 	mov.w	r2, #1792	; 0x700
   8242c:	605a      	str	r2, [r3, #4]
   8242e:	46bd      	mov	sp, r7
   82430:	f85d 7b04 	ldr.w	r7, [sp], #4
   82434:	4770      	bx	lr
   82436:	bf00      	nop

00082438 <pmc_is_pck_enabled>:
   82438:	b480      	push	{r7}
   8243a:	b083      	sub	sp, #12
   8243c:	af00      	add	r7, sp, #0
   8243e:	6078      	str	r0, [r7, #4]
   82440:	687b      	ldr	r3, [r7, #4]
   82442:	2b02      	cmp	r3, #2
   82444:	d901      	bls.n	8244a <pmc_is_pck_enabled+0x12>
   82446:	2300      	movs	r3, #0
   82448:	e00a      	b.n	82460 <pmc_is_pck_enabled+0x28>
   8244a:	f44f 63c0 	mov.w	r3, #1536	; 0x600
   8244e:	f2c4 030e 	movt	r3, #16398	; 0x400e
   82452:	689a      	ldr	r2, [r3, #8]
   82454:	687b      	ldr	r3, [r7, #4]
   82456:	f44f 7180 	mov.w	r1, #256	; 0x100
   8245a:	fa01 f303 	lsl.w	r3, r1, r3
   8245e:	4013      	ands	r3, r2
   82460:	4618      	mov	r0, r3
   82462:	370c      	adds	r7, #12
   82464:	46bd      	mov	sp, r7
   82466:	f85d 7b04 	ldr.w	r7, [sp], #4
   8246a:	4770      	bx	lr

0008246c <pmc_switch_udpck_to_pllack>:
   8246c:	b480      	push	{r7}
   8246e:	b083      	sub	sp, #12
   82470:	af00      	add	r7, sp, #0
   82472:	6078      	str	r0, [r7, #4]
   82474:	f44f 63c0 	mov.w	r3, #1536	; 0x600
   82478:	f2c4 030e 	movt	r3, #16398	; 0x400e
   8247c:	687a      	ldr	r2, [r7, #4]
   8247e:	0212      	lsls	r2, r2, #8
   82480:	f402 6270 	and.w	r2, r2, #3840	; 0xf00
   82484:	639a      	str	r2, [r3, #56]	; 0x38
   82486:	370c      	adds	r7, #12
   82488:	46bd      	mov	sp, r7
   8248a:	f85d 7b04 	ldr.w	r7, [sp], #4
   8248e:	4770      	bx	lr

00082490 <pmc_switch_udpck_to_upllck>:
   82490:	b480      	push	{r7}
   82492:	b083      	sub	sp, #12
   82494:	af00      	add	r7, sp, #0
   82496:	6078      	str	r0, [r7, #4]
   82498:	f44f 63c0 	mov.w	r3, #1536	; 0x600
   8249c:	f2c4 030e 	movt	r3, #16398	; 0x400e
   824a0:	687a      	ldr	r2, [r7, #4]
   824a2:	0212      	lsls	r2, r2, #8
   824a4:	f402 6270 	and.w	r2, r2, #3840	; 0xf00
   824a8:	f042 0201 	orr.w	r2, r2, #1
   824ac:	639a      	str	r2, [r3, #56]	; 0x38
   824ae:	370c      	adds	r7, #12
   824b0:	46bd      	mov	sp, r7
   824b2:	f85d 7b04 	ldr.w	r7, [sp], #4
   824b6:	4770      	bx	lr

000824b8 <pmc_enable_udpck>:
   824b8:	b480      	push	{r7}
   824ba:	af00      	add	r7, sp, #0
   824bc:	f44f 63c0 	mov.w	r3, #1536	; 0x600
   824c0:	f2c4 030e 	movt	r3, #16398	; 0x400e
   824c4:	2220      	movs	r2, #32
   824c6:	601a      	str	r2, [r3, #0]
   824c8:	46bd      	mov	sp, r7
   824ca:	f85d 7b04 	ldr.w	r7, [sp], #4
   824ce:	4770      	bx	lr

000824d0 <pmc_disable_udpck>:
   824d0:	b480      	push	{r7}
   824d2:	af00      	add	r7, sp, #0
   824d4:	f44f 63c0 	mov.w	r3, #1536	; 0x600
   824d8:	f2c4 030e 	movt	r3, #16398	; 0x400e
   824dc:	2220      	movs	r2, #32
   824de:	605a      	str	r2, [r3, #4]
   824e0:	46bd      	mov	sp, r7
   824e2:	f85d 7b04 	ldr.w	r7, [sp], #4
   824e6:	4770      	bx	lr

000824e8 <pmc_enable_interrupt>:
   824e8:	b480      	push	{r7}
   824ea:	b083      	sub	sp, #12
   824ec:	af00      	add	r7, sp, #0
   824ee:	6078      	str	r0, [r7, #4]
   824f0:	f44f 63c0 	mov.w	r3, #1536	; 0x600
   824f4:	f2c4 030e 	movt	r3, #16398	; 0x400e
   824f8:	687a      	ldr	r2, [r7, #4]
   824fa:	661a      	str	r2, [r3, #96]	; 0x60
   824fc:	370c      	adds	r7, #12
   824fe:	46bd      	mov	sp, r7
   82500:	f85d 7b04 	ldr.w	r7, [sp], #4
   82504:	4770      	bx	lr
   82506:	bf00      	nop

00082508 <pmc_disable_interrupt>:
   82508:	b480      	push	{r7}
   8250a:	b083      	sub	sp, #12
   8250c:	af00      	add	r7, sp, #0
   8250e:	6078      	str	r0, [r7, #4]
   82510:	f44f 63c0 	mov.w	r3, #1536	; 0x600
   82514:	f2c4 030e 	movt	r3, #16398	; 0x400e
   82518:	687a      	ldr	r2, [r7, #4]
   8251a:	665a      	str	r2, [r3, #100]	; 0x64
   8251c:	370c      	adds	r7, #12
   8251e:	46bd      	mov	sp, r7
   82520:	f85d 7b04 	ldr.w	r7, [sp], #4
   82524:	4770      	bx	lr
   82526:	bf00      	nop

00082528 <pmc_get_interrupt_mask>:
   82528:	b480      	push	{r7}
   8252a:	af00      	add	r7, sp, #0
   8252c:	f44f 63c0 	mov.w	r3, #1536	; 0x600
   82530:	f2c4 030e 	movt	r3, #16398	; 0x400e
   82534:	6edb      	ldr	r3, [r3, #108]	; 0x6c
   82536:	4618      	mov	r0, r3
   82538:	46bd      	mov	sp, r7
   8253a:	f85d 7b04 	ldr.w	r7, [sp], #4
   8253e:	4770      	bx	lr

00082540 <pmc_get_status>:
   82540:	b480      	push	{r7}
   82542:	af00      	add	r7, sp, #0
   82544:	f44f 63c0 	mov.w	r3, #1536	; 0x600
   82548:	f2c4 030e 	movt	r3, #16398	; 0x400e
   8254c:	6e9b      	ldr	r3, [r3, #104]	; 0x68
   8254e:	4618      	mov	r0, r3
   82550:	46bd      	mov	sp, r7
   82552:	f85d 7b04 	ldr.w	r7, [sp], #4
   82556:	4770      	bx	lr

00082558 <pmc_set_fast_startup_input>:
   82558:	b480      	push	{r7}
   8255a:	b083      	sub	sp, #12
   8255c:	af00      	add	r7, sp, #0
   8255e:	6078      	str	r0, [r7, #4]
   82560:	687b      	ldr	r3, [r7, #4]
   82562:	f3c3 0312 	ubfx	r3, r3, #0, #19
   82566:	607b      	str	r3, [r7, #4]
   82568:	f44f 63c0 	mov.w	r3, #1536	; 0x600
   8256c:	f2c4 030e 	movt	r3, #16398	; 0x400e
   82570:	f44f 62c0 	mov.w	r2, #1536	; 0x600
   82574:	f2c4 020e 	movt	r2, #16398	; 0x400e
   82578:	6f11      	ldr	r1, [r2, #112]	; 0x70
   8257a:	687a      	ldr	r2, [r7, #4]
   8257c:	430a      	orrs	r2, r1
   8257e:	671a      	str	r2, [r3, #112]	; 0x70
   82580:	370c      	adds	r7, #12
   82582:	46bd      	mov	sp, r7
   82584:	f85d 7b04 	ldr.w	r7, [sp], #4
   82588:	4770      	bx	lr
   8258a:	bf00      	nop

0008258c <pmc_clr_fast_startup_input>:
   8258c:	b480      	push	{r7}
   8258e:	b083      	sub	sp, #12
   82590:	af00      	add	r7, sp, #0
   82592:	6078      	str	r0, [r7, #4]
   82594:	687b      	ldr	r3, [r7, #4]
   82596:	f3c3 0312 	ubfx	r3, r3, #0, #19
   8259a:	607b      	str	r3, [r7, #4]
   8259c:	f44f 63c0 	mov.w	r3, #1536	; 0x600
   825a0:	f2c4 030e 	movt	r3, #16398	; 0x400e
   825a4:	f44f 62c0 	mov.w	r2, #1536	; 0x600
   825a8:	f2c4 020e 	movt	r2, #16398	; 0x400e
   825ac:	6f11      	ldr	r1, [r2, #112]	; 0x70
   825ae:	687a      	ldr	r2, [r7, #4]
   825b0:	43d2      	mvns	r2, r2
   825b2:	400a      	ands	r2, r1
   825b4:	671a      	str	r2, [r3, #112]	; 0x70
   825b6:	370c      	adds	r7, #12
   825b8:	46bd      	mov	sp, r7
   825ba:	f85d 7b04 	ldr.w	r7, [sp], #4
   825be:	4770      	bx	lr

000825c0 <pmc_enable_sleepmode>:
   825c0:	b480      	push	{r7}
   825c2:	b083      	sub	sp, #12
   825c4:	af00      	add	r7, sp, #0
   825c6:	4603      	mov	r3, r0
   825c8:	71fb      	strb	r3, [r7, #7]
   825ca:	f44f 63c0 	mov.w	r3, #1536	; 0x600
   825ce:	f2c4 030e 	movt	r3, #16398	; 0x400e
   825d2:	f44f 62c0 	mov.w	r2, #1536	; 0x600
   825d6:	f2c4 020e 	movt	r2, #16398	; 0x400e
   825da:	6f12      	ldr	r2, [r2, #112]	; 0x70
   825dc:	f422 1280 	bic.w	r2, r2, #1048576	; 0x100000
   825e0:	671a      	str	r2, [r3, #112]	; 0x70
   825e2:	f44f 436d 	mov.w	r3, #60672	; 0xed00
   825e6:	f2ce 0300 	movt	r3, #57344	; 0xe000
   825ea:	f44f 426d 	mov.w	r2, #60672	; 0xed00
   825ee:	f2ce 0200 	movt	r2, #57344	; 0xe000
   825f2:	6912      	ldr	r2, [r2, #16]
   825f4:	f022 0204 	bic.w	r2, r2, #4
   825f8:	611a      	str	r2, [r3, #16]
   825fa:	79fb      	ldrb	r3, [r7, #7]
   825fc:	2b00      	cmp	r3, #0
   825fe:	d101      	bne.n	82604 <pmc_enable_sleepmode+0x44>
   82600:	bf30      	wfi
   82602:	e000      	b.n	82606 <pmc_enable_sleepmode+0x46>
   82604:	bf20      	wfe
   82606:	370c      	adds	r7, #12
   82608:	46bd      	mov	sp, r7
   8260a:	f85d 7b04 	ldr.w	r7, [sp], #4
   8260e:	4770      	bx	lr

00082610 <pmc_enable_waitmode>:
   82610:	b480      	push	{r7}
   82612:	b083      	sub	sp, #12
   82614:	af00      	add	r7, sp, #0
   82616:	f44f 63c0 	mov.w	r3, #1536	; 0x600
   8261a:	f2c4 030e 	movt	r3, #16398	; 0x400e
   8261e:	f44f 62c0 	mov.w	r2, #1536	; 0x600
   82622:	f2c4 020e 	movt	r2, #16398	; 0x400e
   82626:	6f12      	ldr	r2, [r2, #112]	; 0x70
   82628:	f442 1280 	orr.w	r2, r2, #1048576	; 0x100000
   8262c:	671a      	str	r2, [r3, #112]	; 0x70
   8262e:	f44f 436d 	mov.w	r3, #60672	; 0xed00
   82632:	f2ce 0300 	movt	r3, #57344	; 0xe000
   82636:	f44f 426d 	mov.w	r2, #60672	; 0xed00
   8263a:	f2ce 0200 	movt	r2, #57344	; 0xe000
   8263e:	6912      	ldr	r2, [r2, #16]
   82640:	f022 0204 	bic.w	r2, r2, #4
   82644:	611a      	str	r2, [r3, #16]
   82646:	bf20      	wfe
   82648:	2300      	movs	r3, #0
   8264a:	607b      	str	r3, [r7, #4]
   8264c:	e003      	b.n	82656 <pmc_enable_waitmode+0x46>
   8264e:	bf00      	nop
   82650:	687b      	ldr	r3, [r7, #4]
   82652:	3301      	adds	r3, #1
   82654:	607b      	str	r3, [r7, #4]
   82656:	687b      	ldr	r3, [r7, #4]
   82658:	f5b3 7ffa 	cmp.w	r3, #500	; 0x1f4
   8265c:	d3f7      	bcc.n	8264e <pmc_enable_waitmode+0x3e>
   8265e:	bf00      	nop
   82660:	f44f 63c0 	mov.w	r3, #1536	; 0x600
   82664:	f2c4 030e 	movt	r3, #16398	; 0x400e
   82668:	6a1b      	ldr	r3, [r3, #32]
   8266a:	f003 0308 	and.w	r3, r3, #8
   8266e:	2b00      	cmp	r3, #0
   82670:	d0f6      	beq.n	82660 <pmc_enable_waitmode+0x50>
   82672:	370c      	adds	r7, #12
   82674:	46bd      	mov	sp, r7
   82676:	f85d 7b04 	ldr.w	r7, [sp], #4
   8267a:	4770      	bx	lr

0008267c <pmc_enable_backupmode>:
   8267c:	b480      	push	{r7}
   8267e:	af00      	add	r7, sp, #0
   82680:	f44f 436d 	mov.w	r3, #60672	; 0xed00
   82684:	f2ce 0300 	movt	r3, #57344	; 0xe000
   82688:	f44f 426d 	mov.w	r2, #60672	; 0xed00
   8268c:	f2ce 0200 	movt	r2, #57344	; 0xe000
   82690:	6912      	ldr	r2, [r2, #16]
   82692:	f042 0204 	orr.w	r2, r2, #4
   82696:	611a      	str	r2, [r3, #16]
   82698:	bf20      	wfe
   8269a:	46bd      	mov	sp, r7
   8269c:	f85d 7b04 	ldr.w	r7, [sp], #4
   826a0:	4770      	bx	lr
   826a2:	bf00      	nop

000826a4 <pmc_enable_clock_failure_detector>:
   826a4:	b480      	push	{r7}
   826a6:	b083      	sub	sp, #12
   826a8:	af00      	add	r7, sp, #0
   826aa:	f44f 63c0 	mov.w	r3, #1536	; 0x600
   826ae:	f2c4 030e 	movt	r3, #16398	; 0x400e
   826b2:	6a1b      	ldr	r3, [r3, #32]
   826b4:	607b      	str	r3, [r7, #4]
   826b6:	f44f 63c0 	mov.w	r3, #1536	; 0x600
   826ba:	f2c4 030e 	movt	r3, #16398	; 0x400e
   826be:	687a      	ldr	r2, [r7, #4]
   826c0:	f042 720d 	orr.w	r2, r2, #36962304	; 0x2340000
   826c4:	f442 3240 	orr.w	r2, r2, #196608	; 0x30000
   826c8:	621a      	str	r2, [r3, #32]
   826ca:	370c      	adds	r7, #12
   826cc:	46bd      	mov	sp, r7
   826ce:	f85d 7b04 	ldr.w	r7, [sp], #4
   826d2:	4770      	bx	lr

000826d4 <pmc_disable_clock_failure_detector>:
   826d4:	b480      	push	{r7}
   826d6:	b083      	sub	sp, #12
   826d8:	af00      	add	r7, sp, #0
   826da:	f44f 63c0 	mov.w	r3, #1536	; 0x600
   826de:	f2c4 030e 	movt	r3, #16398	; 0x400e
   826e2:	6a1b      	ldr	r3, [r3, #32]
   826e4:	f023 7300 	bic.w	r3, r3, #33554432	; 0x2000000
   826e8:	607b      	str	r3, [r7, #4]
   826ea:	f44f 63c0 	mov.w	r3, #1536	; 0x600
   826ee:	f2c4 030e 	movt	r3, #16398	; 0x400e
   826f2:	687a      	ldr	r2, [r7, #4]
   826f4:	f442 125c 	orr.w	r2, r2, #3604480	; 0x370000
   826f8:	621a      	str	r2, [r3, #32]
   826fa:	370c      	adds	r7, #12
   826fc:	46bd      	mov	sp, r7
   826fe:	f85d 7b04 	ldr.w	r7, [sp], #4
   82702:	4770      	bx	lr

00082704 <pmc_set_writeprotect>:
   82704:	b480      	push	{r7}
   82706:	b083      	sub	sp, #12
   82708:	af00      	add	r7, sp, #0
   8270a:	6078      	str	r0, [r7, #4]
   8270c:	687b      	ldr	r3, [r7, #4]
   8270e:	2b00      	cmp	r3, #0
   82710:	d00a      	beq.n	82728 <pmc_set_writeprotect+0x24>
   82712:	f44f 63c0 	mov.w	r3, #1536	; 0x600
   82716:	f2c4 030e 	movt	r3, #16398	; 0x400e
   8271a:	f244 3201 	movw	r2, #17153	; 0x4301
   8271e:	f2c5 024d 	movt	r2, #20557	; 0x504d
   82722:	f8c3 20e4 	str.w	r2, [r3, #228]	; 0xe4
   82726:	e009      	b.n	8273c <pmc_set_writeprotect+0x38>
   82728:	f44f 63c0 	mov.w	r3, #1536	; 0x600
   8272c:	f2c4 030e 	movt	r3, #16398	; 0x400e
   82730:	f44f 4286 	mov.w	r2, #17152	; 0x4300
   82734:	f2c5 024d 	movt	r2, #20557	; 0x504d
   82738:	f8c3 20e4 	str.w	r2, [r3, #228]	; 0xe4
   8273c:	370c      	adds	r7, #12
   8273e:	46bd      	mov	sp, r7
   82740:	f85d 7b04 	ldr.w	r7, [sp], #4
   82744:	4770      	bx	lr
   82746:	bf00      	nop

00082748 <pmc_get_writeprotect_status>:
   82748:	b480      	push	{r7}
   8274a:	af00      	add	r7, sp, #0
   8274c:	f44f 63c0 	mov.w	r3, #1536	; 0x600
   82750:	f2c4 030e 	movt	r3, #16398	; 0x400e
   82754:	f8d3 30e4 	ldr.w	r3, [r3, #228]	; 0xe4
   82758:	f003 0301 	and.w	r3, r3, #1
   8275c:	4618      	mov	r0, r3
   8275e:	46bd      	mov	sp, r7
   82760:	f85d 7b04 	ldr.w	r7, [sp], #4
   82764:	4770      	bx	lr
   82766:	bf00      	nop

00082768 <wdt_get_timeout_value>:
   82768:	b480      	push	{r7}
   8276a:	b085      	sub	sp, #20
   8276c:	af00      	add	r7, sp, #0
   8276e:	6078      	str	r0, [r7, #4]
   82770:	6039      	str	r1, [r7, #0]
   82772:	f44f 5300 	mov.w	r3, #8192	; 0x2000
   82776:	f2c0 73a1 	movt	r3, #1953	; 0x7a1
   8277a:	683a      	ldr	r2, [r7, #0]
   8277c:	fbb3 f3f2 	udiv	r3, r3, r2
   82780:	60fb      	str	r3, [r7, #12]
   82782:	68fa      	ldr	r2, [r7, #12]
   82784:	4613      	mov	r3, r2
   82786:	031b      	lsls	r3, r3, #12
   82788:	1a9b      	subs	r3, r3, r2
   8278a:	60bb      	str	r3, [r7, #8]
   8278c:	687a      	ldr	r2, [r7, #4]
   8278e:	68fb      	ldr	r3, [r7, #12]
   82790:	429a      	cmp	r2, r3
   82792:	d303      	bcc.n	8279c <wdt_get_timeout_value+0x34>
   82794:	687a      	ldr	r2, [r7, #4]
   82796:	68bb      	ldr	r3, [r7, #8]
   82798:	429a      	cmp	r2, r3
   8279a:	d902      	bls.n	827a2 <wdt_get_timeout_value+0x3a>
   8279c:	f64f 73ff 	movw	r3, #65535	; 0xffff
   827a0:	e005      	b.n	827ae <wdt_get_timeout_value+0x46>
   827a2:	687a      	ldr	r2, [r7, #4]
   827a4:	68fb      	ldr	r3, [r7, #12]
   827a6:	fbb2 f3f3 	udiv	r3, r2, r3
   827aa:	f3c3 030b 	ubfx	r3, r3, #0, #12
   827ae:	4618      	mov	r0, r3
   827b0:	3714      	adds	r7, #20
   827b2:	46bd      	mov	sp, r7
   827b4:	f85d 7b04 	ldr.w	r7, [sp], #4
   827b8:	4770      	bx	lr
   827ba:	bf00      	nop

000827bc <wdt_init>:
   827bc:	b480      	push	{r7}
   827be:	b085      	sub	sp, #20
   827c0:	af00      	add	r7, sp, #0
   827c2:	60f8      	str	r0, [r7, #12]
   827c4:	60b9      	str	r1, [r7, #8]
   827c6:	80fa      	strh	r2, [r7, #6]
   827c8:	80bb      	strh	r3, [r7, #4]
   827ca:	88fb      	ldrh	r3, [r7, #6]
   827cc:	f3c3 020b 	ubfx	r2, r3, #0, #12
   827d0:	68bb      	ldr	r3, [r7, #8]
   827d2:	431a      	orrs	r2, r3
   827d4:	88bb      	ldrh	r3, [r7, #4]
   827d6:	041b      	lsls	r3, r3, #16
   827d8:	4619      	mov	r1, r3
   827da:	2300      	movs	r3, #0
   827dc:	f6c0 73ff 	movt	r3, #4095	; 0xfff
   827e0:	400b      	ands	r3, r1
   827e2:	431a      	orrs	r2, r3
   827e4:	68fb      	ldr	r3, [r7, #12]
   827e6:	605a      	str	r2, [r3, #4]
   827e8:	3714      	adds	r7, #20
   827ea:	46bd      	mov	sp, r7
   827ec:	f85d 7b04 	ldr.w	r7, [sp], #4
   827f0:	4770      	bx	lr
   827f2:	bf00      	nop

000827f4 <wdt_disable>:
   827f4:	b480      	push	{r7}
   827f6:	b083      	sub	sp, #12
   827f8:	af00      	add	r7, sp, #0
   827fa:	6078      	str	r0, [r7, #4]
   827fc:	687b      	ldr	r3, [r7, #4]
   827fe:	f44f 4200 	mov.w	r2, #32768	; 0x8000
   82802:	605a      	str	r2, [r3, #4]
   82804:	370c      	adds	r7, #12
   82806:	46bd      	mov	sp, r7
   82808:	f85d 7b04 	ldr.w	r7, [sp], #4
   8280c:	4770      	bx	lr
   8280e:	bf00      	nop

00082810 <wdt_restart>:
   82810:	b480      	push	{r7}
   82812:	b083      	sub	sp, #12
   82814:	af00      	add	r7, sp, #0
   82816:	6078      	str	r0, [r7, #4]
   82818:	687a      	ldr	r2, [r7, #4]
   8281a:	f641 2350 	movw	r3, #6736	; 0x1a50
   8281e:	f2c4 030e 	movt	r3, #16398	; 0x400e
   82822:	429a      	cmp	r2, r3
   82824:	d104      	bne.n	82830 <wdt_restart+0x20>
   82826:	687a      	ldr	r2, [r7, #4]
   82828:	2301      	movs	r3, #1
   8282a:	f2ca 5300 	movt	r3, #42240	; 0xa500
   8282e:	6013      	str	r3, [r2, #0]
   82830:	370c      	adds	r7, #12
   82832:	46bd      	mov	sp, r7
   82834:	f85d 7b04 	ldr.w	r7, [sp], #4
   82838:	4770      	bx	lr
   8283a:	bf00      	nop

0008283c <wdt_get_status>:
   8283c:	b480      	push	{r7}
   8283e:	b083      	sub	sp, #12
   82840:	af00      	add	r7, sp, #0
   82842:	6078      	str	r0, [r7, #4]
   82844:	687b      	ldr	r3, [r7, #4]
   82846:	689b      	ldr	r3, [r3, #8]
   82848:	4618      	mov	r0, r3
   8284a:	370c      	adds	r7, #12
   8284c:	46bd      	mov	sp, r7
   8284e:	f85d 7b04 	ldr.w	r7, [sp], #4
   82852:	4770      	bx	lr

00082854 <wdt_get_us_timeout_period>:
   82854:	b480      	push	{r7}
   82856:	b083      	sub	sp, #12
   82858:	af00      	add	r7, sp, #0
   8285a:	6078      	str	r0, [r7, #4]
   8285c:	6039      	str	r1, [r7, #0]
   8285e:	687b      	ldr	r3, [r7, #4]
   82860:	685b      	ldr	r3, [r3, #4]
   82862:	f3c3 030b 	ubfx	r3, r3, #0, #12
   82866:	01da      	lsls	r2, r3, #7
   82868:	683b      	ldr	r3, [r7, #0]
   8286a:	fbb2 f2f3 	udiv	r2, r2, r3
   8286e:	f244 2340 	movw	r3, #16960	; 0x4240
   82872:	f2c0 030f 	movt	r3, #15
   82876:	fb03 f302 	mul.w	r3, r3, r2
   8287a:	4618      	mov	r0, r3
   8287c:	370c      	adds	r7, #12
   8287e:	46bd      	mov	sp, r7
   82880:	f85d 7b04 	ldr.w	r7, [sp], #4
   82884:	4770      	bx	lr
   82886:	bf00      	nop

00082888 <uart_init>:
   82888:	b480      	push	{r7}
   8288a:	b085      	sub	sp, #20
   8288c:	af00      	add	r7, sp, #0
   8288e:	6078      	str	r0, [r7, #4]
   82890:	6039      	str	r1, [r7, #0]
   82892:	2300      	movs	r3, #0
   82894:	60fb      	str	r3, [r7, #12]
   82896:	687b      	ldr	r3, [r7, #4]
   82898:	22ac      	movs	r2, #172	; 0xac
   8289a:	601a      	str	r2, [r3, #0]
   8289c:	683b      	ldr	r3, [r7, #0]
   8289e:	681a      	ldr	r2, [r3, #0]
   828a0:	683b      	ldr	r3, [r7, #0]
   828a2:	685b      	ldr	r3, [r3, #4]
   828a4:	fbb2 f3f3 	udiv	r3, r2, r3
   828a8:	091b      	lsrs	r3, r3, #4
   828aa:	60fb      	str	r3, [r7, #12]
   828ac:	68fb      	ldr	r3, [r7, #12]
   828ae:	2b00      	cmp	r3, #0
   828b0:	d003      	beq.n	828ba <uart_init+0x32>
   828b2:	68fb      	ldr	r3, [r7, #12]
   828b4:	f5b3 3f80 	cmp.w	r3, #65536	; 0x10000
   828b8:	d301      	bcc.n	828be <uart_init+0x36>
   828ba:	2301      	movs	r3, #1
   828bc:	e00f      	b.n	828de <uart_init+0x56>
   828be:	687b      	ldr	r3, [r7, #4]
   828c0:	68fa      	ldr	r2, [r7, #12]
   828c2:	621a      	str	r2, [r3, #32]
   828c4:	683b      	ldr	r3, [r7, #0]
   828c6:	689a      	ldr	r2, [r3, #8]
   828c8:	687b      	ldr	r3, [r7, #4]
   828ca:	605a      	str	r2, [r3, #4]
   828cc:	687b      	ldr	r3, [r7, #4]
   828ce:	f240 2202 	movw	r2, #514	; 0x202
   828d2:	f8c3 2120 	str.w	r2, [r3, #288]	; 0x120
   828d6:	687b      	ldr	r3, [r7, #4]
   828d8:	2250      	movs	r2, #80	; 0x50
   828da:	601a      	str	r2, [r3, #0]
   828dc:	2300      	movs	r3, #0
   828de:	4618      	mov	r0, r3
   828e0:	3714      	adds	r7, #20
   828e2:	46bd      	mov	sp, r7
   828e4:	f85d 7b04 	ldr.w	r7, [sp], #4
   828e8:	4770      	bx	lr
   828ea:	bf00      	nop

000828ec <uart_enable_tx>:
   828ec:	b480      	push	{r7}
   828ee:	b083      	sub	sp, #12
   828f0:	af00      	add	r7, sp, #0
   828f2:	6078      	str	r0, [r7, #4]
   828f4:	687b      	ldr	r3, [r7, #4]
   828f6:	2240      	movs	r2, #64	; 0x40
   828f8:	601a      	str	r2, [r3, #0]
   828fa:	370c      	adds	r7, #12
   828fc:	46bd      	mov	sp, r7
   828fe:	f85d 7b04 	ldr.w	r7, [sp], #4
   82902:	4770      	bx	lr

00082904 <uart_disable_tx>:
   82904:	b480      	push	{r7}
   82906:	b083      	sub	sp, #12
   82908:	af00      	add	r7, sp, #0
   8290a:	6078      	str	r0, [r7, #4]
   8290c:	687b      	ldr	r3, [r7, #4]
   8290e:	2280      	movs	r2, #128	; 0x80
   82910:	601a      	str	r2, [r3, #0]
   82912:	370c      	adds	r7, #12
   82914:	46bd      	mov	sp, r7
   82916:	f85d 7b04 	ldr.w	r7, [sp], #4
   8291a:	4770      	bx	lr

0008291c <uart_reset_tx>:
   8291c:	b480      	push	{r7}
   8291e:	b083      	sub	sp, #12
   82920:	af00      	add	r7, sp, #0
   82922:	6078      	str	r0, [r7, #4]
   82924:	687b      	ldr	r3, [r7, #4]
   82926:	2288      	movs	r2, #136	; 0x88
   82928:	601a      	str	r2, [r3, #0]
   8292a:	370c      	adds	r7, #12
   8292c:	46bd      	mov	sp, r7
   8292e:	f85d 7b04 	ldr.w	r7, [sp], #4
   82932:	4770      	bx	lr

00082934 <uart_enable_rx>:
   82934:	b480      	push	{r7}
   82936:	b083      	sub	sp, #12
   82938:	af00      	add	r7, sp, #0
   8293a:	6078      	str	r0, [r7, #4]
   8293c:	687b      	ldr	r3, [r7, #4]
   8293e:	2210      	movs	r2, #16
   82940:	601a      	str	r2, [r3, #0]
   82942:	370c      	adds	r7, #12
   82944:	46bd      	mov	sp, r7
   82946:	f85d 7b04 	ldr.w	r7, [sp], #4
   8294a:	4770      	bx	lr

0008294c <uart_disable_rx>:
   8294c:	b480      	push	{r7}
   8294e:	b083      	sub	sp, #12
   82950:	af00      	add	r7, sp, #0
   82952:	6078      	str	r0, [r7, #4]
   82954:	687b      	ldr	r3, [r7, #4]
   82956:	2220      	movs	r2, #32
   82958:	601a      	str	r2, [r3, #0]
   8295a:	370c      	adds	r7, #12
   8295c:	46bd      	mov	sp, r7
   8295e:	f85d 7b04 	ldr.w	r7, [sp], #4
   82962:	4770      	bx	lr

00082964 <uart_reset_rx>:
   82964:	b480      	push	{r7}
   82966:	b083      	sub	sp, #12
   82968:	af00      	add	r7, sp, #0
   8296a:	6078      	str	r0, [r7, #4]
   8296c:	687b      	ldr	r3, [r7, #4]
   8296e:	2224      	movs	r2, #36	; 0x24
   82970:	601a      	str	r2, [r3, #0]
   82972:	370c      	adds	r7, #12
   82974:	46bd      	mov	sp, r7
   82976:	f85d 7b04 	ldr.w	r7, [sp], #4
   8297a:	4770      	bx	lr

0008297c <uart_enable>:
   8297c:	b480      	push	{r7}
   8297e:	b083      	sub	sp, #12
   82980:	af00      	add	r7, sp, #0
   82982:	6078      	str	r0, [r7, #4]
   82984:	687b      	ldr	r3, [r7, #4]
   82986:	2250      	movs	r2, #80	; 0x50
   82988:	601a      	str	r2, [r3, #0]
   8298a:	370c      	adds	r7, #12
   8298c:	46bd      	mov	sp, r7
   8298e:	f85d 7b04 	ldr.w	r7, [sp], #4
   82992:	4770      	bx	lr

00082994 <uart_disable>:
   82994:	b480      	push	{r7}
   82996:	b083      	sub	sp, #12
   82998:	af00      	add	r7, sp, #0
   8299a:	6078      	str	r0, [r7, #4]
   8299c:	687b      	ldr	r3, [r7, #4]
   8299e:	22a0      	movs	r2, #160	; 0xa0
   829a0:	601a      	str	r2, [r3, #0]
   829a2:	370c      	adds	r7, #12
   829a4:	46bd      	mov	sp, r7
   829a6:	f85d 7b04 	ldr.w	r7, [sp], #4
   829aa:	4770      	bx	lr

000829ac <uart_reset>:
   829ac:	b480      	push	{r7}
   829ae:	b083      	sub	sp, #12
   829b0:	af00      	add	r7, sp, #0
   829b2:	6078      	str	r0, [r7, #4]
   829b4:	687b      	ldr	r3, [r7, #4]
   829b6:	22ac      	movs	r2, #172	; 0xac
   829b8:	601a      	str	r2, [r3, #0]
   829ba:	370c      	adds	r7, #12
   829bc:	46bd      	mov	sp, r7
   829be:	f85d 7b04 	ldr.w	r7, [sp], #4
   829c2:	4770      	bx	lr

000829c4 <uart_enable_interrupt>:
   829c4:	b480      	push	{r7}
   829c6:	b083      	sub	sp, #12
   829c8:	af00      	add	r7, sp, #0
   829ca:	6078      	str	r0, [r7, #4]
   829cc:	6039      	str	r1, [r7, #0]
   829ce:	687b      	ldr	r3, [r7, #4]
   829d0:	683a      	ldr	r2, [r7, #0]
   829d2:	609a      	str	r2, [r3, #8]
   829d4:	370c      	adds	r7, #12
   829d6:	46bd      	mov	sp, r7
   829d8:	f85d 7b04 	ldr.w	r7, [sp], #4
   829dc:	4770      	bx	lr
   829de:	bf00      	nop

000829e0 <uart_disable_interrupt>:
   829e0:	b480      	push	{r7}
   829e2:	b083      	sub	sp, #12
   829e4:	af00      	add	r7, sp, #0
   829e6:	6078      	str	r0, [r7, #4]
   829e8:	6039      	str	r1, [r7, #0]
   829ea:	687b      	ldr	r3, [r7, #4]
   829ec:	683a      	ldr	r2, [r7, #0]
   829ee:	60da      	str	r2, [r3, #12]
   829f0:	370c      	adds	r7, #12
   829f2:	46bd      	mov	sp, r7
   829f4:	f85d 7b04 	ldr.w	r7, [sp], #4
   829f8:	4770      	bx	lr
   829fa:	bf00      	nop

000829fc <uart_get_interrupt_mask>:
   829fc:	b480      	push	{r7}
   829fe:	b083      	sub	sp, #12
   82a00:	af00      	add	r7, sp, #0
   82a02:	6078      	str	r0, [r7, #4]
   82a04:	687b      	ldr	r3, [r7, #4]
   82a06:	691b      	ldr	r3, [r3, #16]
   82a08:	4618      	mov	r0, r3
   82a0a:	370c      	adds	r7, #12
   82a0c:	46bd      	mov	sp, r7
   82a0e:	f85d 7b04 	ldr.w	r7, [sp], #4
   82a12:	4770      	bx	lr

00082a14 <uart_get_status>:
   82a14:	b480      	push	{r7}
   82a16:	b083      	sub	sp, #12
   82a18:	af00      	add	r7, sp, #0
   82a1a:	6078      	str	r0, [r7, #4]
   82a1c:	687b      	ldr	r3, [r7, #4]
   82a1e:	695b      	ldr	r3, [r3, #20]
   82a20:	4618      	mov	r0, r3
   82a22:	370c      	adds	r7, #12
   82a24:	46bd      	mov	sp, r7
   82a26:	f85d 7b04 	ldr.w	r7, [sp], #4
   82a2a:	4770      	bx	lr

00082a2c <uart_reset_status>:
   82a2c:	b480      	push	{r7}
   82a2e:	b083      	sub	sp, #12
   82a30:	af00      	add	r7, sp, #0
   82a32:	6078      	str	r0, [r7, #4]
   82a34:	687b      	ldr	r3, [r7, #4]
   82a36:	f44f 7280 	mov.w	r2, #256	; 0x100
   82a3a:	601a      	str	r2, [r3, #0]
   82a3c:	370c      	adds	r7, #12
   82a3e:	46bd      	mov	sp, r7
   82a40:	f85d 7b04 	ldr.w	r7, [sp], #4
   82a44:	4770      	bx	lr
   82a46:	bf00      	nop

00082a48 <uart_is_tx_ready>:
   82a48:	b480      	push	{r7}
   82a4a:	b083      	sub	sp, #12
   82a4c:	af00      	add	r7, sp, #0
   82a4e:	6078      	str	r0, [r7, #4]
   82a50:	687b      	ldr	r3, [r7, #4]
   82a52:	695b      	ldr	r3, [r3, #20]
   82a54:	f003 0302 	and.w	r3, r3, #2
   82a58:	2b00      	cmp	r3, #0
   82a5a:	bf0c      	ite	eq
   82a5c:	2300      	moveq	r3, #0
   82a5e:	2301      	movne	r3, #1
   82a60:	b2db      	uxtb	r3, r3
   82a62:	4618      	mov	r0, r3
   82a64:	370c      	adds	r7, #12
   82a66:	46bd      	mov	sp, r7
   82a68:	f85d 7b04 	ldr.w	r7, [sp], #4
   82a6c:	4770      	bx	lr
   82a6e:	bf00      	nop

00082a70 <uart_is_tx_empty>:
   82a70:	b480      	push	{r7}
   82a72:	b083      	sub	sp, #12
   82a74:	af00      	add	r7, sp, #0
   82a76:	6078      	str	r0, [r7, #4]
   82a78:	687b      	ldr	r3, [r7, #4]
   82a7a:	695b      	ldr	r3, [r3, #20]
   82a7c:	f403 7300 	and.w	r3, r3, #512	; 0x200
   82a80:	2b00      	cmp	r3, #0
   82a82:	bf0c      	ite	eq
   82a84:	2300      	moveq	r3, #0
   82a86:	2301      	movne	r3, #1
   82a88:	b2db      	uxtb	r3, r3
   82a8a:	4618      	mov	r0, r3
   82a8c:	370c      	adds	r7, #12
   82a8e:	46bd      	mov	sp, r7
   82a90:	f85d 7b04 	ldr.w	r7, [sp], #4
   82a94:	4770      	bx	lr
   82a96:	bf00      	nop

00082a98 <uart_is_rx_ready>:
   82a98:	b480      	push	{r7}
   82a9a:	b083      	sub	sp, #12
   82a9c:	af00      	add	r7, sp, #0
   82a9e:	6078      	str	r0, [r7, #4]
   82aa0:	687b      	ldr	r3, [r7, #4]
   82aa2:	695b      	ldr	r3, [r3, #20]
   82aa4:	f003 0301 	and.w	r3, r3, #1
   82aa8:	2b00      	cmp	r3, #0
   82aaa:	bf0c      	ite	eq
   82aac:	2300      	moveq	r3, #0
   82aae:	2301      	movne	r3, #1
   82ab0:	b2db      	uxtb	r3, r3
   82ab2:	4618      	mov	r0, r3
   82ab4:	370c      	adds	r7, #12
   82ab6:	46bd      	mov	sp, r7
   82ab8:	f85d 7b04 	ldr.w	r7, [sp], #4
   82abc:	4770      	bx	lr
   82abe:	bf00      	nop

00082ac0 <uart_is_rx_buf_end>:
   82ac0:	b480      	push	{r7}
   82ac2:	b083      	sub	sp, #12
   82ac4:	af00      	add	r7, sp, #0
   82ac6:	6078      	str	r0, [r7, #4]
   82ac8:	687b      	ldr	r3, [r7, #4]
   82aca:	695b      	ldr	r3, [r3, #20]
   82acc:	f003 0308 	and.w	r3, r3, #8
   82ad0:	2b00      	cmp	r3, #0
   82ad2:	bf0c      	ite	eq
   82ad4:	2300      	moveq	r3, #0
   82ad6:	2301      	movne	r3, #1
   82ad8:	b2db      	uxtb	r3, r3
   82ada:	4618      	mov	r0, r3
   82adc:	370c      	adds	r7, #12
   82ade:	46bd      	mov	sp, r7
   82ae0:	f85d 7b04 	ldr.w	r7, [sp], #4
   82ae4:	4770      	bx	lr
   82ae6:	bf00      	nop

00082ae8 <uart_is_tx_buf_end>:
   82ae8:	b480      	push	{r7}
   82aea:	b083      	sub	sp, #12
   82aec:	af00      	add	r7, sp, #0
   82aee:	6078      	str	r0, [r7, #4]
   82af0:	687b      	ldr	r3, [r7, #4]
   82af2:	695b      	ldr	r3, [r3, #20]
   82af4:	f003 0310 	and.w	r3, r3, #16
   82af8:	2b00      	cmp	r3, #0
   82afa:	bf0c      	ite	eq
   82afc:	2300      	moveq	r3, #0
   82afe:	2301      	movne	r3, #1
   82b00:	b2db      	uxtb	r3, r3
   82b02:	4618      	mov	r0, r3
   82b04:	370c      	adds	r7, #12
   82b06:	46bd      	mov	sp, r7
   82b08:	f85d 7b04 	ldr.w	r7, [sp], #4
   82b0c:	4770      	bx	lr
   82b0e:	bf00      	nop

00082b10 <uart_is_rx_buf_full>:
   82b10:	b480      	push	{r7}
   82b12:	b083      	sub	sp, #12
   82b14:	af00      	add	r7, sp, #0
   82b16:	6078      	str	r0, [r7, #4]
   82b18:	687b      	ldr	r3, [r7, #4]
   82b1a:	695b      	ldr	r3, [r3, #20]
   82b1c:	f403 5380 	and.w	r3, r3, #4096	; 0x1000
   82b20:	2b00      	cmp	r3, #0
   82b22:	bf0c      	ite	eq
   82b24:	2300      	moveq	r3, #0
   82b26:	2301      	movne	r3, #1
   82b28:	b2db      	uxtb	r3, r3
   82b2a:	4618      	mov	r0, r3
   82b2c:	370c      	adds	r7, #12
   82b2e:	46bd      	mov	sp, r7
   82b30:	f85d 7b04 	ldr.w	r7, [sp], #4
   82b34:	4770      	bx	lr
   82b36:	bf00      	nop

00082b38 <uart_is_tx_buf_empty>:
   82b38:	b480      	push	{r7}
   82b3a:	b083      	sub	sp, #12
   82b3c:	af00      	add	r7, sp, #0
   82b3e:	6078      	str	r0, [r7, #4]
   82b40:	687b      	ldr	r3, [r7, #4]
   82b42:	695b      	ldr	r3, [r3, #20]
   82b44:	f403 7300 	and.w	r3, r3, #512	; 0x200
   82b48:	2b00      	cmp	r3, #0
   82b4a:	bf0c      	ite	eq
   82b4c:	2300      	moveq	r3, #0
   82b4e:	2301      	movne	r3, #1
   82b50:	b2db      	uxtb	r3, r3
   82b52:	4618      	mov	r0, r3
   82b54:	370c      	adds	r7, #12
   82b56:	46bd      	mov	sp, r7
   82b58:	f85d 7b04 	ldr.w	r7, [sp], #4
   82b5c:	4770      	bx	lr
   82b5e:	bf00      	nop

00082b60 <uart_set_clock_divisor>:
   82b60:	b480      	push	{r7}
   82b62:	b083      	sub	sp, #12
   82b64:	af00      	add	r7, sp, #0
   82b66:	6078      	str	r0, [r7, #4]
   82b68:	460b      	mov	r3, r1
   82b6a:	807b      	strh	r3, [r7, #2]
   82b6c:	887a      	ldrh	r2, [r7, #2]
   82b6e:	687b      	ldr	r3, [r7, #4]
   82b70:	621a      	str	r2, [r3, #32]
   82b72:	370c      	adds	r7, #12
   82b74:	46bd      	mov	sp, r7
   82b76:	f85d 7b04 	ldr.w	r7, [sp], #4
   82b7a:	4770      	bx	lr

00082b7c <uart_write>:
   82b7c:	b480      	push	{r7}
   82b7e:	b083      	sub	sp, #12
   82b80:	af00      	add	r7, sp, #0
   82b82:	6078      	str	r0, [r7, #4]
   82b84:	460b      	mov	r3, r1
   82b86:	70fb      	strb	r3, [r7, #3]
   82b88:	687b      	ldr	r3, [r7, #4]
   82b8a:	695b      	ldr	r3, [r3, #20]
   82b8c:	f003 0302 	and.w	r3, r3, #2
   82b90:	2b00      	cmp	r3, #0
   82b92:	d101      	bne.n	82b98 <uart_write+0x1c>
   82b94:	2301      	movs	r3, #1
   82b96:	e003      	b.n	82ba0 <uart_write+0x24>
   82b98:	78fa      	ldrb	r2, [r7, #3]
   82b9a:	687b      	ldr	r3, [r7, #4]
   82b9c:	61da      	str	r2, [r3, #28]
   82b9e:	2300      	movs	r3, #0
   82ba0:	4618      	mov	r0, r3
   82ba2:	370c      	adds	r7, #12
   82ba4:	46bd      	mov	sp, r7
   82ba6:	f85d 7b04 	ldr.w	r7, [sp], #4
   82baa:	4770      	bx	lr

00082bac <uart_read>:
   82bac:	b480      	push	{r7}
   82bae:	b083      	sub	sp, #12
   82bb0:	af00      	add	r7, sp, #0
   82bb2:	6078      	str	r0, [r7, #4]
   82bb4:	6039      	str	r1, [r7, #0]
   82bb6:	687b      	ldr	r3, [r7, #4]
   82bb8:	695b      	ldr	r3, [r3, #20]
   82bba:	f003 0301 	and.w	r3, r3, #1
   82bbe:	2b00      	cmp	r3, #0
   82bc0:	d101      	bne.n	82bc6 <uart_read+0x1a>
   82bc2:	2301      	movs	r3, #1
   82bc4:	e005      	b.n	82bd2 <uart_read+0x26>
   82bc6:	687b      	ldr	r3, [r7, #4]
   82bc8:	699b      	ldr	r3, [r3, #24]
   82bca:	b2da      	uxtb	r2, r3
   82bcc:	683b      	ldr	r3, [r7, #0]
   82bce:	701a      	strb	r2, [r3, #0]
   82bd0:	2300      	movs	r3, #0
   82bd2:	4618      	mov	r0, r3
   82bd4:	370c      	adds	r7, #12
   82bd6:	46bd      	mov	sp, r7
   82bd8:	f85d 7b04 	ldr.w	r7, [sp], #4
   82bdc:	4770      	bx	lr
   82bde:	bf00      	nop

00082be0 <uart_get_pdc_base>:
   82be0:	b480      	push	{r7}
   82be2:	b085      	sub	sp, #20
   82be4:	af00      	add	r7, sp, #0
   82be6:	6078      	str	r0, [r7, #4]
   82be8:	687a      	ldr	r2, [r7, #4]
   82bea:	f44f 6300 	mov.w	r3, #2048	; 0x800
   82bee:	f2c4 030e 	movt	r3, #16398	; 0x400e
   82bf2:	429a      	cmp	r2, r3
   82bf4:	d104      	bne.n	82c00 <uart_get_pdc_base+0x20>
   82bf6:	f44f 6310 	mov.w	r3, #2304	; 0x900
   82bfa:	f2c4 030e 	movt	r3, #16398	; 0x400e
   82bfe:	60fb      	str	r3, [r7, #12]
   82c00:	68fb      	ldr	r3, [r7, #12]
   82c02:	4618      	mov	r0, r3
   82c04:	3714      	adds	r7, #20
   82c06:	46bd      	mov	sp, r7
   82c08:	f85d 7b04 	ldr.w	r7, [sp], #4
   82c0c:	4770      	bx	lr
   82c0e:	bf00      	nop

00082c10 <atexit>:
   82c10:	4601      	mov	r1, r0
   82c12:	2000      	movs	r0, #0
   82c14:	4602      	mov	r2, r0
   82c16:	4603      	mov	r3, r0
   82c18:	f000 b966 	b.w	82ee8 <__register_exitproc>

00082c1c <__libc_fini_array>:
   82c1c:	b538      	push	{r3, r4, r5, lr}
   82c1e:	f24a 343c 	movw	r4, #41788	; 0xa33c
   82c22:	f24a 3538 	movw	r5, #41784	; 0xa338
   82c26:	f2c0 0408 	movt	r4, #8
   82c2a:	f2c0 0508 	movt	r5, #8
   82c2e:	1b64      	subs	r4, r4, r5
   82c30:	10a4      	asrs	r4, r4, #2
   82c32:	bf18      	it	ne
   82c34:	eb05 0584 	addne.w	r5, r5, r4, lsl #2
   82c38:	d005      	beq.n	82c46 <__libc_fini_array+0x2a>
   82c3a:	3c01      	subs	r4, #1
   82c3c:	f855 3d04 	ldr.w	r3, [r5, #-4]!
   82c40:	4798      	blx	r3
   82c42:	2c00      	cmp	r4, #0
   82c44:	d1f9      	bne.n	82c3a <__libc_fini_array+0x1e>
   82c46:	e8bd 4038 	ldmia.w	sp!, {r3, r4, r5, lr}
   82c4a:	f007 bb6f 	b.w	8a32c <_fini>
   82c4e:	bf00      	nop

00082c50 <__libc_init_array>:
   82c50:	b570      	push	{r4, r5, r6, lr}
   82c52:	f24a 3624 	movw	r6, #41764	; 0xa324
   82c56:	f24a 3524 	movw	r5, #41764	; 0xa324
   82c5a:	f2c0 0608 	movt	r6, #8
   82c5e:	f2c0 0508 	movt	r5, #8
   82c62:	1b76      	subs	r6, r6, r5
   82c64:	10b6      	asrs	r6, r6, #2
   82c66:	bf1c      	itt	ne
   82c68:	3d04      	subne	r5, #4
   82c6a:	2400      	movne	r4, #0
   82c6c:	d005      	beq.n	82c7a <__libc_init_array+0x2a>
   82c6e:	3401      	adds	r4, #1
   82c70:	f855 3f04 	ldr.w	r3, [r5, #4]!
   82c74:	4798      	blx	r3
   82c76:	42a6      	cmp	r6, r4
   82c78:	d1f9      	bne.n	82c6e <__libc_init_array+0x1e>
   82c7a:	f24a 362c 	movw	r6, #41772	; 0xa32c
   82c7e:	f24a 3524 	movw	r5, #41764	; 0xa324
   82c82:	f2c0 0508 	movt	r5, #8
   82c86:	f2c0 0608 	movt	r6, #8
   82c8a:	1b76      	subs	r6, r6, r5
   82c8c:	f007 fb44 	bl	8a318 <_init>
   82c90:	10b6      	asrs	r6, r6, #2
   82c92:	bf1c      	itt	ne
   82c94:	3d04      	subne	r5, #4
   82c96:	2400      	movne	r4, #0
   82c98:	d006      	beq.n	82ca8 <__libc_init_array+0x58>
   82c9a:	3401      	adds	r4, #1
   82c9c:	f855 3f04 	ldr.w	r3, [r5, #4]!
   82ca0:	4798      	blx	r3
   82ca2:	42a6      	cmp	r6, r4
   82ca4:	d1f9      	bne.n	82c9a <__libc_init_array+0x4a>
   82ca6:	bd70      	pop	{r4, r5, r6, pc}
   82ca8:	bd70      	pop	{r4, r5, r6, pc}
   82caa:	bf00      	nop

00082cac <memset>:
   82cac:	0783      	lsls	r3, r0, #30
   82cae:	b4f0      	push	{r4, r5, r6, r7}
   82cb0:	d048      	beq.n	82d44 <memset+0x98>
   82cb2:	1e54      	subs	r4, r2, #1
   82cb4:	2a00      	cmp	r2, #0
   82cb6:	d043      	beq.n	82d40 <memset+0x94>
   82cb8:	b2cd      	uxtb	r5, r1
   82cba:	4603      	mov	r3, r0
   82cbc:	e002      	b.n	82cc4 <memset+0x18>
   82cbe:	2c00      	cmp	r4, #0
   82cc0:	d03e      	beq.n	82d40 <memset+0x94>
   82cc2:	4614      	mov	r4, r2
   82cc4:	f803 5b01 	strb.w	r5, [r3], #1
   82cc8:	f013 0f03 	tst.w	r3, #3
   82ccc:	f104 32ff 	add.w	r2, r4, #4294967295	; 0xffffffff
   82cd0:	d1f5      	bne.n	82cbe <memset+0x12>
   82cd2:	2c03      	cmp	r4, #3
   82cd4:	d92d      	bls.n	82d32 <memset+0x86>
   82cd6:	b2cd      	uxtb	r5, r1
   82cd8:	2c0f      	cmp	r4, #15
   82cda:	ea45 2505 	orr.w	r5, r5, r5, lsl #8
   82cde:	ea45 4505 	orr.w	r5, r5, r5, lsl #16
   82ce2:	d918      	bls.n	82d16 <memset+0x6a>
   82ce4:	f1a4 0710 	sub.w	r7, r4, #16
   82ce8:	f103 0610 	add.w	r6, r3, #16
   82cec:	461a      	mov	r2, r3
   82cee:	093f      	lsrs	r7, r7, #4
   82cf0:	eb06 1607 	add.w	r6, r6, r7, lsl #4
   82cf4:	6015      	str	r5, [r2, #0]
   82cf6:	3210      	adds	r2, #16
   82cf8:	f842 5c0c 	str.w	r5, [r2, #-12]
   82cfc:	f842 5c08 	str.w	r5, [r2, #-8]
   82d00:	f842 5c04 	str.w	r5, [r2, #-4]
   82d04:	42b2      	cmp	r2, r6
   82d06:	d1f5      	bne.n	82cf4 <memset+0x48>
   82d08:	f004 040f 	and.w	r4, r4, #15
   82d0c:	3701      	adds	r7, #1
   82d0e:	2c03      	cmp	r4, #3
   82d10:	eb03 1307 	add.w	r3, r3, r7, lsl #4
   82d14:	d90d      	bls.n	82d32 <memset+0x86>
   82d16:	461e      	mov	r6, r3
   82d18:	4622      	mov	r2, r4
   82d1a:	3a04      	subs	r2, #4
   82d1c:	f846 5b04 	str.w	r5, [r6], #4
   82d20:	2a03      	cmp	r2, #3
   82d22:	d8fa      	bhi.n	82d1a <memset+0x6e>
   82d24:	1f22      	subs	r2, r4, #4
   82d26:	f004 0403 	and.w	r4, r4, #3
   82d2a:	f022 0203 	bic.w	r2, r2, #3
   82d2e:	3204      	adds	r2, #4
   82d30:	4413      	add	r3, r2
   82d32:	b12c      	cbz	r4, 82d40 <memset+0x94>
   82d34:	b2c9      	uxtb	r1, r1
   82d36:	441c      	add	r4, r3
   82d38:	f803 1b01 	strb.w	r1, [r3], #1
   82d3c:	42a3      	cmp	r3, r4
   82d3e:	d1fb      	bne.n	82d38 <memset+0x8c>
   82d40:	bcf0      	pop	{r4, r5, r6, r7}
   82d42:	4770      	bx	lr
   82d44:	4614      	mov	r4, r2
   82d46:	4603      	mov	r3, r0
   82d48:	e7c3      	b.n	82cd2 <memset+0x26>
   82d4a:	bf00      	nop

00082d4c <_sbrk>:
   82d4c:	b480      	push	{r7}
   82d4e:	b085      	sub	sp, #20
   82d50:	af00      	add	r7, sp, #0
   82d52:	6078      	str	r0, [r7, #4]
   82d54:	f240 53a4 	movw	r3, #1444	; 0x5a4
   82d58:	f2c2 0307 	movt	r3, #8199	; 0x2007
   82d5c:	681b      	ldr	r3, [r3, #0]
   82d5e:	2b00      	cmp	r3, #0
   82d60:	d108      	bne.n	82d74 <_sbrk+0x28>
   82d62:	f240 53a4 	movw	r3, #1444	; 0x5a4
   82d66:	f2c2 0307 	movt	r3, #8199	; 0x2007
   82d6a:	f240 52e8 	movw	r2, #1512	; 0x5e8
   82d6e:	f2c2 0207 	movt	r2, #8199	; 0x2007
   82d72:	601a      	str	r2, [r3, #0]
   82d74:	f240 53a4 	movw	r3, #1444	; 0x5a4
   82d78:	f2c2 0307 	movt	r3, #8199	; 0x2007
   82d7c:	681b      	ldr	r3, [r3, #0]
   82d7e:	60fb      	str	r3, [r7, #12]
   82d80:	f240 53a4 	movw	r3, #1444	; 0x5a4
   82d84:	f2c2 0307 	movt	r3, #8199	; 0x2007
   82d88:	681a      	ldr	r2, [r3, #0]
   82d8a:	687b      	ldr	r3, [r7, #4]
   82d8c:	441a      	add	r2, r3
   82d8e:	f240 53a4 	movw	r3, #1444	; 0x5a4
   82d92:	f2c2 0307 	movt	r3, #8199	; 0x2007
   82d96:	601a      	str	r2, [r3, #0]
   82d98:	68fb      	ldr	r3, [r7, #12]
   82d9a:	4618      	mov	r0, r3
   82d9c:	3714      	adds	r7, #20
   82d9e:	46bd      	mov	sp, r7
   82da0:	f85d 7b04 	ldr.w	r7, [sp], #4
   82da4:	4770      	bx	lr
   82da6:	bf00      	nop

00082da8 <link>:
   82da8:	b480      	push	{r7}
   82daa:	b083      	sub	sp, #12
   82dac:	af00      	add	r7, sp, #0
   82dae:	6078      	str	r0, [r7, #4]
   82db0:	6039      	str	r1, [r7, #0]
   82db2:	f04f 33ff 	mov.w	r3, #4294967295	; 0xffffffff
   82db6:	4618      	mov	r0, r3
   82db8:	370c      	adds	r7, #12
   82dba:	46bd      	mov	sp, r7
   82dbc:	f85d 7b04 	ldr.w	r7, [sp], #4
   82dc0:	4770      	bx	lr
   82dc2:	bf00      	nop

00082dc4 <_close>:
   82dc4:	b480      	push	{r7}
   82dc6:	b083      	sub	sp, #12
   82dc8:	af00      	add	r7, sp, #0
   82dca:	6078      	str	r0, [r7, #4]
   82dcc:	f04f 33ff 	mov.w	r3, #4294967295	; 0xffffffff
   82dd0:	4618      	mov	r0, r3
   82dd2:	370c      	adds	r7, #12
   82dd4:	46bd      	mov	sp, r7
   82dd6:	f85d 7b04 	ldr.w	r7, [sp], #4
   82dda:	4770      	bx	lr

00082ddc <_fstat>:
   82ddc:	b480      	push	{r7}
   82dde:	b083      	sub	sp, #12
   82de0:	af00      	add	r7, sp, #0
   82de2:	6078      	str	r0, [r7, #4]
   82de4:	6039      	str	r1, [r7, #0]
   82de6:	683b      	ldr	r3, [r7, #0]
   82de8:	f44f 5200 	mov.w	r2, #8192	; 0x2000
   82dec:	605a      	str	r2, [r3, #4]
   82dee:	2300      	movs	r3, #0
   82df0:	4618      	mov	r0, r3
   82df2:	370c      	adds	r7, #12
   82df4:	46bd      	mov	sp, r7
   82df6:	f85d 7b04 	ldr.w	r7, [sp], #4
   82dfa:	4770      	bx	lr

00082dfc <_isatty>:
   82dfc:	b480      	push	{r7}
   82dfe:	b083      	sub	sp, #12
   82e00:	af00      	add	r7, sp, #0
   82e02:	6078      	str	r0, [r7, #4]
   82e04:	2301      	movs	r3, #1
   82e06:	4618      	mov	r0, r3
   82e08:	370c      	adds	r7, #12
   82e0a:	46bd      	mov	sp, r7
   82e0c:	f85d 7b04 	ldr.w	r7, [sp], #4
   82e10:	4770      	bx	lr
   82e12:	bf00      	nop

00082e14 <_lseek>:
   82e14:	b480      	push	{r7}
   82e16:	b085      	sub	sp, #20
   82e18:	af00      	add	r7, sp, #0
   82e1a:	60f8      	str	r0, [r7, #12]
   82e1c:	60b9      	str	r1, [r7, #8]
   82e1e:	607a      	str	r2, [r7, #4]
   82e20:	2300      	movs	r3, #0
   82e22:	4618      	mov	r0, r3
   82e24:	3714      	adds	r7, #20
   82e26:	46bd      	mov	sp, r7
   82e28:	f85d 7b04 	ldr.w	r7, [sp], #4
   82e2c:	4770      	bx	lr
   82e2e:	bf00      	nop

00082e30 <_read>:
   82e30:	b480      	push	{r7}
   82e32:	b085      	sub	sp, #20
   82e34:	af00      	add	r7, sp, #0
   82e36:	60f8      	str	r0, [r7, #12]
   82e38:	60b9      	str	r1, [r7, #8]
   82e3a:	607a      	str	r2, [r7, #4]
   82e3c:	2300      	movs	r3, #0
   82e3e:	4618      	mov	r0, r3
   82e40:	3714      	adds	r7, #20
   82e42:	46bd      	mov	sp, r7
   82e44:	f85d 7b04 	ldr.w	r7, [sp], #4
   82e48:	4770      	bx	lr
   82e4a:	bf00      	nop

00082e4c <_write>:
   82e4c:	b480      	push	{r7}
   82e4e:	b087      	sub	sp, #28
   82e50:	af00      	add	r7, sp, #0
   82e52:	60f8      	str	r0, [r7, #12]
   82e54:	60b9      	str	r1, [r7, #8]
   82e56:	607a      	str	r2, [r7, #4]
   82e58:	2300      	movs	r3, #0
   82e5a:	617b      	str	r3, [r7, #20]
   82e5c:	e016      	b.n	82e8c <_write+0x40>
   82e5e:	bf00      	nop
   82e60:	f44f 6300 	mov.w	r3, #2048	; 0x800
   82e64:	f2c4 030e 	movt	r3, #16398	; 0x400e
   82e68:	695b      	ldr	r3, [r3, #20]
   82e6a:	f003 0302 	and.w	r3, r3, #2
   82e6e:	2b00      	cmp	r3, #0
   82e70:	d0f6      	beq.n	82e60 <_write+0x14>
   82e72:	f44f 6300 	mov.w	r3, #2048	; 0x800
   82e76:	f2c4 030e 	movt	r3, #16398	; 0x400e
   82e7a:	68ba      	ldr	r2, [r7, #8]
   82e7c:	7812      	ldrb	r2, [r2, #0]
   82e7e:	61da      	str	r2, [r3, #28]
   82e80:	697b      	ldr	r3, [r7, #20]
   82e82:	3301      	adds	r3, #1
   82e84:	617b      	str	r3, [r7, #20]
   82e86:	68bb      	ldr	r3, [r7, #8]
   82e88:	3301      	adds	r3, #1
   82e8a:	60bb      	str	r3, [r7, #8]
   82e8c:	697a      	ldr	r2, [r7, #20]
   82e8e:	687b      	ldr	r3, [r7, #4]
   82e90:	429a      	cmp	r2, r3
   82e92:	dbe4      	blt.n	82e5e <_write+0x12>
   82e94:	697b      	ldr	r3, [r7, #20]
   82e96:	4618      	mov	r0, r3
   82e98:	371c      	adds	r7, #28
   82e9a:	46bd      	mov	sp, r7
   82e9c:	f85d 7b04 	ldr.w	r7, [sp], #4
   82ea0:	4770      	bx	lr
   82ea2:	bf00      	nop

00082ea4 <_exit>:
   82ea4:	b580      	push	{r7, lr}
   82ea6:	b082      	sub	sp, #8
   82ea8:	af00      	add	r7, sp, #0
   82eaa:	6078      	str	r0, [r7, #4]
   82eac:	f24a 00d0 	movw	r0, #41168	; 0xa0d0
   82eb0:	f2c0 0008 	movt	r0, #8
   82eb4:	6879      	ldr	r1, [r7, #4]
   82eb6:	f000 f8ad 	bl	83014 <printf>
   82eba:	e7fe      	b.n	82eba <_exit+0x16>

00082ebc <_kill>:
   82ebc:	b480      	push	{r7}
   82ebe:	b083      	sub	sp, #12
   82ec0:	af00      	add	r7, sp, #0
   82ec2:	6078      	str	r0, [r7, #4]
   82ec4:	6039      	str	r1, [r7, #0]
   82ec6:	bf00      	nop
   82ec8:	370c      	adds	r7, #12
   82eca:	46bd      	mov	sp, r7
   82ecc:	f85d 7b04 	ldr.w	r7, [sp], #4
   82ed0:	4770      	bx	lr
   82ed2:	bf00      	nop

00082ed4 <_getpid>:
   82ed4:	b480      	push	{r7}
   82ed6:	af00      	add	r7, sp, #0
   82ed8:	f04f 33ff 	mov.w	r3, #4294967295	; 0xffffffff
   82edc:	4618      	mov	r0, r3
   82ede:	46bd      	mov	sp, r7
   82ee0:	f85d 7b04 	ldr.w	r7, [sp], #4
   82ee4:	4770      	bx	lr
   82ee6:	bf00      	nop

00082ee8 <__register_exitproc>:
   82ee8:	e92d 41f0 	stmdb	sp!, {r4, r5, r6, r7, r8, lr}
   82eec:	f24a 04c8 	movw	r4, #41160	; 0xa0c8
   82ef0:	f2c0 0408 	movt	r4, #8
   82ef4:	b084      	sub	sp, #16
   82ef6:	4607      	mov	r7, r0
   82ef8:	6825      	ldr	r5, [r4, #0]
   82efa:	6cac      	ldr	r4, [r5, #72]	; 0x48
   82efc:	2c00      	cmp	r4, #0
   82efe:	d045      	beq.n	82f8c <__register_exitproc+0xa4>
   82f00:	6866      	ldr	r6, [r4, #4]
   82f02:	2e1f      	cmp	r6, #31
   82f04:	dd1c      	ble.n	82f40 <__register_exitproc+0x58>
   82f06:	f246 0485 	movw	r4, #24709	; 0x6085
   82f0a:	f2c0 0408 	movt	r4, #8
   82f0e:	b924      	cbnz	r4, 82f1a <__register_exitproc+0x32>
   82f10:	f04f 30ff 	mov.w	r0, #4294967295	; 0xffffffff
   82f14:	b004      	add	sp, #16
   82f16:	e8bd 81f0 	ldmia.w	sp!, {r4, r5, r6, r7, r8, pc}
   82f1a:	208c      	movs	r0, #140	; 0x8c
   82f1c:	9103      	str	r1, [sp, #12]
   82f1e:	9202      	str	r2, [sp, #8]
   82f20:	9301      	str	r3, [sp, #4]
   82f22:	f003 f8af 	bl	86084 <malloc>
   82f26:	9903      	ldr	r1, [sp, #12]
   82f28:	9a02      	ldr	r2, [sp, #8]
   82f2a:	9b01      	ldr	r3, [sp, #4]
   82f2c:	4604      	mov	r4, r0
   82f2e:	2800      	cmp	r0, #0
   82f30:	d0ee      	beq.n	82f10 <__register_exitproc+0x28>
   82f32:	6cae      	ldr	r6, [r5, #72]	; 0x48
   82f34:	2000      	movs	r0, #0
   82f36:	6060      	str	r0, [r4, #4]
   82f38:	6026      	str	r6, [r4, #0]
   82f3a:	64ac      	str	r4, [r5, #72]	; 0x48
   82f3c:	f8c4 0088 	str.w	r0, [r4, #136]	; 0x88
   82f40:	b1d7      	cbz	r7, 82f78 <__register_exitproc+0x90>
   82f42:	f8d4 6088 	ldr.w	r6, [r4, #136]	; 0x88
   82f46:	b32e      	cbz	r6, 82f94 <__register_exitproc+0xac>
   82f48:	f8d6 8100 	ldr.w	r8, [r6, #256]	; 0x100
   82f4c:	6865      	ldr	r5, [r4, #4]
   82f4e:	2001      	movs	r0, #1
   82f50:	2f02      	cmp	r7, #2
   82f52:	fa00 f005 	lsl.w	r0, r0, r5
   82f56:	eb06 0c85 	add.w	ip, r6, r5, lsl #2
   82f5a:	f846 2025 	str.w	r2, [r6, r5, lsl #2]
   82f5e:	ea48 0200 	orr.w	r2, r8, r0
   82f62:	f8c6 2100 	str.w	r2, [r6, #256]	; 0x100
   82f66:	f8cc 3080 	str.w	r3, [ip, #128]	; 0x80
   82f6a:	bf02      	ittt	eq
   82f6c:	f8d6 3104 	ldreq.w	r3, [r6, #260]	; 0x104
   82f70:	4318      	orreq	r0, r3
   82f72:	f8c6 0104 	streq.w	r0, [r6, #260]	; 0x104
   82f76:	e000      	b.n	82f7a <__register_exitproc+0x92>
   82f78:	6865      	ldr	r5, [r4, #4]
   82f7a:	1cab      	adds	r3, r5, #2
   82f7c:	2000      	movs	r0, #0
   82f7e:	3501      	adds	r5, #1
   82f80:	6065      	str	r5, [r4, #4]
   82f82:	f844 1023 	str.w	r1, [r4, r3, lsl #2]
   82f86:	b004      	add	sp, #16
   82f88:	e8bd 81f0 	ldmia.w	sp!, {r4, r5, r6, r7, r8, pc}
   82f8c:	f105 044c 	add.w	r4, r5, #76	; 0x4c
   82f90:	64ac      	str	r4, [r5, #72]	; 0x48
   82f92:	e7b5      	b.n	82f00 <__register_exitproc+0x18>
   82f94:	f246 0085 	movw	r0, #24709	; 0x6085
   82f98:	f2c0 0008 	movt	r0, #8
   82f9c:	2800      	cmp	r0, #0
   82f9e:	d0b7      	beq.n	82f10 <__register_exitproc+0x28>
   82fa0:	f44f 7084 	mov.w	r0, #264	; 0x108
   82fa4:	9103      	str	r1, [sp, #12]
   82fa6:	9202      	str	r2, [sp, #8]
   82fa8:	9301      	str	r3, [sp, #4]
   82faa:	f003 f86b 	bl	86084 <malloc>
   82fae:	9903      	ldr	r1, [sp, #12]
   82fb0:	9a02      	ldr	r2, [sp, #8]
   82fb2:	9b01      	ldr	r3, [sp, #4]
   82fb4:	4606      	mov	r6, r0
   82fb6:	2800      	cmp	r0, #0
   82fb8:	d0aa      	beq.n	82f10 <__register_exitproc+0x28>
   82fba:	2000      	movs	r0, #0
   82fbc:	f8c6 0100 	str.w	r0, [r6, #256]	; 0x100
   82fc0:	f8c6 0104 	str.w	r0, [r6, #260]	; 0x104
   82fc4:	4680      	mov	r8, r0
   82fc6:	f8c4 6088 	str.w	r6, [r4, #136]	; 0x88
   82fca:	e7bf      	b.n	82f4c <__register_exitproc+0x64>

00082fcc <register_fini>:
   82fcc:	f240 0300 	movw	r3, #0
   82fd0:	f2c0 0300 	movt	r3, #0
   82fd4:	b12b      	cbz	r3, 82fe2 <register_fini+0x16>
   82fd6:	f642 401d 	movw	r0, #11293	; 0x2c1d
   82fda:	f2c0 0008 	movt	r0, #8
   82fde:	f7ff be17 	b.w	82c10 <atexit>
   82fe2:	4770      	bx	lr

00082fe4 <_printf_r>:
   82fe4:	b40e      	push	{r1, r2, r3}
   82fe6:	b530      	push	{r4, r5, lr}
   82fe8:	b082      	sub	sp, #8
   82fea:	4604      	mov	r4, r0
   82fec:	9d05      	ldr	r5, [sp, #20]
   82fee:	b118      	cbz	r0, 82ff8 <_printf_r+0x14>
   82ff0:	6983      	ldr	r3, [r0, #24]
   82ff2:	b90b      	cbnz	r3, 82ff8 <_printf_r+0x14>
   82ff4:	f002 fd26 	bl	85a44 <__sinit>
   82ff8:	4620      	mov	r0, r4
   82ffa:	ac06      	add	r4, sp, #24
   82ffc:	462a      	mov	r2, r5
   82ffe:	4623      	mov	r3, r4
   83000:	6881      	ldr	r1, [r0, #8]
   83002:	9401      	str	r4, [sp, #4]
   83004:	f000 f822 	bl	8304c <_vfprintf_r>
   83008:	b002      	add	sp, #8
   8300a:	e8bd 4030 	ldmia.w	sp!, {r4, r5, lr}
   8300e:	b003      	add	sp, #12
   83010:	4770      	bx	lr
   83012:	bf00      	nop

00083014 <printf>:
   83014:	b40f      	push	{r0, r1, r2, r3}
   83016:	f240 0304 	movw	r3, #4
   8301a:	f2c2 0307 	movt	r3, #8199	; 0x2007
   8301e:	b530      	push	{r4, r5, lr}
   83020:	b083      	sub	sp, #12
   83022:	681c      	ldr	r4, [r3, #0]
   83024:	9d06      	ldr	r5, [sp, #24]
   83026:	b124      	cbz	r4, 83032 <printf+0x1e>
   83028:	69a3      	ldr	r3, [r4, #24]
   8302a:	b913      	cbnz	r3, 83032 <printf+0x1e>
   8302c:	4620      	mov	r0, r4
   8302e:	f002 fd09 	bl	85a44 <__sinit>
   83032:	4620      	mov	r0, r4
   83034:	ac07      	add	r4, sp, #28
   83036:	462a      	mov	r2, r5
   83038:	4623      	mov	r3, r4
   8303a:	6881      	ldr	r1, [r0, #8]
   8303c:	9401      	str	r4, [sp, #4]
   8303e:	f000 f805 	bl	8304c <_vfprintf_r>
   83042:	b003      	add	sp, #12
   83044:	e8bd 4030 	ldmia.w	sp!, {r4, r5, lr}
   83048:	b004      	add	sp, #16
   8304a:	4770      	bx	lr

0008304c <_vfprintf_r>:
   8304c:	e92d 4ff0 	stmdb	sp!, {r4, r5, r6, r7, r8, r9, sl, fp, lr}
   83050:	b0c9      	sub	sp, #292	; 0x124
   83052:	461c      	mov	r4, r3
   83054:	4689      	mov	r9, r1
   83056:	920b      	str	r2, [sp, #44]	; 0x2c
   83058:	900c      	str	r0, [sp, #48]	; 0x30
   8305a:	f002 ff8d 	bl	85f78 <_localeconv_r>
   8305e:	9414      	str	r4, [sp, #80]	; 0x50
   83060:	6800      	ldr	r0, [r0, #0]
   83062:	9019      	str	r0, [sp, #100]	; 0x64
   83064:	f004 f9b0 	bl	873c8 <strlen>
   83068:	9d0c      	ldr	r5, [sp, #48]	; 0x30
   8306a:	901c      	str	r0, [sp, #112]	; 0x70
   8306c:	b11d      	cbz	r5, 83076 <_vfprintf_r+0x2a>
   8306e:	69ab      	ldr	r3, [r5, #24]
   83070:	2b00      	cmp	r3, #0
   83072:	f000 811f 	beq.w	832b4 <_vfprintf_r+0x268>
   83076:	f24a 13a0 	movw	r3, #41376	; 0xa1a0
   8307a:	f2c0 0308 	movt	r3, #8
   8307e:	4599      	cmp	r9, r3
   83080:	f000 8122 	beq.w	832c8 <_vfprintf_r+0x27c>
   83084:	f24a 1380 	movw	r3, #41344	; 0xa180
   83088:	f2c0 0308 	movt	r3, #8
   8308c:	4599      	cmp	r9, r3
   8308e:	f000 86dc 	beq.w	83e4a <_vfprintf_r+0xdfe>
   83092:	f24a 1360 	movw	r3, #41312	; 0xa160
   83096:	f2c0 0308 	movt	r3, #8
   8309a:	4599      	cmp	r9, r3
   8309c:	bf04      	itt	eq
   8309e:	9d0c      	ldreq	r5, [sp, #48]	; 0x30
   830a0:	f8d5 900c 	ldreq.w	r9, [r5, #12]
   830a4:	f8b9 300c 	ldrh.w	r3, [r9, #12]
   830a8:	b29a      	uxth	r2, r3
   830aa:	0495      	lsls	r5, r2, #18
   830ac:	d40a      	bmi.n	830c4 <_vfprintf_r+0x78>
   830ae:	f443 5300 	orr.w	r3, r3, #8192	; 0x2000
   830b2:	f8d9 1064 	ldr.w	r1, [r9, #100]	; 0x64
   830b6:	f8a9 300c 	strh.w	r3, [r9, #12]
   830ba:	b29a      	uxth	r2, r3
   830bc:	f421 5100 	bic.w	r1, r1, #8192	; 0x2000
   830c0:	f8c9 1064 	str.w	r1, [r9, #100]	; 0x64
   830c4:	0710      	lsls	r0, r2, #28
   830c6:	f140 80cc 	bpl.w	83262 <_vfprintf_r+0x216>
   830ca:	f8d9 3010 	ldr.w	r3, [r9, #16]
   830ce:	2b00      	cmp	r3, #0
   830d0:	f000 80c7 	beq.w	83262 <_vfprintf_r+0x216>
   830d4:	f002 021a 	and.w	r2, r2, #26
   830d8:	2a0a      	cmp	r2, #10
   830da:	f000 80ce 	beq.w	8327a <_vfprintf_r+0x22e>
   830de:	f24a 04ec 	movw	r4, #41196	; 0xa0ec
   830e2:	ad38      	add	r5, sp, #224	; 0xe0
   830e4:	f2c0 0408 	movt	r4, #8
   830e8:	9416      	str	r4, [sp, #88]	; 0x58
   830ea:	f10d 04df 	add.w	r4, sp, #223	; 0xdf
   830ee:	9408      	str	r4, [sp, #32]
   830f0:	9c16      	ldr	r4, [sp, #88]	; 0x58
   830f2:	af38      	add	r7, sp, #224	; 0xe0
   830f4:	9509      	str	r5, [sp, #36]	; 0x24
   830f6:	f24a 154c 	movw	r5, #41292	; 0xa14c
   830fa:	f104 0610 	add.w	r6, r4, #16
   830fe:	9c08      	ldr	r4, [sp, #32]
   83100:	2300      	movs	r3, #0
   83102:	f2c0 0508 	movt	r5, #8
   83106:	9312      	str	r3, [sp, #72]	; 0x48
   83108:	9517      	str	r5, [sp, #92]	; 0x5c
   8310a:	1b3d      	subs	r5, r7, r4
   8310c:	931b      	str	r3, [sp, #108]	; 0x6c
   8310e:	931d      	str	r3, [sp, #116]	; 0x74
   83110:	931a      	str	r3, [sp, #104]	; 0x68
   83112:	931e      	str	r3, [sp, #120]	; 0x78
   83114:	9315      	str	r3, [sp, #84]	; 0x54
   83116:	9521      	str	r5, [sp, #132]	; 0x84
   83118:	932d      	str	r3, [sp, #180]	; 0xb4
   8311a:	932c      	str	r3, [sp, #176]	; 0xb0
   8311c:	972b      	str	r7, [sp, #172]	; 0xac
   8311e:	f8cd 9040 	str.w	r9, [sp, #64]	; 0x40
   83122:	9d0b      	ldr	r5, [sp, #44]	; 0x2c
   83124:	782b      	ldrb	r3, [r5, #0]
   83126:	2b25      	cmp	r3, #37	; 0x25
   83128:	bf18      	it	ne
   8312a:	2b00      	cmpne	r3, #0
   8312c:	f000 80d0 	beq.w	832d0 <_vfprintf_r+0x284>
   83130:	1c6a      	adds	r2, r5, #1
   83132:	4614      	mov	r4, r2
   83134:	3201      	adds	r2, #1
   83136:	7823      	ldrb	r3, [r4, #0]
   83138:	2b25      	cmp	r3, #37	; 0x25
   8313a:	bf18      	it	ne
   8313c:	2b00      	cmpne	r3, #0
   8313e:	d1f8      	bne.n	83132 <_vfprintf_r+0xe6>
   83140:	980b      	ldr	r0, [sp, #44]	; 0x2c
   83142:	1a25      	subs	r5, r4, r0
   83144:	d00f      	beq.n	83166 <_vfprintf_r+0x11a>
   83146:	9b2c      	ldr	r3, [sp, #176]	; 0xb0
   83148:	9a2d      	ldr	r2, [sp, #180]	; 0xb4
   8314a:	3301      	adds	r3, #1
   8314c:	e887 0021 	stmia.w	r7, {r0, r5}
   83150:	2b07      	cmp	r3, #7
   83152:	442a      	add	r2, r5
   83154:	932c      	str	r3, [sp, #176]	; 0xb0
   83156:	bfd8      	it	le
   83158:	3708      	addle	r7, #8
   8315a:	922d      	str	r2, [sp, #180]	; 0xb4
   8315c:	f300 80a0 	bgt.w	832a0 <_vfprintf_r+0x254>
   83160:	9915      	ldr	r1, [sp, #84]	; 0x54
   83162:	4429      	add	r1, r5
   83164:	9115      	str	r1, [sp, #84]	; 0x54
   83166:	7823      	ldrb	r3, [r4, #0]
   83168:	2b00      	cmp	r3, #0
   8316a:	f000 8465 	beq.w	83a38 <_vfprintf_r+0x9ec>
   8316e:	2300      	movs	r3, #0
   83170:	1c65      	adds	r5, r4, #1
   83172:	461a      	mov	r2, r3
   83174:	f88d 308f 	strb.w	r3, [sp, #143]	; 0x8f
   83178:	9313      	str	r3, [sp, #76]	; 0x4c
   8317a:	930a      	str	r3, [sp, #40]	; 0x28
   8317c:	462b      	mov	r3, r5
   8317e:	f894 9001 	ldrb.w	r9, [r4, #1]
   83182:	f04f 34ff 	mov.w	r4, #4294967295	; 0xffffffff
   83186:	950b      	str	r5, [sp, #44]	; 0x2c
   83188:	940d      	str	r4, [sp, #52]	; 0x34
   8318a:	3301      	adds	r3, #1
   8318c:	f1a9 0120 	sub.w	r1, r9, #32
   83190:	2958      	cmp	r1, #88	; 0x58
   83192:	f200 8430 	bhi.w	839f6 <_vfprintf_r+0x9aa>
   83196:	e8df f011 	tbh	[pc, r1, lsl #1]
   8319a:	025b      	.short	0x025b
   8319c:	042e042e 	.word	0x042e042e
   831a0:	042e035a 	.word	0x042e035a
   831a4:	042e042e 	.word	0x042e042e
   831a8:	042e042e 	.word	0x042e042e
   831ac:	0361042e 	.word	0x0361042e
   831b0:	042e0356 	.word	0x042e0356
   831b4:	0262005d 	.word	0x0262005d
   831b8:	0282042e 	.word	0x0282042e
   831bc:	02890289 	.word	0x02890289
   831c0:	02890289 	.word	0x02890289
   831c4:	02890289 	.word	0x02890289
   831c8:	02890289 	.word	0x02890289
   831cc:	042e0289 	.word	0x042e0289
   831d0:	042e042e 	.word	0x042e042e
   831d4:	042e042e 	.word	0x042e042e
   831d8:	042e042e 	.word	0x042e042e
   831dc:	042e042e 	.word	0x042e042e
   831e0:	029a042e 	.word	0x029a042e
   831e4:	042e02bb 	.word	0x042e02bb
   831e8:	042e02bb 	.word	0x042e02bb
   831ec:	042e042e 	.word	0x042e042e
   831f0:	02f8042e 	.word	0x02f8042e
   831f4:	042e042e 	.word	0x042e042e
   831f8:	042e03f9 	.word	0x042e03f9
   831fc:	042e042e 	.word	0x042e042e
   83200:	042e042e 	.word	0x042e042e
   83204:	042e0415 	.word	0x042e0415
   83208:	036d042e 	.word	0x036d042e
   8320c:	042e042e 	.word	0x042e042e
   83210:	042e042e 	.word	0x042e042e
   83214:	042e042e 	.word	0x042e042e
   83218:	042e042e 	.word	0x042e042e
   8321c:	042e042e 	.word	0x042e042e
   83220:	039b0387 	.word	0x039b0387
   83224:	02bb02bb 	.word	0x02bb02bb
   83228:	03b302bb 	.word	0x03b302bb
   8322c:	042e039b 	.word	0x042e039b
   83230:	03ba042e 	.word	0x03ba042e
   83234:	03cd042e 	.word	0x03cd042e
   83238:	03e1024a 	.word	0x03e1024a
   8323c:	042e02ff 	.word	0x042e02ff
   83240:	042e0306 	.word	0x042e0306
   83244:	042e009d 	.word	0x042e009d
   83248:	0330042e 	.word	0x0330042e
   8324c:	9c13      	ldr	r4, [sp, #76]	; 0x4c
   8324e:	9114      	str	r1, [sp, #80]	; 0x50
   83250:	4264      	negs	r4, r4
   83252:	9413      	str	r4, [sp, #76]	; 0x4c
   83254:	9d0a      	ldr	r5, [sp, #40]	; 0x28
   83256:	f045 0504 	orr.w	r5, r5, #4
   8325a:	950a      	str	r5, [sp, #40]	; 0x28
   8325c:	f893 9000 	ldrb.w	r9, [r3]
   83260:	e793      	b.n	8318a <_vfprintf_r+0x13e>
   83262:	980c      	ldr	r0, [sp, #48]	; 0x30
   83264:	4649      	mov	r1, r9
   83266:	f001 f9e9 	bl	8463c <__swsetup_r>
   8326a:	b9a0      	cbnz	r0, 83296 <_vfprintf_r+0x24a>
   8326c:	f8b9 200c 	ldrh.w	r2, [r9, #12]
   83270:	f002 021a 	and.w	r2, r2, #26
   83274:	2a0a      	cmp	r2, #10
   83276:	f47f af32 	bne.w	830de <_vfprintf_r+0x92>
   8327a:	f9b9 300e 	ldrsh.w	r3, [r9, #14]
   8327e:	2b00      	cmp	r3, #0
   83280:	f6ff af2d 	blt.w	830de <_vfprintf_r+0x92>
   83284:	980c      	ldr	r0, [sp, #48]	; 0x30
   83286:	4649      	mov	r1, r9
   83288:	9a0b      	ldr	r2, [sp, #44]	; 0x2c
   8328a:	4623      	mov	r3, r4
   8328c:	f001 f998 	bl	845c0 <__sbprintf>
   83290:	b049      	add	sp, #292	; 0x124
   83292:	e8bd 8ff0 	ldmia.w	sp!, {r4, r5, r6, r7, r8, r9, sl, fp, pc}
   83296:	f04f 30ff 	mov.w	r0, #4294967295	; 0xffffffff
   8329a:	b049      	add	sp, #292	; 0x124
   8329c:	e8bd 8ff0 	ldmia.w	sp!, {r4, r5, r6, r7, r8, r9, sl, fp, pc}
   832a0:	980c      	ldr	r0, [sp, #48]	; 0x30
   832a2:	aa2b      	add	r2, sp, #172	; 0xac
   832a4:	9910      	ldr	r1, [sp, #64]	; 0x40
   832a6:	f004 f8fb 	bl	874a0 <__sprint_r>
   832aa:	2800      	cmp	r0, #0
   832ac:	f040 84ea 	bne.w	83c84 <_vfprintf_r+0xc38>
   832b0:	af38      	add	r7, sp, #224	; 0xe0
   832b2:	e755      	b.n	83160 <_vfprintf_r+0x114>
   832b4:	4628      	mov	r0, r5
   832b6:	f002 fbc5 	bl	85a44 <__sinit>
   832ba:	f24a 13a0 	movw	r3, #41376	; 0xa1a0
   832be:	f2c0 0308 	movt	r3, #8
   832c2:	4599      	cmp	r9, r3
   832c4:	f47f aede 	bne.w	83084 <_vfprintf_r+0x38>
   832c8:	9d0c      	ldr	r5, [sp, #48]	; 0x30
   832ca:	f8d5 9004 	ldr.w	r9, [r5, #4]
   832ce:	e6e9      	b.n	830a4 <_vfprintf_r+0x58>
   832d0:	9c0b      	ldr	r4, [sp, #44]	; 0x2c
   832d2:	e748      	b.n	83166 <_vfprintf_r+0x11a>
   832d4:	9d0a      	ldr	r5, [sp, #40]	; 0x28
   832d6:	930b      	str	r3, [sp, #44]	; 0x2c
   832d8:	06ab      	lsls	r3, r5, #26
   832da:	f140 837c 	bpl.w	839d6 <_vfprintf_r+0x98a>
   832de:	9c14      	ldr	r4, [sp, #80]	; 0x50
   832e0:	2301      	movs	r3, #1
   832e2:	1de2      	adds	r2, r4, #7
   832e4:	f022 0207 	bic.w	r2, r2, #7
   832e8:	f102 0508 	add.w	r5, r2, #8
   832ec:	9514      	str	r5, [sp, #80]	; 0x50
   832ee:	e9d2 4500 	ldrd	r4, r5, [r2]
   832f2:	f04f 0a00 	mov.w	sl, #0
   832f6:	f88d a08f 	strb.w	sl, [sp, #143]	; 0x8f
   832fa:	9a0d      	ldr	r2, [sp, #52]	; 0x34
   832fc:	2a00      	cmp	r2, #0
   832fe:	bfa2      	ittt	ge
   83300:	980a      	ldrge	r0, [sp, #40]	; 0x28
   83302:	f020 0080 	bicge.w	r0, r0, #128	; 0x80
   83306:	900a      	strge	r0, [sp, #40]	; 0x28
   83308:	ea54 0105 	orrs.w	r1, r4, r5
   8330c:	980d      	ldr	r0, [sp, #52]	; 0x34
   8330e:	bf0c      	ite	eq
   83310:	2200      	moveq	r2, #0
   83312:	2201      	movne	r2, #1
   83314:	2800      	cmp	r0, #0
   83316:	bf18      	it	ne
   83318:	f042 0201 	orrne.w	r2, r2, #1
   8331c:	2a00      	cmp	r2, #0
   8331e:	f000 83ff 	beq.w	83b20 <_vfprintf_r+0xad4>
   83322:	2b01      	cmp	r3, #1
   83324:	f000 851f 	beq.w	83d66 <_vfprintf_r+0xd1a>
   83328:	2b02      	cmp	r3, #2
   8332a:	f10d 02df 	add.w	r2, sp, #223	; 0xdf
   8332e:	f040 8162 	bne.w	835f6 <_vfprintf_r+0x5aa>
   83332:	f8dd c068 	ldr.w	ip, [sp, #104]	; 0x68
   83336:	f004 010f 	and.w	r1, r4, #15
   8333a:	0923      	lsrs	r3, r4, #4
   8333c:	ea43 7305 	orr.w	r3, r3, r5, lsl #28
   83340:	0928      	lsrs	r0, r5, #4
   83342:	f81c 1001 	ldrb.w	r1, [ip, r1]
   83346:	461c      	mov	r4, r3
   83348:	4605      	mov	r5, r0
   8334a:	4690      	mov	r8, r2
   8334c:	ea54 0005 	orrs.w	r0, r4, r5
   83350:	f102 32ff 	add.w	r2, r2, #4294967295	; 0xffffffff
   83354:	f888 1000 	strb.w	r1, [r8]
   83358:	d1ed      	bne.n	83336 <_vfprintf_r+0x2ea>
   8335a:	9b09      	ldr	r3, [sp, #36]	; 0x24
   8335c:	ebc8 0303 	rsb	r3, r8, r3
   83360:	9311      	str	r3, [sp, #68]	; 0x44
   83362:	9c0d      	ldr	r4, [sp, #52]	; 0x34
   83364:	9d11      	ldr	r5, [sp, #68]	; 0x44
   83366:	42a5      	cmp	r5, r4
   83368:	bfb8      	it	lt
   8336a:	4625      	movlt	r5, r4
   8336c:	2400      	movs	r4, #0
   8336e:	950e      	str	r5, [sp, #56]	; 0x38
   83370:	9418      	str	r4, [sp, #96]	; 0x60
   83372:	f1ba 0f00 	cmp.w	sl, #0
   83376:	d002      	beq.n	8337e <_vfprintf_r+0x332>
   83378:	9c0e      	ldr	r4, [sp, #56]	; 0x38
   8337a:	3401      	adds	r4, #1
   8337c:	940e      	str	r4, [sp, #56]	; 0x38
   8337e:	9d0a      	ldr	r5, [sp, #40]	; 0x28
   83380:	f015 0502 	ands.w	r5, r5, #2
   83384:	950f      	str	r5, [sp, #60]	; 0x3c
   83386:	bf1e      	ittt	ne
   83388:	9c0e      	ldrne	r4, [sp, #56]	; 0x38
   8338a:	3402      	addne	r4, #2
   8338c:	940e      	strne	r4, [sp, #56]	; 0x38
   8338e:	9c0a      	ldr	r4, [sp, #40]	; 0x28
   83390:	f014 0584 	ands.w	r5, r4, #132	; 0x84
   83394:	f040 834e 	bne.w	83a34 <_vfprintf_r+0x9e8>
   83398:	9c13      	ldr	r4, [sp, #76]	; 0x4c
   8339a:	980e      	ldr	r0, [sp, #56]	; 0x38
   8339c:	ebc0 0b04 	rsb	fp, r0, r4
   833a0:	f1bb 0f00 	cmp.w	fp, #0
   833a4:	f340 8346 	ble.w	83a34 <_vfprintf_r+0x9e8>
   833a8:	f1bb 0f10 	cmp.w	fp, #16
   833ac:	f24a 0aec 	movw	sl, #41196	; 0xa0ec
   833b0:	992d      	ldr	r1, [sp, #180]	; 0xb4
   833b2:	bfdc      	itt	le
   833b4:	f2c0 0a08 	movtle	sl, #8
   833b8:	9a2c      	ldrle	r2, [sp, #176]	; 0xb0
   833ba:	dd34      	ble.n	83426 <_vfprintf_r+0x3da>
   833bc:	f2c0 0a08 	movt	sl, #8
   833c0:	f8cd 907c 	str.w	r9, [sp, #124]	; 0x7c
   833c4:	f8cd 8080 	str.w	r8, [sp, #128]	; 0x80
   833c8:	2410      	movs	r4, #16
   833ca:	46d8      	mov	r8, fp
   833cc:	9a2c      	ldr	r2, [sp, #176]	; 0xb0
   833ce:	46d3      	mov	fp, sl
   833d0:	f8dd 9040 	ldr.w	r9, [sp, #64]	; 0x40
   833d4:	46aa      	mov	sl, r5
   833d6:	9d16      	ldr	r5, [sp, #88]	; 0x58
   833d8:	e004      	b.n	833e4 <_vfprintf_r+0x398>
   833da:	f1a8 0810 	sub.w	r8, r8, #16
   833de:	f1b8 0f10 	cmp.w	r8, #16
   833e2:	dd19      	ble.n	83418 <_vfprintf_r+0x3cc>
   833e4:	3201      	adds	r2, #1
   833e6:	3110      	adds	r1, #16
   833e8:	2a07      	cmp	r2, #7
   833ea:	603d      	str	r5, [r7, #0]
   833ec:	607c      	str	r4, [r7, #4]
   833ee:	f107 0708 	add.w	r7, r7, #8
   833f2:	922c      	str	r2, [sp, #176]	; 0xb0
   833f4:	912d      	str	r1, [sp, #180]	; 0xb4
   833f6:	ddf0      	ble.n	833da <_vfprintf_r+0x38e>
   833f8:	980c      	ldr	r0, [sp, #48]	; 0x30
   833fa:	4649      	mov	r1, r9
   833fc:	aa2b      	add	r2, sp, #172	; 0xac
   833fe:	af38      	add	r7, sp, #224	; 0xe0
   83400:	f004 f84e 	bl	874a0 <__sprint_r>
   83404:	2800      	cmp	r0, #0
   83406:	f040 8320 	bne.w	83a4a <_vfprintf_r+0x9fe>
   8340a:	f1a8 0810 	sub.w	r8, r8, #16
   8340e:	992d      	ldr	r1, [sp, #180]	; 0xb4
   83410:	f1b8 0f10 	cmp.w	r8, #16
   83414:	9a2c      	ldr	r2, [sp, #176]	; 0xb0
   83416:	dce5      	bgt.n	833e4 <_vfprintf_r+0x398>
   83418:	4655      	mov	r5, sl
   8341a:	f8dd 907c 	ldr.w	r9, [sp, #124]	; 0x7c
   8341e:	46da      	mov	sl, fp
   83420:	46c3      	mov	fp, r8
   83422:	f8dd 8080 	ldr.w	r8, [sp, #128]	; 0x80
   83426:	3201      	adds	r2, #1
   83428:	eb0b 0401 	add.w	r4, fp, r1
   8342c:	2a07      	cmp	r2, #7
   8342e:	922c      	str	r2, [sp, #176]	; 0xb0
   83430:	942d      	str	r4, [sp, #180]	; 0xb4
   83432:	e887 0c00 	stmia.w	r7, {sl, fp}
   83436:	f300 82f2 	bgt.w	83a1e <_vfprintf_r+0x9d2>
   8343a:	f89d a08f 	ldrb.w	sl, [sp, #143]	; 0x8f
   8343e:	3708      	adds	r7, #8
   83440:	f1ba 0f00 	cmp.w	sl, #0
   83444:	d00e      	beq.n	83464 <_vfprintf_r+0x418>
   83446:	9b2c      	ldr	r3, [sp, #176]	; 0xb0
   83448:	f10d 028f 	add.w	r2, sp, #143	; 0x8f
   8344c:	3401      	adds	r4, #1
   8344e:	603a      	str	r2, [r7, #0]
   83450:	3301      	adds	r3, #1
   83452:	2201      	movs	r2, #1
   83454:	2b07      	cmp	r3, #7
   83456:	607a      	str	r2, [r7, #4]
   83458:	942d      	str	r4, [sp, #180]	; 0xb4
   8345a:	bfd8      	it	le
   8345c:	3708      	addle	r7, #8
   8345e:	932c      	str	r3, [sp, #176]	; 0xb0
   83460:	f300 8418 	bgt.w	83c94 <_vfprintf_r+0xc48>
   83464:	9b0f      	ldr	r3, [sp, #60]	; 0x3c
   83466:	b16b      	cbz	r3, 83484 <_vfprintf_r+0x438>
   83468:	9b2c      	ldr	r3, [sp, #176]	; 0xb0
   8346a:	aa24      	add	r2, sp, #144	; 0x90
   8346c:	3402      	adds	r4, #2
   8346e:	603a      	str	r2, [r7, #0]
   83470:	3301      	adds	r3, #1
   83472:	2202      	movs	r2, #2
   83474:	2b07      	cmp	r3, #7
   83476:	607a      	str	r2, [r7, #4]
   83478:	942d      	str	r4, [sp, #180]	; 0xb4
   8347a:	bfd8      	it	le
   8347c:	3708      	addle	r7, #8
   8347e:	932c      	str	r3, [sp, #176]	; 0xb0
   83480:	f300 8413 	bgt.w	83caa <_vfprintf_r+0xc5e>
   83484:	2d80      	cmp	r5, #128	; 0x80
   83486:	f000 835e 	beq.w	83b46 <_vfprintf_r+0xafa>
   8348a:	9d0d      	ldr	r5, [sp, #52]	; 0x34
   8348c:	9b11      	ldr	r3, [sp, #68]	; 0x44
   8348e:	ebc3 0a05 	rsb	sl, r3, r5
   83492:	f1ba 0f00 	cmp.w	sl, #0
   83496:	dd43      	ble.n	83520 <_vfprintf_r+0x4d4>
   83498:	f1ba 0f10 	cmp.w	sl, #16
   8349c:	9b2c      	ldr	r3, [sp, #176]	; 0xb0
   8349e:	bfdc      	itt	le
   834a0:	4d9a      	ldrle	r5, [pc, #616]	; (8370c <_vfprintf_r+0x6c0>)
   834a2:	950f      	strle	r5, [sp, #60]	; 0x3c
   834a4:	dd27      	ble.n	834f6 <_vfprintf_r+0x4aa>
   834a6:	4899      	ldr	r0, [pc, #612]	; (8370c <_vfprintf_r+0x6c0>)
   834a8:	4622      	mov	r2, r4
   834aa:	2510      	movs	r5, #16
   834ac:	f8dd b030 	ldr.w	fp, [sp, #48]	; 0x30
   834b0:	9c10      	ldr	r4, [sp, #64]	; 0x40
   834b2:	900f      	str	r0, [sp, #60]	; 0x3c
   834b4:	e004      	b.n	834c0 <_vfprintf_r+0x474>
   834b6:	f1aa 0a10 	sub.w	sl, sl, #16
   834ba:	f1ba 0f10 	cmp.w	sl, #16
   834be:	dd19      	ble.n	834f4 <_vfprintf_r+0x4a8>
   834c0:	3301      	adds	r3, #1
   834c2:	3210      	adds	r2, #16
   834c4:	2b07      	cmp	r3, #7
   834c6:	603e      	str	r6, [r7, #0]
   834c8:	607d      	str	r5, [r7, #4]
   834ca:	f107 0708 	add.w	r7, r7, #8
   834ce:	932c      	str	r3, [sp, #176]	; 0xb0
   834d0:	922d      	str	r2, [sp, #180]	; 0xb4
   834d2:	ddf0      	ble.n	834b6 <_vfprintf_r+0x46a>
   834d4:	4658      	mov	r0, fp
   834d6:	4621      	mov	r1, r4
   834d8:	aa2b      	add	r2, sp, #172	; 0xac
   834da:	af38      	add	r7, sp, #224	; 0xe0
   834dc:	f003 ffe0 	bl	874a0 <__sprint_r>
   834e0:	2800      	cmp	r0, #0
   834e2:	f040 8375 	bne.w	83bd0 <_vfprintf_r+0xb84>
   834e6:	f1aa 0a10 	sub.w	sl, sl, #16
   834ea:	9a2d      	ldr	r2, [sp, #180]	; 0xb4
   834ec:	f1ba 0f10 	cmp.w	sl, #16
   834f0:	9b2c      	ldr	r3, [sp, #176]	; 0xb0
   834f2:	dce5      	bgt.n	834c0 <_vfprintf_r+0x474>
   834f4:	4614      	mov	r4, r2
   834f6:	3301      	adds	r3, #1
   834f8:	9d0f      	ldr	r5, [sp, #60]	; 0x3c
   834fa:	2b07      	cmp	r3, #7
   834fc:	4454      	add	r4, sl
   834fe:	932c      	str	r3, [sp, #176]	; 0xb0
   83500:	e887 0420 	stmia.w	r7, {r5, sl}
   83504:	bfd8      	it	le
   83506:	3708      	addle	r7, #8
   83508:	942d      	str	r4, [sp, #180]	; 0xb4
   8350a:	dd09      	ble.n	83520 <_vfprintf_r+0x4d4>
   8350c:	980c      	ldr	r0, [sp, #48]	; 0x30
   8350e:	aa2b      	add	r2, sp, #172	; 0xac
   83510:	9910      	ldr	r1, [sp, #64]	; 0x40
   83512:	f003 ffc5 	bl	874a0 <__sprint_r>
   83516:	2800      	cmp	r0, #0
   83518:	f040 83b4 	bne.w	83c84 <_vfprintf_r+0xc38>
   8351c:	9c2d      	ldr	r4, [sp, #180]	; 0xb4
   8351e:	af38      	add	r7, sp, #224	; 0xe0
   83520:	9d0a      	ldr	r5, [sp, #40]	; 0x28
   83522:	05ea      	lsls	r2, r5, #23
   83524:	f100 829a 	bmi.w	83a5c <_vfprintf_r+0xa10>
   83528:	9b2c      	ldr	r3, [sp, #176]	; 0xb0
   8352a:	9d11      	ldr	r5, [sp, #68]	; 0x44
   8352c:	3301      	adds	r3, #1
   8352e:	f8c7 8000 	str.w	r8, [r7]
   83532:	2b07      	cmp	r3, #7
   83534:	442c      	add	r4, r5
   83536:	607d      	str	r5, [r7, #4]
   83538:	942d      	str	r4, [sp, #180]	; 0xb4
   8353a:	932c      	str	r3, [sp, #176]	; 0xb0
   8353c:	f300 8391 	bgt.w	83c62 <_vfprintf_r+0xc16>
   83540:	3708      	adds	r7, #8
   83542:	9d0a      	ldr	r5, [sp, #40]	; 0x28
   83544:	076a      	lsls	r2, r5, #29
   83546:	d547      	bpl.n	835d8 <_vfprintf_r+0x58c>
   83548:	9813      	ldr	r0, [sp, #76]	; 0x4c
   8354a:	990e      	ldr	r1, [sp, #56]	; 0x38
   8354c:	1a45      	subs	r5, r0, r1
   8354e:	2d00      	cmp	r5, #0
   83550:	dd42      	ble.n	835d8 <_vfprintf_r+0x58c>
   83552:	2d10      	cmp	r5, #16
   83554:	f24a 0aec 	movw	sl, #41196	; 0xa0ec
   83558:	9b2c      	ldr	r3, [sp, #176]	; 0xb0
   8355a:	f2c0 0a08 	movt	sl, #8
   8355e:	dd29      	ble.n	835b4 <_vfprintf_r+0x568>
   83560:	f8cd a028 	str.w	sl, [sp, #40]	; 0x28
   83564:	f04f 0810 	mov.w	r8, #16
   83568:	f8dd 9030 	ldr.w	r9, [sp, #48]	; 0x30
   8356c:	f8dd b040 	ldr.w	fp, [sp, #64]	; 0x40
   83570:	f8dd a058 	ldr.w	sl, [sp, #88]	; 0x58
   83574:	e002      	b.n	8357c <_vfprintf_r+0x530>
   83576:	3d10      	subs	r5, #16
   83578:	2d10      	cmp	r5, #16
   8357a:	dd19      	ble.n	835b0 <_vfprintf_r+0x564>
   8357c:	3301      	adds	r3, #1
   8357e:	3410      	adds	r4, #16
   83580:	2b07      	cmp	r3, #7
   83582:	f8c7 a000 	str.w	sl, [r7]
   83586:	f8c7 8004 	str.w	r8, [r7, #4]
   8358a:	f107 0708 	add.w	r7, r7, #8
   8358e:	932c      	str	r3, [sp, #176]	; 0xb0
   83590:	942d      	str	r4, [sp, #180]	; 0xb4
   83592:	ddf0      	ble.n	83576 <_vfprintf_r+0x52a>
   83594:	4648      	mov	r0, r9
   83596:	4659      	mov	r1, fp
   83598:	aa2b      	add	r2, sp, #172	; 0xac
   8359a:	af38      	add	r7, sp, #224	; 0xe0
   8359c:	f003 ff80 	bl	874a0 <__sprint_r>
   835a0:	2800      	cmp	r0, #0
   835a2:	f040 84d5 	bne.w	83f50 <_vfprintf_r+0xf04>
   835a6:	3d10      	subs	r5, #16
   835a8:	9c2d      	ldr	r4, [sp, #180]	; 0xb4
   835aa:	2d10      	cmp	r5, #16
   835ac:	9b2c      	ldr	r3, [sp, #176]	; 0xb0
   835ae:	dce5      	bgt.n	8357c <_vfprintf_r+0x530>
   835b0:	f8dd a028 	ldr.w	sl, [sp, #40]	; 0x28
   835b4:	3301      	adds	r3, #1
   835b6:	442c      	add	r4, r5
   835b8:	2b07      	cmp	r3, #7
   835ba:	932c      	str	r3, [sp, #176]	; 0xb0
   835bc:	942d      	str	r4, [sp, #180]	; 0xb4
   835be:	f8c7 a000 	str.w	sl, [r7]
   835c2:	607d      	str	r5, [r7, #4]
   835c4:	dd08      	ble.n	835d8 <_vfprintf_r+0x58c>
   835c6:	980c      	ldr	r0, [sp, #48]	; 0x30
   835c8:	aa2b      	add	r2, sp, #172	; 0xac
   835ca:	9910      	ldr	r1, [sp, #64]	; 0x40
   835cc:	f003 ff68 	bl	874a0 <__sprint_r>
   835d0:	2800      	cmp	r0, #0
   835d2:	f040 8357 	bne.w	83c84 <_vfprintf_r+0xc38>
   835d6:	9c2d      	ldr	r4, [sp, #180]	; 0xb4
   835d8:	9d15      	ldr	r5, [sp, #84]	; 0x54
   835da:	990e      	ldr	r1, [sp, #56]	; 0x38
   835dc:	9813      	ldr	r0, [sp, #76]	; 0x4c
   835de:	4281      	cmp	r1, r0
   835e0:	bfac      	ite	ge
   835e2:	186d      	addge	r5, r5, r1
   835e4:	182d      	addlt	r5, r5, r0
   835e6:	9515      	str	r5, [sp, #84]	; 0x54
   835e8:	2c00      	cmp	r4, #0
   835ea:	f040 8343 	bne.w	83c74 <_vfprintf_r+0xc28>
   835ee:	2300      	movs	r3, #0
   835f0:	af38      	add	r7, sp, #224	; 0xe0
   835f2:	932c      	str	r3, [sp, #176]	; 0xb0
   835f4:	e595      	b.n	83122 <_vfprintf_r+0xd6>
   835f6:	08e3      	lsrs	r3, r4, #3
   835f8:	08e9      	lsrs	r1, r5, #3
   835fa:	ea43 7345 	orr.w	r3, r3, r5, lsl #29
   835fe:	4690      	mov	r8, r2
   83600:	460d      	mov	r5, r1
   83602:	f004 0207 	and.w	r2, r4, #7
   83606:	461c      	mov	r4, r3
   83608:	f102 0330 	add.w	r3, r2, #48	; 0x30
   8360c:	ea54 0105 	orrs.w	r1, r4, r5
   83610:	f108 32ff 	add.w	r2, r8, #4294967295	; 0xffffffff
   83614:	f888 3000 	strb.w	r3, [r8]
   83618:	d1ed      	bne.n	835f6 <_vfprintf_r+0x5aa>
   8361a:	9c0a      	ldr	r4, [sp, #40]	; 0x28
   8361c:	4641      	mov	r1, r8
   8361e:	07e0      	lsls	r0, r4, #31
   83620:	f100 84f7 	bmi.w	84012 <_vfprintf_r+0xfc6>
   83624:	9d09      	ldr	r5, [sp, #36]	; 0x24
   83626:	ebc8 0505 	rsb	r5, r8, r5
   8362a:	9511      	str	r5, [sp, #68]	; 0x44
   8362c:	e699      	b.n	83362 <_vfprintf_r+0x316>
   8362e:	9d0a      	ldr	r5, [sp, #40]	; 0x28
   83630:	930b      	str	r3, [sp, #44]	; 0x2c
   83632:	f015 0320 	ands.w	r3, r5, #32
   83636:	f000 81b3 	beq.w	839a0 <_vfprintf_r+0x954>
   8363a:	9c14      	ldr	r4, [sp, #80]	; 0x50
   8363c:	2300      	movs	r3, #0
   8363e:	1de2      	adds	r2, r4, #7
   83640:	f022 0207 	bic.w	r2, r2, #7
   83644:	f102 0508 	add.w	r5, r2, #8
   83648:	9514      	str	r5, [sp, #80]	; 0x50
   8364a:	e9d2 4500 	ldrd	r4, r5, [r2]
   8364e:	e650      	b.n	832f2 <_vfprintf_r+0x2a6>
   83650:	f893 9000 	ldrb.w	r9, [r3]
   83654:	2a00      	cmp	r2, #0
   83656:	f47f ad98 	bne.w	8318a <_vfprintf_r+0x13e>
   8365a:	2220      	movs	r2, #32
   8365c:	e595      	b.n	8318a <_vfprintf_r+0x13e>
   8365e:	f893 9000 	ldrb.w	r9, [r3]
   83662:	1c58      	adds	r0, r3, #1
   83664:	f1b9 0f2a 	cmp.w	r9, #42	; 0x2a
   83668:	f000 877d 	beq.w	84566 <_vfprintf_r+0x151a>
   8366c:	f1a9 0130 	sub.w	r1, r9, #48	; 0x30
   83670:	2909      	cmp	r1, #9
   83672:	bf82      	ittt	hi
   83674:	2400      	movhi	r4, #0
   83676:	4603      	movhi	r3, r0
   83678:	940d      	strhi	r4, [sp, #52]	; 0x34
   8367a:	f63f ad87 	bhi.w	8318c <_vfprintf_r+0x140>
   8367e:	2300      	movs	r3, #0
   83680:	eb03 0383 	add.w	r3, r3, r3, lsl #2
   83684:	f810 9b01 	ldrb.w	r9, [r0], #1
   83688:	eb01 0343 	add.w	r3, r1, r3, lsl #1
   8368c:	f1a9 0130 	sub.w	r1, r9, #48	; 0x30
   83690:	2909      	cmp	r1, #9
   83692:	d9f5      	bls.n	83680 <_vfprintf_r+0x634>
   83694:	ea43 73e3 	orr.w	r3, r3, r3, asr #31
   83698:	930d      	str	r3, [sp, #52]	; 0x34
   8369a:	4603      	mov	r3, r0
   8369c:	e576      	b.n	8318c <_vfprintf_r+0x140>
   8369e:	9c0a      	ldr	r4, [sp, #40]	; 0x28
   836a0:	f044 0480 	orr.w	r4, r4, #128	; 0x80
   836a4:	940a      	str	r4, [sp, #40]	; 0x28
   836a6:	f893 9000 	ldrb.w	r9, [r3]
   836aa:	e56e      	b.n	8318a <_vfprintf_r+0x13e>
   836ac:	2500      	movs	r5, #0
   836ae:	f1a9 0130 	sub.w	r1, r9, #48	; 0x30
   836b2:	4628      	mov	r0, r5
   836b4:	9513      	str	r5, [sp, #76]	; 0x4c
   836b6:	eb00 0080 	add.w	r0, r0, r0, lsl #2
   836ba:	f813 9b01 	ldrb.w	r9, [r3], #1
   836be:	eb01 0040 	add.w	r0, r1, r0, lsl #1
   836c2:	f1a9 0130 	sub.w	r1, r9, #48	; 0x30
   836c6:	2909      	cmp	r1, #9
   836c8:	d9f5      	bls.n	836b6 <_vfprintf_r+0x66a>
   836ca:	9013      	str	r0, [sp, #76]	; 0x4c
   836cc:	e55e      	b.n	8318c <_vfprintf_r+0x140>
   836ce:	9d0a      	ldr	r5, [sp, #40]	; 0x28
   836d0:	930b      	str	r3, [sp, #44]	; 0x2c
   836d2:	f045 0510 	orr.w	r5, r5, #16
   836d6:	950a      	str	r5, [sp, #40]	; 0x28
   836d8:	9c0a      	ldr	r4, [sp, #40]	; 0x28
   836da:	f88d 208f 	strb.w	r2, [sp, #143]	; 0x8f
   836de:	06a1      	lsls	r1, r4, #26
   836e0:	f140 80fd 	bpl.w	838de <_vfprintf_r+0x892>
   836e4:	9d14      	ldr	r5, [sp, #80]	; 0x50
   836e6:	1deb      	adds	r3, r5, #7
   836e8:	f023 0307 	bic.w	r3, r3, #7
   836ec:	f103 0408 	add.w	r4, r3, #8
   836f0:	9414      	str	r4, [sp, #80]	; 0x50
   836f2:	e9d3 2300 	ldrd	r2, r3, [r3]
   836f6:	4614      	mov	r4, r2
   836f8:	461d      	mov	r5, r3
   836fa:	2a00      	cmp	r2, #0
   836fc:	f173 0000 	sbcs.w	r0, r3, #0
   83700:	f2c0 8493 	blt.w	8402a <_vfprintf_r+0xfde>
   83704:	f89d a08f 	ldrb.w	sl, [sp, #143]	; 0x8f
   83708:	2301      	movs	r3, #1
   8370a:	e5f6      	b.n	832fa <_vfprintf_r+0x2ae>
   8370c:	0008a0fc 	.word	0x0008a0fc
   83710:	9c0a      	ldr	r4, [sp, #40]	; 0x28
   83712:	930b      	str	r3, [sp, #44]	; 0x2c
   83714:	0725      	lsls	r5, r4, #28
   83716:	f88d 208f 	strb.w	r2, [sp, #143]	; 0x8f
   8371a:	f140 851b 	bpl.w	84154 <_vfprintf_r+0x1108>
   8371e:	9d14      	ldr	r5, [sp, #80]	; 0x50
   83720:	1deb      	adds	r3, r5, #7
   83722:	f023 0307 	bic.w	r3, r3, #7
   83726:	f103 0408 	add.w	r4, r3, #8
   8372a:	9414      	str	r4, [sp, #80]	; 0x50
   8372c:	681d      	ldr	r5, [r3, #0]
   8372e:	951b      	str	r5, [sp, #108]	; 0x6c
   83730:	685b      	ldr	r3, [r3, #4]
   83732:	931d      	str	r3, [sp, #116]	; 0x74
   83734:	981b      	ldr	r0, [sp, #108]	; 0x6c
   83736:	991d      	ldr	r1, [sp, #116]	; 0x74
   83738:	f003 fca8 	bl	8708c <__fpclassifyd>
   8373c:	2801      	cmp	r0, #1
   8373e:	981b      	ldr	r0, [sp, #108]	; 0x6c
   83740:	f040 8480 	bne.w	84044 <_vfprintf_r+0xff8>
   83744:	2200      	movs	r2, #0
   83746:	2300      	movs	r3, #0
   83748:	991d      	ldr	r1, [sp, #116]	; 0x74
   8374a:	f006 f875 	bl	89838 <__aeabi_dcmplt>
   8374e:	2800      	cmp	r0, #0
   83750:	f040 8634 	bne.w	843bc <_vfprintf_r+0x1370>
   83754:	f89d a08f 	ldrb.w	sl, [sp, #143]	; 0x8f
   83758:	2503      	movs	r5, #3
   8375a:	f24a 1810 	movw	r8, #41232	; 0xa110
   8375e:	f24a 130c 	movw	r3, #41228	; 0xa10c
   83762:	950e      	str	r5, [sp, #56]	; 0x38
   83764:	9d0a      	ldr	r5, [sp, #40]	; 0x28
   83766:	f2c0 0808 	movt	r8, #8
   8376a:	f2c0 0308 	movt	r3, #8
   8376e:	2400      	movs	r4, #0
   83770:	f025 0580 	bic.w	r5, r5, #128	; 0x80
   83774:	940d      	str	r4, [sp, #52]	; 0x34
   83776:	950a      	str	r5, [sp, #40]	; 0x28
   83778:	2403      	movs	r4, #3
   8377a:	2500      	movs	r5, #0
   8377c:	f1b9 0f47 	cmp.w	r9, #71	; 0x47
   83780:	bfd8      	it	le
   83782:	4698      	movle	r8, r3
   83784:	9411      	str	r4, [sp, #68]	; 0x44
   83786:	9518      	str	r5, [sp, #96]	; 0x60
   83788:	e5f3      	b.n	83372 <_vfprintf_r+0x326>
   8378a:	9c0a      	ldr	r4, [sp, #40]	; 0x28
   8378c:	f044 0408 	orr.w	r4, r4, #8
   83790:	940a      	str	r4, [sp, #40]	; 0x28
   83792:	f893 9000 	ldrb.w	r9, [r3]
   83796:	e4f8      	b.n	8318a <_vfprintf_r+0x13e>
   83798:	9c0a      	ldr	r4, [sp, #40]	; 0x28
   8379a:	f044 0420 	orr.w	r4, r4, #32
   8379e:	940a      	str	r4, [sp, #40]	; 0x28
   837a0:	f893 9000 	ldrb.w	r9, [r3]
   837a4:	e4f1      	b.n	8318a <_vfprintf_r+0x13e>
   837a6:	9c14      	ldr	r4, [sp, #80]	; 0x50
   837a8:	9814      	ldr	r0, [sp, #80]	; 0x50
   837aa:	930b      	str	r3, [sp, #44]	; 0x2c
   837ac:	f8d4 8000 	ldr.w	r8, [r4]
   837b0:	1d05      	adds	r5, r0, #4
   837b2:	2400      	movs	r4, #0
   837b4:	f88d 408f 	strb.w	r4, [sp, #143]	; 0x8f
   837b8:	f1b8 0f00 	cmp.w	r8, #0
   837bc:	f000 85c6 	beq.w	8434c <_vfprintf_r+0x1300>
   837c0:	980d      	ldr	r0, [sp, #52]	; 0x34
   837c2:	2800      	cmp	r0, #0
   837c4:	4640      	mov	r0, r8
   837c6:	f2c0 859a 	blt.w	842fe <_vfprintf_r+0x12b2>
   837ca:	4621      	mov	r1, r4
   837cc:	9a0d      	ldr	r2, [sp, #52]	; 0x34
   837ce:	f002 ff21 	bl	86614 <memchr>
   837d2:	2800      	cmp	r0, #0
   837d4:	f000 860f 	beq.w	843f6 <_vfprintf_r+0x13aa>
   837d8:	9514      	str	r5, [sp, #80]	; 0x50
   837da:	ebc8 0000 	rsb	r0, r8, r0
   837de:	9d0d      	ldr	r5, [sp, #52]	; 0x34
   837e0:	940d      	str	r4, [sp, #52]	; 0x34
   837e2:	42a8      	cmp	r0, r5
   837e4:	bfb8      	it	lt
   837e6:	4605      	movlt	r5, r0
   837e8:	9511      	str	r5, [sp, #68]	; 0x44
   837ea:	ea25 74e5 	bic.w	r4, r5, r5, asr #31
   837ee:	9d0d      	ldr	r5, [sp, #52]	; 0x34
   837f0:	940e      	str	r4, [sp, #56]	; 0x38
   837f2:	f89d a08f 	ldrb.w	sl, [sp, #143]	; 0x8f
   837f6:	9518      	str	r5, [sp, #96]	; 0x60
   837f8:	e5bb      	b.n	83372 <_vfprintf_r+0x326>
   837fa:	9d0a      	ldr	r5, [sp, #40]	; 0x28
   837fc:	f24a 1430 	movw	r4, #41264	; 0xa130
   83800:	f2c0 0408 	movt	r4, #8
   83804:	930b      	str	r3, [sp, #44]	; 0x2c
   83806:	06a8      	lsls	r0, r5, #26
   83808:	f88d 208f 	strb.w	r2, [sp, #143]	; 0x8f
   8380c:	941a      	str	r4, [sp, #104]	; 0x68
   8380e:	d53c      	bpl.n	8388a <_vfprintf_r+0x83e>
   83810:	9c14      	ldr	r4, [sp, #80]	; 0x50
   83812:	1de3      	adds	r3, r4, #7
   83814:	f023 0307 	bic.w	r3, r3, #7
   83818:	f103 0508 	add.w	r5, r3, #8
   8381c:	9514      	str	r5, [sp, #80]	; 0x50
   8381e:	e9d3 4500 	ldrd	r4, r5, [r3]
   83822:	980a      	ldr	r0, [sp, #40]	; 0x28
   83824:	07c3      	lsls	r3, r0, #31
   83826:	f140 824b 	bpl.w	83cc0 <_vfprintf_r+0xc74>
   8382a:	ea54 0105 	orrs.w	r1, r4, r5
   8382e:	f000 8247 	beq.w	83cc0 <_vfprintf_r+0xc74>
   83832:	2330      	movs	r3, #48	; 0x30
   83834:	f040 0002 	orr.w	r0, r0, #2
   83838:	f88d 3090 	strb.w	r3, [sp, #144]	; 0x90
   8383c:	2302      	movs	r3, #2
   8383e:	f88d 9091 	strb.w	r9, [sp, #145]	; 0x91
   83842:	900a      	str	r0, [sp, #40]	; 0x28
   83844:	e555      	b.n	832f2 <_vfprintf_r+0x2a6>
   83846:	f893 9000 	ldrb.w	r9, [r3]
   8384a:	222b      	movs	r2, #43	; 0x2b
   8384c:	e49d      	b.n	8318a <_vfprintf_r+0x13e>
   8384e:	9d0a      	ldr	r5, [sp, #40]	; 0x28
   83850:	f045 0501 	orr.w	r5, r5, #1
   83854:	950a      	str	r5, [sp, #40]	; 0x28
   83856:	f893 9000 	ldrb.w	r9, [r3]
   8385a:	e496      	b.n	8318a <_vfprintf_r+0x13e>
   8385c:	9c14      	ldr	r4, [sp, #80]	; 0x50
   8385e:	9d14      	ldr	r5, [sp, #80]	; 0x50
   83860:	6824      	ldr	r4, [r4, #0]
   83862:	1d29      	adds	r1, r5, #4
   83864:	2c00      	cmp	r4, #0
   83866:	9413      	str	r4, [sp, #76]	; 0x4c
   83868:	f6ff acf0 	blt.w	8324c <_vfprintf_r+0x200>
   8386c:	9114      	str	r1, [sp, #80]	; 0x50
   8386e:	f893 9000 	ldrb.w	r9, [r3]
   83872:	e48a      	b.n	8318a <_vfprintf_r+0x13e>
   83874:	9d0a      	ldr	r5, [sp, #40]	; 0x28
   83876:	f24a 141c 	movw	r4, #41244	; 0xa11c
   8387a:	f2c0 0408 	movt	r4, #8
   8387e:	930b      	str	r3, [sp, #44]	; 0x2c
   83880:	06a8      	lsls	r0, r5, #26
   83882:	f88d 208f 	strb.w	r2, [sp, #143]	; 0x8f
   83886:	941a      	str	r4, [sp, #104]	; 0x68
   83888:	d4c2      	bmi.n	83810 <_vfprintf_r+0x7c4>
   8388a:	9c0a      	ldr	r4, [sp, #40]	; 0x28
   8388c:	06e1      	lsls	r1, r4, #27
   8388e:	f100 82c8 	bmi.w	83e22 <_vfprintf_r+0xdd6>
   83892:	9c0a      	ldr	r4, [sp, #40]	; 0x28
   83894:	0662      	lsls	r2, r4, #25
   83896:	f140 82c4 	bpl.w	83e22 <_vfprintf_r+0xdd6>
   8389a:	9814      	ldr	r0, [sp, #80]	; 0x50
   8389c:	2500      	movs	r5, #0
   8389e:	3004      	adds	r0, #4
   838a0:	f830 4c04 	ldrh.w	r4, [r0, #-4]
   838a4:	9014      	str	r0, [sp, #80]	; 0x50
   838a6:	e7bc      	b.n	83822 <_vfprintf_r+0x7d6>
   838a8:	9a14      	ldr	r2, [sp, #80]	; 0x50
   838aa:	2501      	movs	r5, #1
   838ac:	9c14      	ldr	r4, [sp, #80]	; 0x50
   838ae:	f10d 08b8 	add.w	r8, sp, #184	; 0xb8
   838b2:	930b      	str	r3, [sp, #44]	; 0x2c
   838b4:	2300      	movs	r3, #0
   838b6:	6812      	ldr	r2, [r2, #0]
   838b8:	3404      	adds	r4, #4
   838ba:	469a      	mov	sl, r3
   838bc:	950e      	str	r5, [sp, #56]	; 0x38
   838be:	9414      	str	r4, [sp, #80]	; 0x50
   838c0:	f88d 308f 	strb.w	r3, [sp, #143]	; 0x8f
   838c4:	930d      	str	r3, [sp, #52]	; 0x34
   838c6:	9318      	str	r3, [sp, #96]	; 0x60
   838c8:	9511      	str	r5, [sp, #68]	; 0x44
   838ca:	f88d 20b8 	strb.w	r2, [sp, #184]	; 0xb8
   838ce:	e556      	b.n	8337e <_vfprintf_r+0x332>
   838d0:	9c0a      	ldr	r4, [sp, #40]	; 0x28
   838d2:	930b      	str	r3, [sp, #44]	; 0x2c
   838d4:	06a1      	lsls	r1, r4, #26
   838d6:	f88d 208f 	strb.w	r2, [sp, #143]	; 0x8f
   838da:	f53f af03 	bmi.w	836e4 <_vfprintf_r+0x698>
   838de:	9d0a      	ldr	r5, [sp, #40]	; 0x28
   838e0:	06ea      	lsls	r2, r5, #27
   838e2:	f100 828d 	bmi.w	83e00 <_vfprintf_r+0xdb4>
   838e6:	9c0a      	ldr	r4, [sp, #40]	; 0x28
   838e8:	0663      	lsls	r3, r4, #25
   838ea:	f140 8289 	bpl.w	83e00 <_vfprintf_r+0xdb4>
   838ee:	9814      	ldr	r0, [sp, #80]	; 0x50
   838f0:	3004      	adds	r0, #4
   838f2:	f930 4c04 	ldrsh.w	r4, [r0, #-4]
   838f6:	9014      	str	r0, [sp, #80]	; 0x50
   838f8:	4622      	mov	r2, r4
   838fa:	17e5      	asrs	r5, r4, #31
   838fc:	462b      	mov	r3, r5
   838fe:	e6fc      	b.n	836fa <_vfprintf_r+0x6ae>
   83900:	9d0a      	ldr	r5, [sp, #40]	; 0x28
   83902:	f045 0540 	orr.w	r5, r5, #64	; 0x40
   83906:	950a      	str	r5, [sp, #40]	; 0x28
   83908:	f893 9000 	ldrb.w	r9, [r3]
   8390c:	e43d      	b.n	8318a <_vfprintf_r+0x13e>
   8390e:	f893 9000 	ldrb.w	r9, [r3]
   83912:	4619      	mov	r1, r3
   83914:	f1b9 0f6c 	cmp.w	r9, #108	; 0x6c
   83918:	bf05      	ittet	eq
   8391a:	3301      	addeq	r3, #1
   8391c:	9c0a      	ldreq	r4, [sp, #40]	; 0x28
   8391e:	9d0a      	ldrne	r5, [sp, #40]	; 0x28
   83920:	f044 0420 	orreq.w	r4, r4, #32
   83924:	bf0b      	itete	eq
   83926:	f891 9001 	ldrbeq.w	r9, [r1, #1]
   8392a:	f045 0510 	orrne.w	r5, r5, #16
   8392e:	940a      	streq	r4, [sp, #40]	; 0x28
   83930:	950a      	strne	r5, [sp, #40]	; 0x28
   83932:	e42a      	b.n	8318a <_vfprintf_r+0x13e>
   83934:	9d0a      	ldr	r5, [sp, #40]	; 0x28
   83936:	930b      	str	r3, [sp, #44]	; 0x2c
   83938:	06a9      	lsls	r1, r5, #26
   8393a:	f88d 208f 	strb.w	r2, [sp, #143]	; 0x8f
   8393e:	f140 8416 	bpl.w	8416e <_vfprintf_r+0x1122>
   83942:	9c14      	ldr	r4, [sp, #80]	; 0x50
   83944:	6821      	ldr	r1, [r4, #0]
   83946:	9c15      	ldr	r4, [sp, #84]	; 0x54
   83948:	4622      	mov	r2, r4
   8394a:	17e5      	asrs	r5, r4, #31
   8394c:	462b      	mov	r3, r5
   8394e:	9d14      	ldr	r5, [sp, #80]	; 0x50
   83950:	e9c1 2300 	strd	r2, r3, [r1]
   83954:	3504      	adds	r5, #4
   83956:	9514      	str	r5, [sp, #80]	; 0x50
   83958:	f7ff bbe3 	b.w	83122 <_vfprintf_r+0xd6>
   8395c:	930b      	str	r3, [sp, #44]	; 0x2c
   8395e:	f24a 1030 	movw	r0, #41264	; 0xa130
   83962:	9b14      	ldr	r3, [sp, #80]	; 0x50
   83964:	f04f 0978 	mov.w	r9, #120	; 0x78
   83968:	9d0a      	ldr	r5, [sp, #40]	; 0x28
   8396a:	f2c0 0008 	movt	r0, #8
   8396e:	f88d 9091 	strb.w	r9, [sp, #145]	; 0x91
   83972:	f045 0502 	orr.w	r5, r5, #2
   83976:	681c      	ldr	r4, [r3, #0]
   83978:	950a      	str	r5, [sp, #40]	; 0x28
   8397a:	1d1d      	adds	r5, r3, #4
   8397c:	901a      	str	r0, [sp, #104]	; 0x68
   8397e:	2330      	movs	r3, #48	; 0x30
   83980:	9514      	str	r5, [sp, #80]	; 0x50
   83982:	2500      	movs	r5, #0
   83984:	f88d 3090 	strb.w	r3, [sp, #144]	; 0x90
   83988:	2302      	movs	r3, #2
   8398a:	e4b2      	b.n	832f2 <_vfprintf_r+0x2a6>
   8398c:	9c0a      	ldr	r4, [sp, #40]	; 0x28
   8398e:	930b      	str	r3, [sp, #44]	; 0x2c
   83990:	f044 0410 	orr.w	r4, r4, #16
   83994:	940a      	str	r4, [sp, #40]	; 0x28
   83996:	9d0a      	ldr	r5, [sp, #40]	; 0x28
   83998:	f015 0320 	ands.w	r3, r5, #32
   8399c:	f47f ae4d 	bne.w	8363a <_vfprintf_r+0x5ee>
   839a0:	9c0a      	ldr	r4, [sp, #40]	; 0x28
   839a2:	f014 0210 	ands.w	r2, r4, #16
   839a6:	f040 8234 	bne.w	83e12 <_vfprintf_r+0xdc6>
   839aa:	9c0a      	ldr	r4, [sp, #40]	; 0x28
   839ac:	f014 0340 	ands.w	r3, r4, #64	; 0x40
   839b0:	f000 822f 	beq.w	83e12 <_vfprintf_r+0xdc6>
   839b4:	9814      	ldr	r0, [sp, #80]	; 0x50
   839b6:	4613      	mov	r3, r2
   839b8:	2500      	movs	r5, #0
   839ba:	3004      	adds	r0, #4
   839bc:	f830 4c04 	ldrh.w	r4, [r0, #-4]
   839c0:	9014      	str	r0, [sp, #80]	; 0x50
   839c2:	e496      	b.n	832f2 <_vfprintf_r+0x2a6>
   839c4:	9c0a      	ldr	r4, [sp, #40]	; 0x28
   839c6:	930b      	str	r3, [sp, #44]	; 0x2c
   839c8:	f044 0410 	orr.w	r4, r4, #16
   839cc:	940a      	str	r4, [sp, #40]	; 0x28
   839ce:	9d0a      	ldr	r5, [sp, #40]	; 0x28
   839d0:	06ab      	lsls	r3, r5, #26
   839d2:	f53f ac84 	bmi.w	832de <_vfprintf_r+0x292>
   839d6:	9c0a      	ldr	r4, [sp, #40]	; 0x28
   839d8:	06e5      	lsls	r5, r4, #27
   839da:	f100 8208 	bmi.w	83dee <_vfprintf_r+0xda2>
   839de:	9c0a      	ldr	r4, [sp, #40]	; 0x28
   839e0:	0664      	lsls	r4, r4, #25
   839e2:	f140 8204 	bpl.w	83dee <_vfprintf_r+0xda2>
   839e6:	9814      	ldr	r0, [sp, #80]	; 0x50
   839e8:	2500      	movs	r5, #0
   839ea:	2301      	movs	r3, #1
   839ec:	3004      	adds	r0, #4
   839ee:	f830 4c04 	ldrh.w	r4, [r0, #-4]
   839f2:	9014      	str	r0, [sp, #80]	; 0x50
   839f4:	e47d      	b.n	832f2 <_vfprintf_r+0x2a6>
   839f6:	930b      	str	r3, [sp, #44]	; 0x2c
   839f8:	f88d 208f 	strb.w	r2, [sp, #143]	; 0x8f
   839fc:	f1b9 0f00 	cmp.w	r9, #0
   83a00:	d01a      	beq.n	83a38 <_vfprintf_r+0x9ec>
   83a02:	2300      	movs	r3, #0
   83a04:	2501      	movs	r5, #1
   83a06:	469a      	mov	sl, r3
   83a08:	950e      	str	r5, [sp, #56]	; 0x38
   83a0a:	f88d 90b8 	strb.w	r9, [sp, #184]	; 0xb8
   83a0e:	f10d 08b8 	add.w	r8, sp, #184	; 0xb8
   83a12:	f88d 308f 	strb.w	r3, [sp, #143]	; 0x8f
   83a16:	930d      	str	r3, [sp, #52]	; 0x34
   83a18:	9318      	str	r3, [sp, #96]	; 0x60
   83a1a:	9511      	str	r5, [sp, #68]	; 0x44
   83a1c:	e4af      	b.n	8337e <_vfprintf_r+0x332>
   83a1e:	980c      	ldr	r0, [sp, #48]	; 0x30
   83a20:	aa2b      	add	r2, sp, #172	; 0xac
   83a22:	9910      	ldr	r1, [sp, #64]	; 0x40
   83a24:	f003 fd3c 	bl	874a0 <__sprint_r>
   83a28:	2800      	cmp	r0, #0
   83a2a:	f040 812b 	bne.w	83c84 <_vfprintf_r+0xc38>
   83a2e:	f89d a08f 	ldrb.w	sl, [sp, #143]	; 0x8f
   83a32:	af38      	add	r7, sp, #224	; 0xe0
   83a34:	9c2d      	ldr	r4, [sp, #180]	; 0xb4
   83a36:	e503      	b.n	83440 <_vfprintf_r+0x3f4>
   83a38:	9b2d      	ldr	r3, [sp, #180]	; 0xb4
   83a3a:	f8dd 9040 	ldr.w	r9, [sp, #64]	; 0x40
   83a3e:	b123      	cbz	r3, 83a4a <_vfprintf_r+0x9fe>
   83a40:	980c      	ldr	r0, [sp, #48]	; 0x30
   83a42:	4649      	mov	r1, r9
   83a44:	aa2b      	add	r2, sp, #172	; 0xac
   83a46:	f003 fd2b 	bl	874a0 <__sprint_r>
   83a4a:	f8b9 300c 	ldrh.w	r3, [r9, #12]
   83a4e:	065b      	lsls	r3, r3, #25
   83a50:	f53f ac21 	bmi.w	83296 <_vfprintf_r+0x24a>
   83a54:	9815      	ldr	r0, [sp, #84]	; 0x54
   83a56:	b049      	add	sp, #292	; 0x124
   83a58:	e8bd 8ff0 	ldmia.w	sp!, {r4, r5, r6, r7, r8, r9, sl, fp, pc}
   83a5c:	f1b9 0f65 	cmp.w	r9, #101	; 0x65
   83a60:	f340 80b8 	ble.w	83bd4 <_vfprintf_r+0xb88>
   83a64:	981b      	ldr	r0, [sp, #108]	; 0x6c
   83a66:	2200      	movs	r2, #0
   83a68:	2300      	movs	r3, #0
   83a6a:	991d      	ldr	r1, [sp, #116]	; 0x74
   83a6c:	f005 feda 	bl	89824 <__aeabi_dcmpeq>
   83a70:	2800      	cmp	r0, #0
   83a72:	f000 8128 	beq.w	83cc6 <_vfprintf_r+0xc7a>
   83a76:	9b2c      	ldr	r3, [sp, #176]	; 0xb0
   83a78:	2201      	movs	r2, #1
   83a7a:	9d17      	ldr	r5, [sp, #92]	; 0x5c
   83a7c:	3401      	adds	r4, #1
   83a7e:	4413      	add	r3, r2
   83a80:	607a      	str	r2, [r7, #4]
   83a82:	2b07      	cmp	r3, #7
   83a84:	942d      	str	r4, [sp, #180]	; 0xb4
   83a86:	603d      	str	r5, [r7, #0]
   83a88:	bfd8      	it	le
   83a8a:	3708      	addle	r7, #8
   83a8c:	932c      	str	r3, [sp, #176]	; 0xb0
   83a8e:	f300 837a 	bgt.w	84186 <_vfprintf_r+0x113a>
   83a92:	9b25      	ldr	r3, [sp, #148]	; 0x94
   83a94:	9d12      	ldr	r5, [sp, #72]	; 0x48
   83a96:	42ab      	cmp	r3, r5
   83a98:	db03      	blt.n	83aa2 <_vfprintf_r+0xa56>
   83a9a:	9d0a      	ldr	r5, [sp, #40]	; 0x28
   83a9c:	07eb      	lsls	r3, r5, #31
   83a9e:	f57f ad50 	bpl.w	83542 <_vfprintf_r+0x4f6>
   83aa2:	9d1c      	ldr	r5, [sp, #112]	; 0x70
   83aa4:	9b2c      	ldr	r3, [sp, #176]	; 0xb0
   83aa6:	442c      	add	r4, r5
   83aa8:	9d19      	ldr	r5, [sp, #100]	; 0x64
   83aaa:	3301      	adds	r3, #1
   83aac:	942d      	str	r4, [sp, #180]	; 0xb4
   83aae:	2b07      	cmp	r3, #7
   83ab0:	932c      	str	r3, [sp, #176]	; 0xb0
   83ab2:	603d      	str	r5, [r7, #0]
   83ab4:	9d1c      	ldr	r5, [sp, #112]	; 0x70
   83ab6:	607d      	str	r5, [r7, #4]
   83ab8:	bfd8      	it	le
   83aba:	3708      	addle	r7, #8
   83abc:	f300 83f1 	bgt.w	842a2 <_vfprintf_r+0x1256>
   83ac0:	9d12      	ldr	r5, [sp, #72]	; 0x48
   83ac2:	f105 38ff 	add.w	r8, r5, #4294967295	; 0xffffffff
   83ac6:	f1b8 0f00 	cmp.w	r8, #0
   83aca:	f77f ad3a 	ble.w	83542 <_vfprintf_r+0x4f6>
   83ace:	f1b8 0f10 	cmp.w	r8, #16
   83ad2:	9b2c      	ldr	r3, [sp, #176]	; 0xb0
   83ad4:	f340 81ac 	ble.w	83e30 <_vfprintf_r+0xde4>
   83ad8:	4daa      	ldr	r5, [pc, #680]	; (83d84 <_vfprintf_r+0xd38>)
   83ada:	f04f 0910 	mov.w	r9, #16
   83ade:	f8dd a040 	ldr.w	sl, [sp, #64]	; 0x40
   83ae2:	950f      	str	r5, [sp, #60]	; 0x3c
   83ae4:	9d0c      	ldr	r5, [sp, #48]	; 0x30
   83ae6:	e005      	b.n	83af4 <_vfprintf_r+0xaa8>
   83ae8:	f1a8 0810 	sub.w	r8, r8, #16
   83aec:	f1b8 0f10 	cmp.w	r8, #16
   83af0:	f340 81a0 	ble.w	83e34 <_vfprintf_r+0xde8>
   83af4:	3301      	adds	r3, #1
   83af6:	3410      	adds	r4, #16
   83af8:	2b07      	cmp	r3, #7
   83afa:	e887 0240 	stmia.w	r7, {r6, r9}
   83afe:	932c      	str	r3, [sp, #176]	; 0xb0
   83b00:	f107 0708 	add.w	r7, r7, #8
   83b04:	942d      	str	r4, [sp, #180]	; 0xb4
   83b06:	ddef      	ble.n	83ae8 <_vfprintf_r+0xa9c>
   83b08:	4628      	mov	r0, r5
   83b0a:	4651      	mov	r1, sl
   83b0c:	aa2b      	add	r2, sp, #172	; 0xac
   83b0e:	af38      	add	r7, sp, #224	; 0xe0
   83b10:	f003 fcc6 	bl	874a0 <__sprint_r>
   83b14:	2800      	cmp	r0, #0
   83b16:	f040 838f 	bne.w	84238 <_vfprintf_r+0x11ec>
   83b1a:	9c2d      	ldr	r4, [sp, #180]	; 0xb4
   83b1c:	9b2c      	ldr	r3, [sp, #176]	; 0xb0
   83b1e:	e7e3      	b.n	83ae8 <_vfprintf_r+0xa9c>
   83b20:	2b00      	cmp	r3, #0
   83b22:	f040 80b2 	bne.w	83c8a <_vfprintf_r+0xc3e>
   83b26:	9c0a      	ldr	r4, [sp, #40]	; 0x28
   83b28:	07e1      	lsls	r1, r4, #31
   83b2a:	bf5c      	itt	pl
   83b2c:	9311      	strpl	r3, [sp, #68]	; 0x44
   83b2e:	f10d 08e0 	addpl.w	r8, sp, #224	; 0xe0
   83b32:	f57f ac16 	bpl.w	83362 <_vfprintf_r+0x316>
   83b36:	9d21      	ldr	r5, [sp, #132]	; 0x84
   83b38:	2330      	movs	r3, #48	; 0x30
   83b3a:	f10d 08df 	add.w	r8, sp, #223	; 0xdf
   83b3e:	f88d 30df 	strb.w	r3, [sp, #223]	; 0xdf
   83b42:	9511      	str	r5, [sp, #68]	; 0x44
   83b44:	e40d      	b.n	83362 <_vfprintf_r+0x316>
   83b46:	9813      	ldr	r0, [sp, #76]	; 0x4c
   83b48:	990e      	ldr	r1, [sp, #56]	; 0x38
   83b4a:	1a45      	subs	r5, r0, r1
   83b4c:	2d00      	cmp	r5, #0
   83b4e:	f77f ac9c 	ble.w	8348a <_vfprintf_r+0x43e>
   83b52:	2d10      	cmp	r5, #16
   83b54:	9b2c      	ldr	r3, [sp, #176]	; 0xb0
   83b56:	bfdc      	itt	le
   83b58:	4a8a      	ldrle	r2, [pc, #552]	; (83d84 <_vfprintf_r+0xd38>)
   83b5a:	920f      	strle	r2, [sp, #60]	; 0x3c
   83b5c:	dd22      	ble.n	83ba4 <_vfprintf_r+0xb58>
   83b5e:	4889      	ldr	r0, [pc, #548]	; (83d84 <_vfprintf_r+0xd38>)
   83b60:	4622      	mov	r2, r4
   83b62:	f04f 0b10 	mov.w	fp, #16
   83b66:	f8dd a030 	ldr.w	sl, [sp, #48]	; 0x30
   83b6a:	9c10      	ldr	r4, [sp, #64]	; 0x40
   83b6c:	900f      	str	r0, [sp, #60]	; 0x3c
   83b6e:	e002      	b.n	83b76 <_vfprintf_r+0xb2a>
   83b70:	3d10      	subs	r5, #16
   83b72:	2d10      	cmp	r5, #16
   83b74:	dd15      	ble.n	83ba2 <_vfprintf_r+0xb56>
   83b76:	3301      	adds	r3, #1
   83b78:	3210      	adds	r2, #16
   83b7a:	2b07      	cmp	r3, #7
   83b7c:	e887 0840 	stmia.w	r7, {r6, fp}
   83b80:	932c      	str	r3, [sp, #176]	; 0xb0
   83b82:	f107 0708 	add.w	r7, r7, #8
   83b86:	922d      	str	r2, [sp, #180]	; 0xb4
   83b88:	ddf2      	ble.n	83b70 <_vfprintf_r+0xb24>
   83b8a:	4650      	mov	r0, sl
   83b8c:	4621      	mov	r1, r4
   83b8e:	aa2b      	add	r2, sp, #172	; 0xac
   83b90:	af38      	add	r7, sp, #224	; 0xe0
   83b92:	f003 fc85 	bl	874a0 <__sprint_r>
   83b96:	b9d8      	cbnz	r0, 83bd0 <_vfprintf_r+0xb84>
   83b98:	3d10      	subs	r5, #16
   83b9a:	9a2d      	ldr	r2, [sp, #180]	; 0xb4
   83b9c:	2d10      	cmp	r5, #16
   83b9e:	9b2c      	ldr	r3, [sp, #176]	; 0xb0
   83ba0:	dce9      	bgt.n	83b76 <_vfprintf_r+0xb2a>
   83ba2:	4614      	mov	r4, r2
   83ba4:	3301      	adds	r3, #1
   83ba6:	990f      	ldr	r1, [sp, #60]	; 0x3c
   83ba8:	2b07      	cmp	r3, #7
   83baa:	442c      	add	r4, r5
   83bac:	932c      	str	r3, [sp, #176]	; 0xb0
   83bae:	e887 0022 	stmia.w	r7, {r1, r5}
   83bb2:	bfd8      	it	le
   83bb4:	3708      	addle	r7, #8
   83bb6:	942d      	str	r4, [sp, #180]	; 0xb4
   83bb8:	f77f ac67 	ble.w	8348a <_vfprintf_r+0x43e>
   83bbc:	980c      	ldr	r0, [sp, #48]	; 0x30
   83bbe:	aa2b      	add	r2, sp, #172	; 0xac
   83bc0:	9910      	ldr	r1, [sp, #64]	; 0x40
   83bc2:	f003 fc6d 	bl	874a0 <__sprint_r>
   83bc6:	2800      	cmp	r0, #0
   83bc8:	d15c      	bne.n	83c84 <_vfprintf_r+0xc38>
   83bca:	9c2d      	ldr	r4, [sp, #180]	; 0xb4
   83bcc:	af38      	add	r7, sp, #224	; 0xe0
   83bce:	e45c      	b.n	8348a <_vfprintf_r+0x43e>
   83bd0:	46a1      	mov	r9, r4
   83bd2:	e73a      	b.n	83a4a <_vfprintf_r+0x9fe>
   83bd4:	9d12      	ldr	r5, [sp, #72]	; 0x48
   83bd6:	9b2c      	ldr	r3, [sp, #176]	; 0xb0
   83bd8:	2d01      	cmp	r5, #1
   83bda:	f340 81bb 	ble.w	83f54 <_vfprintf_r+0xf08>
   83bde:	2101      	movs	r1, #1
   83be0:	1c62      	adds	r2, r4, #1
   83be2:	440b      	add	r3, r1
   83be4:	f8c7 8000 	str.w	r8, [r7]
   83be8:	2b07      	cmp	r3, #7
   83bea:	6079      	str	r1, [r7, #4]
   83bec:	922d      	str	r2, [sp, #180]	; 0xb4
   83bee:	bfd8      	it	le
   83bf0:	3708      	addle	r7, #8
   83bf2:	932c      	str	r3, [sp, #176]	; 0xb0
   83bf4:	f300 81cc 	bgt.w	83f90 <_vfprintf_r+0xf44>
   83bf8:	9d19      	ldr	r5, [sp, #100]	; 0x64
   83bfa:	1c5c      	adds	r4, r3, #1
   83bfc:	f8dd 9070 	ldr.w	r9, [sp, #112]	; 0x70
   83c00:	2c07      	cmp	r4, #7
   83c02:	942c      	str	r4, [sp, #176]	; 0xb0
   83c04:	603d      	str	r5, [r7, #0]
   83c06:	4491      	add	r9, r2
   83c08:	9d1c      	ldr	r5, [sp, #112]	; 0x70
   83c0a:	f8cd 90b4 	str.w	r9, [sp, #180]	; 0xb4
   83c0e:	607d      	str	r5, [r7, #4]
   83c10:	bfd8      	it	le
   83c12:	3708      	addle	r7, #8
   83c14:	f300 81c8 	bgt.w	83fa8 <_vfprintf_r+0xf5c>
   83c18:	981b      	ldr	r0, [sp, #108]	; 0x6c
   83c1a:	2200      	movs	r2, #0
   83c1c:	2300      	movs	r3, #0
   83c1e:	991d      	ldr	r1, [sp, #116]	; 0x74
   83c20:	f005 fe00 	bl	89824 <__aeabi_dcmpeq>
   83c24:	2800      	cmp	r0, #0
   83c26:	f040 80af 	bne.w	83d88 <_vfprintf_r+0xd3c>
   83c2a:	3401      	adds	r4, #1
   83c2c:	9d12      	ldr	r5, [sp, #72]	; 0x48
   83c2e:	2c07      	cmp	r4, #7
   83c30:	f108 0201 	add.w	r2, r8, #1
   83c34:	f105 33ff 	add.w	r3, r5, #4294967295	; 0xffffffff
   83c38:	942c      	str	r4, [sp, #176]	; 0xb0
   83c3a:	4499      	add	r9, r3
   83c3c:	603a      	str	r2, [r7, #0]
   83c3e:	f8cd 90b4 	str.w	r9, [sp, #180]	; 0xb4
   83c42:	607b      	str	r3, [r7, #4]
   83c44:	f300 8197 	bgt.w	83f76 <_vfprintf_r+0xf2a>
   83c48:	3708      	adds	r7, #8
   83c4a:	1c63      	adds	r3, r4, #1
   83c4c:	9d1e      	ldr	r5, [sp, #120]	; 0x78
   83c4e:	9c1e      	ldr	r4, [sp, #120]	; 0x78
   83c50:	2b07      	cmp	r3, #7
   83c52:	aa27      	add	r2, sp, #156	; 0x9c
   83c54:	932c      	str	r3, [sp, #176]	; 0xb0
   83c56:	444c      	add	r4, r9
   83c58:	e887 0024 	stmia.w	r7, {r2, r5}
   83c5c:	942d      	str	r4, [sp, #180]	; 0xb4
   83c5e:	f77f ac6f 	ble.w	83540 <_vfprintf_r+0x4f4>
   83c62:	980c      	ldr	r0, [sp, #48]	; 0x30
   83c64:	aa2b      	add	r2, sp, #172	; 0xac
   83c66:	9910      	ldr	r1, [sp, #64]	; 0x40
   83c68:	f003 fc1a 	bl	874a0 <__sprint_r>
   83c6c:	b950      	cbnz	r0, 83c84 <_vfprintf_r+0xc38>
   83c6e:	9c2d      	ldr	r4, [sp, #180]	; 0xb4
   83c70:	af38      	add	r7, sp, #224	; 0xe0
   83c72:	e466      	b.n	83542 <_vfprintf_r+0x4f6>
   83c74:	980c      	ldr	r0, [sp, #48]	; 0x30
   83c76:	aa2b      	add	r2, sp, #172	; 0xac
   83c78:	9910      	ldr	r1, [sp, #64]	; 0x40
   83c7a:	f003 fc11 	bl	874a0 <__sprint_r>
   83c7e:	2800      	cmp	r0, #0
   83c80:	f43f acb5 	beq.w	835ee <_vfprintf_r+0x5a2>
   83c84:	f8dd 9040 	ldr.w	r9, [sp, #64]	; 0x40
   83c88:	e6df      	b.n	83a4a <_vfprintf_r+0x9fe>
   83c8a:	9211      	str	r2, [sp, #68]	; 0x44
   83c8c:	f10d 08e0 	add.w	r8, sp, #224	; 0xe0
   83c90:	f7ff bb67 	b.w	83362 <_vfprintf_r+0x316>
   83c94:	980c      	ldr	r0, [sp, #48]	; 0x30
   83c96:	aa2b      	add	r2, sp, #172	; 0xac
   83c98:	9910      	ldr	r1, [sp, #64]	; 0x40
   83c9a:	f003 fc01 	bl	874a0 <__sprint_r>
   83c9e:	2800      	cmp	r0, #0
   83ca0:	d1f0      	bne.n	83c84 <_vfprintf_r+0xc38>
   83ca2:	9c2d      	ldr	r4, [sp, #180]	; 0xb4
   83ca4:	af38      	add	r7, sp, #224	; 0xe0
   83ca6:	f7ff bbdd 	b.w	83464 <_vfprintf_r+0x418>
   83caa:	980c      	ldr	r0, [sp, #48]	; 0x30
   83cac:	aa2b      	add	r2, sp, #172	; 0xac
   83cae:	9910      	ldr	r1, [sp, #64]	; 0x40
   83cb0:	f003 fbf6 	bl	874a0 <__sprint_r>
   83cb4:	2800      	cmp	r0, #0
   83cb6:	d1e5      	bne.n	83c84 <_vfprintf_r+0xc38>
   83cb8:	9c2d      	ldr	r4, [sp, #180]	; 0xb4
   83cba:	af38      	add	r7, sp, #224	; 0xe0
   83cbc:	f7ff bbe2 	b.w	83484 <_vfprintf_r+0x438>
   83cc0:	2302      	movs	r3, #2
   83cc2:	f7ff bb16 	b.w	832f2 <_vfprintf_r+0x2a6>
   83cc6:	9b25      	ldr	r3, [sp, #148]	; 0x94
   83cc8:	2b00      	cmp	r3, #0
   83cca:	f340 8267 	ble.w	8419c <_vfprintf_r+0x1150>
   83cce:	9d12      	ldr	r5, [sp, #72]	; 0x48
   83cd0:	9818      	ldr	r0, [sp, #96]	; 0x60
   83cd2:	f8dd b048 	ldr.w	fp, [sp, #72]	; 0x48
   83cd6:	4285      	cmp	r5, r0
   83cd8:	bfa8      	it	ge
   83cda:	4605      	movge	r5, r0
   83cdc:	2d00      	cmp	r5, #0
   83cde:	44c3      	add	fp, r8
   83ce0:	dd0c      	ble.n	83cfc <_vfprintf_r+0xcb0>
   83ce2:	9b2c      	ldr	r3, [sp, #176]	; 0xb0
   83ce4:	442c      	add	r4, r5
   83ce6:	f8c7 8000 	str.w	r8, [r7]
   83cea:	3301      	adds	r3, #1
   83cec:	607d      	str	r5, [r7, #4]
   83cee:	2b07      	cmp	r3, #7
   83cf0:	942d      	str	r4, [sp, #180]	; 0xb4
   83cf2:	932c      	str	r3, [sp, #176]	; 0xb0
   83cf4:	bfd8      	it	le
   83cf6:	3708      	addle	r7, #8
   83cf8:	f300 830f 	bgt.w	8431a <_vfprintf_r+0x12ce>
   83cfc:	9918      	ldr	r1, [sp, #96]	; 0x60
   83cfe:	ea25 75e5 	bic.w	r5, r5, r5, asr #31
   83d02:	ebc5 0901 	rsb	r9, r5, r1
   83d06:	f1b9 0f00 	cmp.w	r9, #0
   83d0a:	f340 80b9 	ble.w	83e80 <_vfprintf_r+0xe34>
   83d0e:	f1b9 0f10 	cmp.w	r9, #16
   83d12:	9b2c      	ldr	r3, [sp, #176]	; 0xb0
   83d14:	bfdc      	itt	le
